 SharedDLL_x86_debug

 Timestamp is 6791fcfe (Thu Jan 23 17:25:34 2025)

 Preferred load address is 10000000

 Start         Length     Name                   Class
 0001:00000000 00055e32H .textbss                DATA
 0002:00000000 000b5740H .text$mn                CODE
 0002:000b5740 00002782H .text$x                 CODE
 0003:00000000 00000104H .CRT$XCA                DATA
 0003:00000104 00000104H .CRT$XCZ                DATA
 0003:00000208 00000104H .CRT$XIA                DATA
 0003:0000030c 00000110H .CRT$XIC                DATA
 0003:0000041c 00000104H .CRT$XIZ                DATA
 0003:00000520 00000104H .CRT$XPA                DATA
 0003:00000624 0000010cH .CRT$XPX                DATA
 0003:00000730 00000104H .CRT$XPXA               DATA
 0003:00000834 00000104H .CRT$XPZ                DATA
 0003:00000938 00000104H .CRT$XTA                DATA
 0003:00000a3c 00000104H .CRT$XTZ                DATA
 0003:00000b40 00022980H .rdata                  DATA
 0003:000234c0 00000180H .rdata$CastGuardVftablesA DATA
 0003:00023640 0000014cH .rdata$CastGuardVftablesC DATA
 0003:0002378c 00000444H .rdata$r                DATA
 0003:00023bd0 000001c0H .rdata$zzzdbg           DATA
 0003:00023d90 00000104H .rtc$IAA                DATA
 0003:00023e94 00000104H .rtc$IMZ                DATA
 0003:00023f98 00000104H .rtc$IZZ                DATA
 0003:0002409c 00000104H .rtc$TAA                DATA
 0003:000241a0 00000104H .rtc$TMZ                DATA
 0003:000242a4 00000104H .rtc$TZZ                DATA
 0003:000243a8 00002208H .xdata$x                DATA
 0003:000265b0 0000017eH .edata                  DATA
 0004:00000000 00000c78H .data                   DATA
 0004:00000c78 00000170H .data$r                 DATA
 0004:00000de8 000001d8H .data$rs                DATA
 0004:00000fc0 00001674H .bss                    DATA
 0005:00000000 000001e4H .idata$5                DATA
 0005:000001e4 00000014H .idata$2                DATA
 0005:000001f8 00000014H .idata$3                DATA
 0005:0000020c 000001e4H .idata$4                DATA
 0005:000003f0 00000864H .idata$6                DATA
 0006:00000000 0000012bH Shared                  DATA
 0007:00000000 000001cdH .msvcjmc                DATA
 0008:00000000 0000010eH .00cfg                  DATA
 0009:00000000 00000199H .fptable                DATA
 000a:00000000 00000170H .rsrc$01                DATA
 000a:00000170 000001b6H .rsrc$02                DATA

  Address         Publics by Value              Rva+Base       Lib:Object

 0000:00000000       ___AbsoluteZero            00000000     <absolute>
 0000:00000000       ___arm64x_extra_rfe_table  00000000     <absolute>
 0000:00000000       ___arm64x_extra_rfe_table_size 00000000     <absolute>
 0000:00000000       ___arm64x_native_entrypoint 00000000     <absolute>
 0000:00000000       ___arm64x_redirection_metadata 00000000     <absolute>
 0000:00000000       ___arm64x_redirection_metadata_count 00000000     <absolute>
 0000:00000000       ___dynamic_value_reloc_table 00000000     <absolute>
 0000:00000000       ___enclave_config          00000000     <absolute>
 0000:00000000       ___guard_check_icall_a64n_fptr 00000000     <absolute>
 0000:00000000       ___guard_eh_cont_count     00000000     <absolute>
 0000:00000000       ___guard_eh_cont_table     00000000     <absolute>
 0000:00000000       ___guard_fids_count        00000000     <absolute>
 0000:00000000       ___guard_fids_table        00000000     <absolute>
 0000:00000000       ___guard_iat_count         00000000     <absolute>
 0000:00000000       ___guard_iat_table         00000000     <absolute>
 0000:00000000       ___guard_longjmp_count     00000000     <absolute>
 0000:00000000       ___guard_longjmp_table     00000000     <absolute>
 0000:00000000       ___hybrid_auxiliary_delayload_iat 00000000     <absolute>
 0000:00000000       ___hybrid_auxiliary_delayload_iat_copy 00000000     <absolute>
 0000:00000000       ___hybrid_auxiliary_iat    00000000     <absolute>
 0000:00000000       ___hybrid_auxiliary_iat_copy 00000000     <absolute>
 0000:00000000       ___hybrid_code_map         00000000     <absolute>
 0000:00000000       ___hybrid_code_map_count   00000000     <absolute>
 0000:00000000       ___hybrid_image_info_bitfield 00000000     <absolute>
 0000:00000000       ___safe_se_handler_count   00000000     <absolute>
 0000:00000000       ___safe_se_handler_table   00000000     <absolute>
 0000:00000000       ___volatile_metadata       00000000     <absolute>
 0000:00000000       ___x64_code_ranges_to_entry_points 00000000     <absolute>
 0000:00000000       ___x64_code_ranges_to_entry_points_count 00000000     <absolute>
 0000:00000000       __except_list              00000000     <absolute>
 0000:00000100       ___guard_flags             00000100     <absolute>
 0000:00000000       ___ImageBase               10000000     <linker-defined>
 0001:00000000       __enc$textbss$begin        10001000     <linker-defined>
 0001:00055e32       __enc$textbss$end          10056e32     <linker-defined>
 0002:00006950       _DllCreateInstance@4       1005d950 f   dllmain.obj
 0002:000069b0       _DllMain@12                1005d9b0 f   dllmain.obj
 0002:00006a10       _GetDllString@4            1005da10 f   dllmain.obj
 0002:00006a80       __JustMyCode_Default       1005da80 f i dllmain.obj
 0002:00006a90       @__CheckForDebuggerJustMyCode@4 1005da90 f   LIBCMTD:debugger_jmc.obj
 0002:00006ae0       @_RTC_AllocaHelper@12      1005dae0 f   LIBCMTD:stack.obj
 0002:00006b20       @_RTC_CheckStackVars2@12   1005db20 f   LIBCMTD:stack.obj
 0002:00006c30       @_RTC_CheckStackVars@8     1005dc30 f   LIBCMTD:stack.obj
 0002:00006ca0       __RTC_CheckEsp             1005dca0 f   LIBCMTD:stack.obj
 0002:00006cd0       __CRT_RTC_INIT             1005dcd0 f   LIBCMTD:init.obj
 0002:00006ce0       __CRT_RTC_INITW            1005dce0 f   LIBCMTD:init.obj
 0002:00006cf0       __RTC_InitBase             1005dcf0 f   LIBCMTD:init.obj
 0002:00006d30       __RTC_Shutdown             1005dd30 f   LIBCMTD:init.obj
 0002:00007350       __CRT_INIT@12              1005e350 f   LIBCMTD:dll_dllmain.obj
 0002:00007370       __DllMainCRTStartup@12     1005e370 f   LIBCMTD:dll_dllmain.obj
 0002:00007450       ?_RTC_AllocaFailure@@YAXPAXPAU_RTC_ALLOCA_NODE@@H@Z 1005e450 f   LIBCMTD:error.obj
 0002:00007570       ?_RTC_Failure@@YAXPAXH@Z   1005e570 f   LIBCMTD:error.obj
 0002:000075e0       ?_RTC_StackFailure@@YAXPAXPBD@Z 1005e5e0 f   LIBCMTD:error.obj
 0002:00007ac0       __RTC_UninitUse            1005eac0 f   LIBCMTD:error.obj
 0002:00007ba0       ___local_stdio_printf_options 1005eba0 f i LIBCMTD:error.obj
 0002:00007bb0       __vsprintf_s_l             1005ebb0 f i LIBCMTD:error.obj
 0002:00007bf0       _sprintf_s                 1005ebf0 f i LIBCMTD:error.obj
 0002:00007c20       ?_RTC_GetErrorFunc@@YAP6AHHPBDH00ZZPBX@Z 1005ec20 f   LIBCMTD:userapi.obj
 0002:00007c30       ?_RTC_GetErrorFuncW@@YAP6AHHPB_WH00ZZPBX@Z 1005ec30 f   LIBCMTD:userapi.obj
 0002:00007c40       __RTC_GetErrDesc           1005ec40 f   LIBCMTD:userapi.obj
 0002:00007c60       __RTC_NumErrors            1005ec60 f   LIBCMTD:userapi.obj
 0002:00007c70       __RTC_SetErrorFunc         1005ec70 f   LIBCMTD:userapi.obj
 0002:00007ca0       __RTC_SetErrorFuncW        1005eca0 f   LIBCMTD:userapi.obj
 0002:00007cd0       __RTC_SetErrorType         1005ecd0 f   LIBCMTD:userapi.obj
 0002:00007d90       ___security_init_cookie    1005ed90 f   LIBCMTD:gs_support.obj
 0002:00007e30       ?__scrt_initialize_type_info@@YAXXZ 1005ee30 f   LIBCMTD:tncleanup.obj
 0002:00007e50       ?__scrt_uninitialize_type_info@@YAXXZ 1005ee50 f   LIBCMTD:tncleanup.obj
 0002:00007e70       ___local_stdio_scanf_options 1005ee70 f i LIBCMTD:default_local_stdio_options.obj
 0002:00007e80       ___scrt_initialize_default_local_stdio_options 1005ee80 f   LIBCMTD:default_local_stdio_options.obj
 0002:00007ed0       ?configure_argv@__scrt_narrow_argv_policy@@SAHXZ 1005eed0 f i LIBCMTD:utility.obj
 0002:00007fa0       ?initialize_environment@__scrt_narrow_environment_policy@@SAHXZ 1005efa0 f i LIBCMTD:utility.obj
 0002:00008040       _NtCurrentTeb              1005f040 f i LIBCMTD:utility.obj
 0002:00008050       ___scrt_acquire_startup_lock 1005f050 f   LIBCMTD:utility.obj
 0002:000080b0       ___scrt_dllmain_after_initialize_c 1005f0b0 f   LIBCMTD:utility.obj
 0002:000080f0       ___scrt_dllmain_before_initialize_c 1005f0f0 f   LIBCMTD:utility.obj
 0002:00008120       ___scrt_dllmain_crt_thread_attach 1005f120 f   LIBCMTD:utility.obj
 0002:00008160       ___scrt_dllmain_crt_thread_detach 1005f160 f   LIBCMTD:utility.obj
 0002:00008180       ___scrt_dllmain_exception_filter 1005f180 f   LIBCMTD:utility.obj
 0002:000081e0       ___scrt_dllmain_uninitialize_c 1005f1e0 f   LIBCMTD:utility.obj
 0002:00008220       ___scrt_dllmain_uninitialize_critical 1005f220 f   LIBCMTD:utility.obj
 0002:00008240       ___scrt_initialize_crt     1005f240 f   LIBCMTD:utility.obj
 0002:000082a0       ___scrt_initialize_onexit_tables 1005f2a0 f   LIBCMTD:utility.obj
 0002:000083b0       ___scrt_is_nonwritable_in_current_image 1005f3b0 f   LIBCMTD:utility.obj
 0002:00008530       ___scrt_release_startup_lock 1005f530 f   LIBCMTD:utility.obj
 0002:00008560       ___scrt_uninitialize_crt   1005f560 f   LIBCMTD:utility.obj
 0002:000085b0       __onexit                   1005f5b0 f   LIBCMTD:utility.obj
 0002:00008630       _at_quick_exit             1005f630 f   LIBCMTD:utility.obj
 0002:00008680       _atexit                    1005f680 f   LIBCMTD:utility.obj
 0002:000086c0       ___scrt_get_dyn_tls_init_callback 1005f6c0 f   LIBCMTD:dyn_tls_init.obj
 0002:000086d0       ___scrt_fastfail           1005f6d0 f   LIBCMTD:utility_desktop.obj
 0002:00008860       ___scrt_get_show_window_mode 1005f860 f   LIBCMTD:utility_desktop.obj
 0002:000088b0       ___scrt_initialize_mta     1005f8b0 f   LIBCMTD:utility_desktop.obj
 0002:000088c0       ___scrt_initialize_winrt   1005f8c0 f   LIBCMTD:utility_desktop.obj
 0002:000088d0       ___scrt_is_managed_app     1005f8d0 f   LIBCMTD:utility_desktop.obj
 0002:00008980       ___scrt_set_unhandled_exception_filter 1005f980 f   LIBCMTD:utility_desktop.obj
 0002:000089a0       ___scrt_exe_initialize_mta 1005f9a0 f   LIBCMTD:utility_desktop.obj
 0002:000089a0       ___scrt_stub_for_initialize_mta 1005f9a0 f   LIBCMTD:utility_desktop.obj
 0002:000089b0       ___scrt_unhandled_exception_filter@4 1005f9b0 f   LIBCMTD:utility_desktop.obj
 0002:00008a50       __crt_debugger_hook        1005fa50 f   LIBCMTD:utility_desktop.obj
 0002:00008a70       __RTC_Initialize           1005fa70 f   LIBCMTD:initsect.obj
 0002:00008ab0       __RTC_Terminate            1005fab0 f   LIBCMTD:initsect.obj
 0002:00008af0       @_guard_check_icall_nop@4  1005faf0 f i LIBCMTD:guard_support.obj
 0002:00008b00       _ReadNoFence               1005fb00 f i LIBCMTD:guard_support.obj
 0002:00008b20       _ReadPointerNoFence        1005fb20 f i LIBCMTD:guard_support.obj
 0002:00008b40       __InlineInterlockedExchangePointer 1005fb40 f i LIBCMTD:guard_support.obj
 0002:00008b50       ___castguard_check_failure_debugbreak 1005fb50 f i LIBCMTD:guard_support.obj
 0002:00008b70       ___castguard_check_failure_fastfail 1005fb70 f i LIBCMTD:guard_support.obj
 0002:00008ba0       ___castguard_check_failure_nop 1005fba0 f i LIBCMTD:guard_support.obj
 0002:00008bb0       ___castguard_check_failure_os_handled 1005fbb0 f i LIBCMTD:guard_support.obj
 0002:00008c20       ___castguard_check_failure_user_handled 1005fc20 f i LIBCMTD:guard_support.obj
 0002:00008cf0       ___castguard_set_user_handler 1005fcf0 f i LIBCMTD:guard_support.obj
 0002:00008d20       ___castguard_slow_path_check_debugbreak 1005fd20 f i LIBCMTD:guard_support.obj
 0002:00008d60       ___castguard_slow_path_check_fastfail 1005fd60 f i LIBCMTD:guard_support.obj
 0002:00008db0       ___castguard_slow_path_check_nop 1005fdb0 f i LIBCMTD:guard_support.obj
 0002:00008dc0       ___castguard_slow_path_check_os_handled 1005fdc0 f i LIBCMTD:guard_support.obj
 0002:00008e10       ___castguard_slow_path_check_user_handled 1005fe10 f i LIBCMTD:guard_support.obj
 0002:00008eb0       __guard_icall_checks_enforced 1005feb0 f i LIBCMTD:guard_support.obj
 0002:00009440       ?_RTC_GetSrcLine@@YAHPAEPA_WKPAH1K@Z 10060440 f   LIBCMTD:pdblkup.obj
 0002:000098a0       @__security_check_cookie@4 100608a0 f   LIBCMTD:secchk.obj
 0002:000098c0       __except_handler4_noexcept 100608c0 f   LIBCMTD:chandler4_noexcept.obj
 0002:00009940       ___isa_available_init      10060940 f   LIBCMTD:cpu_disp.obj
 0002:00009f00       __get_startup_argv_mode    10060f00 f   LIBCMTD:argv_mode.obj
 0002:00009f10       ___scrt_is_ucrt_dll_in_use 10060f10 f   LIBCMTD:ucrt_detection.obj
 0002:00009f40       ___raise_securityfailure   10060f40 f   LIBCMTD:gs_report.obj
 0002:00009f80       ___report_gsfailure        10060f80 f   LIBCMTD:gs_report.obj
 0002:0000a0d0       ___report_rangecheckfailure 100610d0 f   LIBCMTD:gs_report.obj
 0002:0000a0e0       ___report_securityfailure  100610e0 f   LIBCMTD:gs_report.obj
 0002:0000a1f0       ___report_securityfailureEx 100611f0 f   LIBCMTD:gs_report.obj
 0002:0000a3e0       __except_handler4          100613e0 f   libvcruntimed:chandler4.obj
 0002:0000a680       ??$?RD@__crt_internal_free_policy@@QBEXQBD@Z 10061680 f i libvcruntimed:std_type_info.obj
 0002:0000a6b0       ??$?RX@__crt_internal_free_policy@@QBEXQBX@Z 100616b0 f i libvcruntimed:std_type_info.obj
 0002:0000a6e0       ??$__crt_interlocked_compare_exchange_pointer@$$CBDPAD$$T@@YAPBDPDSBDQAD$$T@Z 100616e0 f i libvcruntimed:std_type_info.obj
 0002:0000a700       ??$__crt_interlocked_read_pointer@$$CBD@@YAPBDPDSBD@Z 10061700 f i libvcruntimed:std_type_info.obj
 0002:0000a720       ??0?$__crt_unique_heap_ptr@DU__crt_internal_free_policy@@@@QAE@QAD@Z 10061720 f i libvcruntimed:std_type_info.obj
 0002:0000a740       ??0?$__crt_unique_heap_ptr@XU__crt_internal_free_policy@@@@QAE@QAX@Z 10061740 f i libvcruntimed:std_type_info.obj
 0002:0000a760       ??1?$__crt_unique_heap_ptr@DU__crt_internal_free_policy@@@@QAE@XZ 10061760 f i libvcruntimed:std_type_info.obj
 0002:0000a780       ??1?$__crt_unique_heap_ptr@XU__crt_internal_free_policy@@@@QAE@XZ 10061780 f i libvcruntimed:std_type_info.obj
 0002:0000a7a0       ??B?$__crt_unique_heap_ptr@DU__crt_internal_free_policy@@@@QBE_NXZ 100617a0 f i libvcruntimed:std_type_info.obj
 0002:0000a7c0       ??B?$__crt_unique_heap_ptr@XU__crt_internal_free_policy@@@@QBE_NXZ 100617c0 f i libvcruntimed:std_type_info.obj
 0002:0000a840       ?__crt_interlocked_read_32@@YAHPDH@Z 10061840 f i libvcruntimed:std_type_info.obj
 0002:0000a860       ?detach@?$__crt_unique_heap_ptr@XU__crt_internal_free_policy@@@@QAEPAXXZ 10061860 f i libvcruntimed:std_type_info.obj
 0002:0000a890       ?get@?$__crt_unique_heap_ptr@DU__crt_internal_free_policy@@@@QBEPADXZ 10061890 f i libvcruntimed:std_type_info.obj
 0002:0000a8b0       ?get@?$__crt_unique_heap_ptr@XU__crt_internal_free_policy@@@@QBEPAXXZ 100618b0 f i libvcruntimed:std_type_info.obj
 0002:0000a8d0       ?is_valid@?$__crt_unique_heap_ptr@DU__crt_internal_free_policy@@@@QBE_NXZ 100618d0 f i libvcruntimed:std_type_info.obj
 0002:0000a910       ?is_valid@?$__crt_unique_heap_ptr@XU__crt_internal_free_policy@@@@QBE_NXZ 10061910 f i libvcruntimed:std_type_info.obj
 0002:0000a950       ?release@?$__crt_unique_heap_ptr@DU__crt_internal_free_policy@@@@QAEXXZ 10061950 f i libvcruntimed:std_type_info.obj
 0002:0000a980       ?release@?$__crt_unique_heap_ptr@XU__crt_internal_free_policy@@@@QAEXXZ 10061980 f i libvcruntimed:std_type_info.obj
 0002:0000a9b0       ___std_type_info_compare   100619b0 f   libvcruntimed:std_type_info.obj
 0002:0000a9e0       ___std_type_info_destroy_list 100619e0 f   libvcruntimed:std_type_info.obj
 0002:0000aa30       ___std_type_info_hash      10061a30 f   libvcruntimed:std_type_info.obj
 0002:0000aaa0       ___std_type_info_name      10061aa0 f   libvcruntimed:std_type_info.obj
 0002:0000ace0       ___vcrt_initialize         10061ce0 f   libvcruntimed:initialization.obj
 0002:0000ad20       ___vcrt_thread_attach      10061d20 f   libvcruntimed:initialization.obj
 0002:0000ad40       ___vcrt_thread_detach      10061d40 f   libvcruntimed:initialization.obj
 0002:0000ad50       ___vcrt_uninitialize       10061d50 f   libvcruntimed:initialization.obj
 0002:0000ad70       ___vcrt_uninitialize_critical 10061d70 f   libvcruntimed:initialization.obj
 0002:0000ad90       ___DestructExceptionObject 10061d90 f   libvcruntimed:ehhelpers.obj
 0002:0000af00       ?_CallMemberFunction0@@YGXQAX0@Z 10061f00 f i libvcruntimed:ehhelpers.obj
 0002:0000afd0       ?raw_name@type_info@@QBEPBDXZ 10061fd0 f i libvcruntimed:ehhelpers.obj
 0002:0000aff0       __IsExceptionObjectToBeDestroyed 10061ff0 f   libvcruntimed:ehhelpers.obj
 0002:0000b040       __SetWinRTOutOfMemoryExceptionCallback 10062040 f   libvcruntimed:ehhelpers.obj
 0002:0000b050       ___AdjustPointer           10062050 f   libvcruntimed:ehhelpers.obj
 0002:0000b0b0       ___FrameUnwindFilter       100620b0 f   libvcruntimed:ehhelpers.obj
 0002:0000b160       ___GetPlatformExceptionInfo 10062160 f   libvcruntimed:ehhelpers.obj
 0002:0000b200       ___current_exception       10062200 f   libvcruntimed:ehhelpers.obj
 0002:0000b210       ___current_exception_context 10062210 f   libvcruntimed:ehhelpers.obj
 0002:0000b220       ___processing_throw        10062220 f   libvcruntimed:ehhelpers.obj
 0002:0000b230       ___std_terminate           10062230 f   libvcruntimed:ehhelpers.obj
 0002:0000b240       __is_exception_typeof      10062240 f   libvcruntimed:ehhelpers.obj
 0002:0000b360       _memset                    10062360 f   libvcruntimed:memset.obj
 0002:0000b510       ___vcrt_GetModuleFileNameW 10062510 f   libvcruntimed:winapi_thunks.obj
 0002:0000b530       ___vcrt_GetModuleHandleW   10062530 f   libvcruntimed:winapi_thunks.obj
 0002:0000b550       ___vcrt_LoadLibraryExW     10062550 f   libvcruntimed:winapi_thunks.obj
 0002:0000b570       __local_unwind4            10062570 f   libvcruntimed:exsup4.obj
 0002:0000b6a0       __seh_longjmp_unwind4@4    100626a0 f   libvcruntimed:exsup4.obj
 0002:0000b6e0       @_EH4_CallFilterFunc@8     100626e0 f   libvcruntimed:exsup4.obj
 0002:0000b700       @_EH4_TransferToHandler@8  10062700 f   libvcruntimed:exsup4.obj
 0002:0000b720       @_EH4_GlobalUnwind2@8      10062720 f   libvcruntimed:exsup4.obj
 0002:0000b740       @_EH4_LocalUnwind@16       10062740 f   libvcruntimed:exsup4.obj
 0002:0000b770       ___except_validate_context_record 10062770 f   libvcruntimed:jbcxrval.obj
 0002:0000b7d0       ___except_validate_jump_buffer 100627d0 f   libvcruntimed:jbcxrval.obj
 0002:0000b7f0       ___except_validate_jump_buffer_common 100627f0 f i libvcruntimed:jbcxrval.obj
 0002:0000b860       ??$?0$00@DName@@QAE@PBDU?$StringLifeSelector@$00@@@Z 10062860 f i libvcruntimed:undname.obj
 0002:0000b8d0       ??$?0$00@pcharNode@@QAE@PBDHU?$StringLifeSelector@$00@@@Z 100628d0 f i libvcruntimed:undname.obj
 0002:0000b910       ??$?0$01@DName@@QAE@PBDU?$StringLifeSelector@$01@@@Z 10062910 f i libvcruntimed:undname.obj
 0002:0000b980       ??$?0$01@pcharNode@@QAE@PBDHU?$StringLifeSelector@$01@@@Z 10062980 f i libvcruntimed:undname.obj
 0002:0000ba20       ??$?0$0A@@DName@@QAE@PBDU?$StringLifeSelector@$0A@@@@Z 10062a20 f i libvcruntimed:undname.obj
 0002:0000ba90       ??$?0$0A@@pcharNode@@QAE@PBDHU?$StringLifeSelector@$0A@@@@Z 10062a90 f i libvcruntimed:undname.obj
 0002:0000bb30       ??$?0_K$0A@@?$optional@_K@std@@QAE@$$QA_K@Z 10062b30 f i libvcruntimed:undname.obj
 0002:0000bb60       ??$?0_K@?$_Optional_construct_base@_K@std@@QAE@Uin_place_t@1@$$QA_K@Z 10062b60 f i libvcruntimed:undname.obj
 0002:0000bb90       ??$?0_K@?$_Optional_destruct_base@_K$00@std@@QAE@Uin_place_t@1@$$QA_K@Z 10062b90 f i libvcruntimed:undname.obj
 0002:0000bbc0       ??$append@VDNameNode@@@DName@@AAEXPBVDNameNode@@@Z 10062bc0 f i libvcruntimed:undname.obj
 0002:0000bc70       ??$append@VDNameStatusNode@@@DName@@AAEXPBVDNameStatusNode@@@Z 10062c70 f i libvcruntimed:undname.obj
 0002:0000bd20       ??$append@VcharNode@@@DName@@AAEXPBVcharNode@@@Z 10062d20 f i libvcruntimed:undname.obj
 0002:0000bdd0       ??$append@VpDNameNode@@@DName@@AAEXPBVpDNameNode@@@Z 10062dd0 f i libvcruntimed:undname.obj
 0002:0000be80       ??$append@VpcharNode@@@DName@@AAEXPBVpcharNode@@@Z 10062e80 f i libvcruntimed:undname.obj
 0002:0000bf30       ??$doPchar@$00@DName@@AAEXPBDH@Z 10062f30 f i libvcruntimed:undname.obj
 0002:0000c080       ??$doPchar@$01@DName@@AAEXPBDH@Z 10063080 f i libvcruntimed:undname.obj
 0002:0000c1d0       ??$doPchar@$0A@@DName@@AAEXPBDH@Z 100631d0 f i libvcruntimed:undname.obj
 0002:0000c4a0       ??0?$_Optional_construct_base@_K@std@@QAE@XZ 100634a0 f i libvcruntimed:undname.obj
 0002:0000c4c0       ??0?$_Optional_destruct_base@_K$00@std@@QAE@XZ 100634c0 f i libvcruntimed:undname.obj
 0002:0000c4f0       ??0?$optional@_K@std@@QAE@XZ 100634f0 f i libvcruntimed:undname.obj
 0002:0000c510       ??0Block@_HeapManager@@QAE@XZ 10063510 f i libvcruntimed:undname.obj
 0002:0000c530       ??0DName@@QAE@AAPBDD@Z     10063530 f   libvcruntimed:undname.obj
 0002:0000c700       ??0DName@@QAE@ABUStringLiteral@@@Z 10063700 f   libvcruntimed:undname.obj
 0002:0000c760       ??0DName@@QAE@ABV0@@Z      10063760 f i libvcruntimed:undname.obj
 0002:0000c790       ??0DName@@QAE@D@Z          10063790 f   libvcruntimed:undname.obj
 0002:0000c7d0       ??0DName@@QAE@PAV0@@Z      100637d0 f   libvcruntimed:undname.obj
 0002:0000c8b0       ??0DName@@QAE@W4DNameStatus@@@Z 100638b0 f   libvcruntimed:undname.obj
 0002:0000c970       ??0DName@@QAE@XZ           10063970 f i libvcruntimed:undname.obj
 0002:0000c9a0       ??0DName@@QAE@_J@Z         100639a0 f   libvcruntimed:undname.obj
 0002:0000cac0       ??0DName@@QAE@_K@Z         10063ac0 f   libvcruntimed:undname.obj
 0002:0000cb90       ??0DNameNode@@IAE@XZ       10063b90 f i libvcruntimed:undname.obj
 0002:0000cbb0       ??0Replicator@@QAE@XZ      10063bb0 f i libvcruntimed:undname.obj
 0002:0000cc30       ??0UnDecorator@@QAE@PBDP6APADJ@ZK@Z 10063c30 f i libvcruntimed:undname.obj
 0002:0000ccd0       ??0_Nontrivial_dummy_type@std@@QAE@XZ 10063cd0 f i libvcruntimed:undname.obj
 0002:0000ccf0       ??0charNode@@QAE@D@Z       10063cf0 f i libvcruntimed:undname.obj
 0002:0000cd30       ??0pDNameNode@@QAE@PAVDName@@@Z 10063d30 f   libvcruntimed:undname.obj
 0002:0000cdb0       ??0pairNode@@QAE@PBVDNameNode@@0@Z 10063db0 f i libvcruntimed:undname.obj
 0002:0000ce20       ??2@YAPAXIAAV_HeapManager@@H@Z 10063e20 f   libvcruntimed:undname.obj
 0002:0000ce70       ??4DName@@QAEAAV0@ABUStringLiteral@@@Z 10063e70 f   libvcruntimed:undname.obj
 0002:0000cec0       ??4DName@@QAEAAV0@ABV0@@Z  10063ec0 f   libvcruntimed:undname.obj
 0002:0000cef0       ??4DName@@QAEAAV0@D@Z      10063ef0 f i libvcruntimed:undname.obj
 0002:0000cf30       ??4DName@@QAEAAV0@PAV0@@Z  10063f30 f   libvcruntimed:undname.obj
 0002:0000cff0       ??4DName@@QAEAAV0@W4DNameStatus@@@Z 10063ff0 f   libvcruntimed:undname.obj
 0002:0000d090       ??AReplicator@@QBE?AVDName@@H@Z 10064090 f   libvcruntimed:undname.obj
 0002:0000d110       ??B?$optional@_K@std@@QBE_NXZ 10064110 f i libvcruntimed:undname.obj
 0002:0000d130       ??D?$_Optional_construct_base@_K@std@@QGAEAA_KXZ 10064130 f i libvcruntimed:undname.obj
 0002:0000d1b0       ??H@YA?AVDName@@ABUStringLiteral@@ABV0@@Z 100641b0 f i libvcruntimed:undname.obj
 0002:0000d1f0       ??H@YA?AVDName@@DABV0@@Z   100641f0 f i libvcruntimed:undname.obj
 0002:0000d230       ??H@YA?AVDName@@W4DNameStatus@@ABV0@@Z 10064230 f i libvcruntimed:undname.obj
 0002:0000d270       ??HDName@@QBE?AV0@ABUStringLiteral@@@Z 10064270 f   libvcruntimed:undname.obj
 0002:0000d2b0       ??HDName@@QBE?AV0@ABV0@@Z  100642b0 f   libvcruntimed:undname.obj
 0002:0000d2f0       ??HDName@@QBE?AV0@D@Z      100642f0 f   libvcruntimed:undname.obj
 0002:0000d330       ??HDName@@QBE?AV0@PAV0@@Z  10064330 f   libvcruntimed:undname.obj
 0002:0000d370       ??HDName@@QBE?AV0@W4DNameStatus@@@Z 10064370 f   libvcruntimed:undname.obj
 0002:0000d3b0       ??HStringLiteral@@QBE?AU0@H@Z 100643b0 f i libvcruntimed:undname.obj
 0002:0000d3f0       ??YDName@@QAEAAV0@ABUStringLiteral@@@Z 100643f0 f   libvcruntimed:undname.obj
 0002:0000d4b0       ??YDName@@QAEAAV0@ABV0@@Z  100644b0 f   libvcruntimed:undname.obj
 0002:0000d570       ??YDName@@QAEAAV0@D@Z      10064570 f   libvcruntimed:undname.obj
 0002:0000d620       ??YDName@@QAEAAV0@PAV0@@Z  10064620 f   libvcruntimed:undname.obj
 0002:0000d700       ??YDName@@QAEAAV0@W4DNameStatus@@@Z 10064700 f   libvcruntimed:undname.obj
 0002:0000d780       ??YReplicator@@QAEAAV0@ABVDName@@@Z 10064780 f   libvcruntimed:undname.obj
 0002:0000d830       ??_5DName@@QAEAAV0@ABV0@@Z 10064830 f   libvcruntimed:undname.obj
 0002:0000d8b0       ??__K_l@@YA?AUStringLiteral@@PBDI@Z 100648b0 f i libvcruntimed:undname.obj
 0002:0000d8e0       ?Constructor@_HeapManager@@QAEXP6APAXI@ZP6AXPAX@Z@Z 100648e0 f i libvcruntimed:undname.obj
 0002:0000d930       ?Destructor@_HeapManager@@QAEXXZ 10064930 f i libvcruntimed:undname.obj
 0002:0000d9d0       ?UScore@UnDecorator@@SA?AUStringLiteral@@W4Tokens@@@Z 100649d0 f   libvcruntimed:undname.obj
 0002:0000da30       ?composeDeclaration@UnDecorator@@CA?AVDName@@ABV2@@Z 10064a30 f i libvcruntimed:undname.obj
 0002:00010200       ?doAccessSpecifiers@UnDecorator@@SAHXZ 10067200 f i libvcruntimed:undname.obj
 0002:00010230       ?doAllocationLanguage@UnDecorator@@SAHXZ 10067230 f i libvcruntimed:undname.obj
 0002:00010260       ?doAllocationModel@UnDecorator@@SAHXZ 10067260 f i libvcruntimed:undname.obj
 0002:00010290       ?doEcsu@UnDecorator@@SAHXZ 10067290 f i libvcruntimed:undname.obj
 0002:000102c0       ?doEllipsis@UnDecorator@@SAHXZ 100672c0 f i libvcruntimed:undname.obj
 0002:000102f0       ?doFunctionReturns@UnDecorator@@SAHXZ 100672f0 f i libvcruntimed:undname.obj
 0002:00010320       ?doMSKeywords@UnDecorator@@SAHXZ 10067320 f i libvcruntimed:undname.obj
 0002:00010350       ?doMemberTypes@UnDecorator@@SAHXZ 10067350 f i libvcruntimed:undname.obj
 0002:00010380       ?doNameOnly@UnDecorator@@SAHXZ 10067380 f i libvcruntimed:undname.obj
 0002:000103a0       ?doNoIdentCharCheck@UnDecorator@@SAHXZ 100673a0 f i libvcruntimed:undname.obj
 0002:000103c0       ?doPchar@DName@@AAEXD@Z    100673c0 f   libvcruntimed:undname.obj
 0002:00010450       ?doPtr64@UnDecorator@@SAHXZ 10067450 f i libvcruntimed:undname.obj
 0002:00010480       ?doRestrictionSpec@UnDecorator@@SAHXZ 10067480 f i libvcruntimed:undname.obj
 0002:000104b0       ?doThisTypes@UnDecorator@@SAHXZ 100674b0 f i libvcruntimed:undname.obj
 0002:000104f0       ?doThrowTypes@UnDecorator@@SAHXZ 100674f0 f i libvcruntimed:undname.obj
 0002:00010520       ?doTypeOnly@UnDecorator@@SAHXZ 10067520 f i libvcruntimed:undname.obj
 0002:00010540       ?doUnderScore@UnDecorator@@SAHXZ 10067540 f i libvcruntimed:undname.obj
 0002:00010570       ?getAddressOf@UnDecorator@@CA?AVDName@@XZ 10067570 f   libvcruntimed:undname.obj
 0002:00010610       ?getArgumentList@UnDecorator@@CA?AVDName@@XZ 10067610 f   libvcruntimed:undname.obj
 0002:000107a0       ?getArgumentTypes@UnDecorator@@CA?AVDName@@XZ 100677a0 f   libvcruntimed:undname.obj
 0002:000109b0       ?getArrayAccess@UnDecorator@@CA?AVDName@@XZ 100679b0 f   libvcruntimed:undname.obj
 0002:00010a70       ?getArrayObject@UnDecorator@@CA?AVDName@@XZ 10067a70 f   libvcruntimed:undname.obj
 0002:00010bb0       ?getArrayType@UnDecorator@@CA?AVDName@@ABV2@@Z 10067bb0 f i libvcruntimed:undname.obj
 0002:00010f00       ?getBasedType@UnDecorator@@CA?AVDName@@XZ 10067f00 f   libvcruntimed:undname.obj
 0002:00011060       ?getBasicDataType@UnDecorator@@CA?AVDName@@ABV2@@Z 10068060 f   libvcruntimed:undname.obj
 0002:00011ca0       ?getCHPEName@UnDecorator@@QAEPADPADH@Z 10068ca0 f i libvcruntimed:undname.obj
 0002:00011e60       ?getCallIndex@UnDecorator@@CA?AVDName@@XZ 10068e60 f i libvcruntimed:undname.obj
 0002:00011e80       ?getCallingConvention@UnDecorator@@CA?AVDName@@XZ 10068e80 f   libvcruntimed:undname.obj
 0002:00012160       ?getDataIndirectType@UnDecorator@@CA?AVDName@@ABV2@W4IndirectionKind@@0H@Z 10069160 f   libvcruntimed:undname.obj
 0002:00012ce0       ?getDataIndirectType@UnDecorator@@CA?AVDName@@XZ 10069ce0 f i libvcruntimed:undname.obj
 0002:00012d30       ?getDataType@UnDecorator@@CA?AVDName@@PAV2@@Z 10069d30 f   libvcruntimed:undname.obj
 0002:00012e90       ?getDecoratedName@UnDecorator@@CA?AVDName@@XZ 10069e90 f   libvcruntimed:undname.obj
 0002:000133c0       ?getDimension@UnDecorator@@CA?AVDName@@_N@Z 1006a3c0 f   libvcruntimed:undname.obj
 0002:00013680       ?getDispatchTarget@UnDecorator@@CA?AVDName@@XZ 1006a680 f   libvcruntimed:undname.obj
 0002:00013720       ?getDisplacement@UnDecorator@@CA?AVDName@@XZ 1006a720 f i libvcruntimed:undname.obj
 0002:00013740       ?getECSUDataType@UnDecorator@@CA?AVDName@@XZ 1006a740 f   libvcruntimed:undname.obj
 0002:00013ad0       ?getECSUName@UnDecorator@@CA?AVDName@@XZ 1006aad0 f i libvcruntimed:undname.obj
 0002:00013af0       ?getEnumType@UnDecorator@@CA?AVDName@@XZ 1006aaf0 f i libvcruntimed:undname.obj
 0002:00013d10       ?getExtendedDataIndirectType@UnDecorator@@CA?AVDName@@AAW4IndirectionKind@@AA_NH@Z 1006ad10 f   libvcruntimed:undname.obj
 0002:00014010       ?getExternalDataType@UnDecorator@@CA?AVDName@@ABV2@@Z 1006b010 f i libvcruntimed:undname.obj
 0002:000140c0       ?getFloatingPoint@UnDecorator@@CA?AVDName@@H@Z 1006b0c0 f   libvcruntimed:undname.obj
 0002:00014250       ?getFunctionIndirectType@UnDecorator@@CA?AVDName@@ABV2@@Z 1006b250 f   libvcruntimed:undname.obj
 0002:00014850       ?getGuardNumber@UnDecorator@@CA?AVDName@@XZ 1006b850 f i libvcruntimed:undname.obj
 0002:00014870       ?getLastChar@DName@@QBEDXZ 1006b870 f i libvcruntimed:undname.obj
 0002:000148c0       ?getLastChar@DNameStatusNode@@UBEDXZ 1006b8c0 f i libvcruntimed:undname.obj
 0002:00014900       ?getLastChar@charNode@@UBEDXZ 1006b900 f i libvcruntimed:undname.obj
 0002:00014920       ?getLastChar@pDNameNode@@UBEDXZ 1006b920 f i libvcruntimed:undname.obj
 0002:00014960       ?getLastChar@pairNode@@UBEDXZ 1006b960 f i libvcruntimed:undname.obj
 0002:000149e0       ?getLastChar@pcharNode@@UBEDXZ 1006b9e0 f i libvcruntimed:undname.obj
 0002:00014a20       ?getLexicalFrame@UnDecorator@@CA?AVDName@@XZ 1006ba20 f i libvcruntimed:undname.obj
 0002:00014a70       ?getMemberAccess@UnDecorator@@CA?AVDName@@XZ 1006ba70 f   libvcruntimed:undname.obj
 0002:00014b20       ?getMemoryWithBuffer@_HeapManager@@QAEPAXI@Z 1006bb20 f   libvcruntimed:undname.obj
 0002:00014c40       ?getMemoryWithoutBuffer@_HeapManager@@QAEPAXI@Z 1006bc40 f   libvcruntimed:undname.obj
 0002:00014c90       ?getNoexcept@UnDecorator@@CA?AVDName@@XZ 1006bc90 f   libvcruntimed:undname.obj
 0002:00014d10       ?getNumberOfDimensions@UnDecorator@@CAHXZ 1006bd10 f   libvcruntimed:undname.obj
 0002:00014df0       ?getOperatorName@UnDecorator@@CA?AVDName@@_NPA_N@Z 1006bdf0 f i libvcruntimed:undname.obj
 0002:00015ab0       ?getPointerToMember@UnDecorator@@CA?AVDName@@XZ 1006cab0 f   libvcruntimed:undname.obj
 0002:00015bc0       ?getPointerType@UnDecorator@@CA?AVDName@@ABV2@0@Z 1006cbc0 f i libvcruntimed:undname.obj
 0002:00015bf0       ?getPointerTypeArray@UnDecorator@@CA?AVDName@@ABV2@0@Z 1006cbf0 f i libvcruntimed:undname.obj
 0002:00015c20       ?getPrimaryDataType@UnDecorator@@CA?AVDName@@ABV2@@Z 1006cc20 f   libvcruntimed:undname.obj
 0002:00016160       ?getPtrRefDataType@UnDecorator@@CA?AVDName@@ABV2@H@Z 1006d160 f   libvcruntimed:undname.obj
 0002:000164a0       ?getPtrRefType@UnDecorator@@CA?AVDName@@ABV2@0W4IndirectionKind@@@Z 1006d4a0 f   libvcruntimed:undname.obj
 0002:00016690       ?getReferenceType@UnDecorator@@CA?AVDName@@ABV2@0W4IndirectionKind@@@Z 1006d690 f i libvcruntimed:undname.obj
 0002:000166c0       ?getRestrictionSpec@UnDecorator@@CA?AVDName@@XZ 1006d6c0 f   libvcruntimed:undname.obj
 0002:000168c0       ?getReturnType@UnDecorator@@CA?AVDName@@PAV2@@Z 1006d8c0 f   libvcruntimed:undname.obj
 0002:00016910       ?getScope@UnDecorator@@CA?AVDName@@XZ 1006d910 f   libvcruntimed:undname.obj
 0002:00016fc0       ?getScopedName@UnDecorator@@CA?AVDName@@XZ 1006dfc0 f   libvcruntimed:undname.obj
 0002:00017160       ?getSignedDimension@UnDecorator@@CA?AVDName@@XZ 1006e160 f   libvcruntimed:undname.obj
 0002:000171f0       ?getStorageConvention@UnDecorator@@CA?AVDName@@XZ 1006e1f0 f i libvcruntimed:undname.obj
 0002:00017210       ?getString@DName@@QBEPADPAD0@Z 1006e210 f i libvcruntimed:undname.obj
 0002:00017280       ?getString@DName@@QBEPADPADH@Z 1006e280 f i libvcruntimed:undname.obj
 0002:00017330       ?getString@DNameStatusNode@@UBEPADPAD0@Z 1006e330 f i libvcruntimed:undname.obj
 0002:00017370       ?getString@charNode@@UBEPADPAD0@Z 1006e370 f i libvcruntimed:undname.obj
 0002:000173b0       ?getString@pDNameNode@@UBEPADPAD0@Z 1006e3b0 f i libvcruntimed:undname.obj
 0002:00017400       ?getString@pairNode@@UBEPADPAD0@Z 1006e400 f i libvcruntimed:undname.obj
 0002:000174b0       ?getString@pcharNode@@UBEPADPAD0@Z 1006e4b0 f i libvcruntimed:undname.obj
 0002:000174f0       ?getStringEncoding@UnDecorator@@CA?AVDName@@W4PrefixKind@@H@Z 1006e4f0 f   libvcruntimed:undname.obj
 0002:00017610       ?getStringHelper@@YAPADPADPBD1H@Z 1006e610 f i libvcruntimed:undname.obj
 0002:00017660       ?getStringObject@UnDecorator@@CA?AVDName@@XZ 1006e660 f   libvcruntimed:undname.obj
 0002:00017710       ?getSymbolName@UnDecorator@@CA?AVDName@@XZ 1006e710 f i libvcruntimed:undname.obj
 0002:000177b0       ?getTemplateArgumentList@UnDecorator@@CA?AVDName@@XZ 1006e7b0 f   libvcruntimed:undname.obj
 0002:00017b30       ?getTemplateName@UnDecorator@@CA?AVDName@@_N@Z 1006eb30 f   libvcruntimed:undname.obj
 0002:00017d50       ?getTemplateNonTypeArgument@UnDecorator@@CA?AVDName@@XZ 1006ed50 f   libvcruntimed:undname.obj
 0002:00018510       ?getTemplateTypeArgument@UnDecorator@@CA?AVDName@@XZ 1006f510 f   libvcruntimed:undname.obj
 0002:00018720       ?getThisType@UnDecorator@@CA?AVDName@@XZ 1006f720 f i libvcruntimed:undname.obj
 0002:00018770       ?getThrowTypes@UnDecorator@@CA?AVDName@@XZ 1006f770 f   libvcruntimed:undname.obj
 0002:000187a0       ?getTypeEncoding@UnDecorator@@CAHXZ 1006f7a0 f i libvcruntimed:undname.obj
 0002:000194a0       ?getUndecoratedName@UnDecorator@@QAEPADPADH@Z 100704a0 f i libvcruntimed:undname.obj
 0002:00019650       ?getUnionObject@UnDecorator@@CA?AVDName@@XZ 10070650 f   libvcruntimed:undname.obj
 0002:00019750       ?getVCallThunkType@UnDecorator@@CA?AVDName@@XZ 10070750 f i libvcruntimed:undname.obj
 0002:000197e0       ?getValue@UnDecorator@@CA?AV?$optional@_K@std@@XZ 100707e0 f   libvcruntimed:undname.obj
 0002:000198d0       ?getValueObject@UnDecorator@@CA?AVDName@@XZ 100708d0 f   libvcruntimed:undname.obj
 0002:00019b50       ?getVbTableType@UnDecorator@@CA?AVDName@@ABV2@@Z 10070b50 f i libvcruntimed:undname.obj
 0002:00019b70       ?getVdispMapType@UnDecorator@@CA?AVDName@@ABV2@@Z 10070b70 f i libvcruntimed:undname.obj
 0002:00019c00       ?getVfTableType@UnDecorator@@CA?AVDName@@ABV2@@Z 10070c00 f i libvcruntimed:undname.obj
 0002:00019e60       ?getZName@UnDecorator@@CA?AVDName@@_N0@Z 10070e60 f   libvcruntimed:undname.obj
 0002:0001a240       ?get_current_character_and_increment_buffer@UnDecorator@@CADXZ 10071240 f i libvcruntimed:undname.obj
 0002:0001a280       ?haveTemplateParameters@UnDecorator@@SAHXZ 10071280 f i libvcruntimed:undname.obj
 0002:0001a2a0       ?increment_buffer@UnDecorator@@CA_NI@Z 100712a0 f i libvcruntimed:undname.obj
 0002:0001a300       ?increment_buffer_no_check@UnDecorator@@CAXI@Z 10071300 f i libvcruntimed:undname.obj
 0002:0001a340       ?increment_buffer_no_check@UnDecorator@@CAXXZ 10071340 f i libvcruntimed:undname.obj
 0002:0001a360       ?isArray@DName@@QBEHXZ     10071360 f i libvcruntimed:undname.obj
 0002:0001a380       ?isComArray@DName@@QBEHXZ  10071380 f i libvcruntimed:undname.obj
 0002:0001a3a0       ?isEmpty@DName@@QBEHXZ     100713a0 f i libvcruntimed:undname.obj
 0002:0001a3e0       ?isFull@Replicator@@QBEHXZ 100713e0 f i libvcruntimed:undname.obj
 0002:0001a420       ?isNoTE@DName@@QBEHXZ      10071420 f i libvcruntimed:undname.obj
 0002:0001a440       ?isPinPtr@DName@@QBEHXZ    10071440 f i libvcruntimed:undname.obj
 0002:0001a460       ?isPtrRef@DName@@QBEHXZ    10071460 f i libvcruntimed:undname.obj
 0002:0001a480       ?isUDC@DName@@QBEHXZ       10071480 f i libvcruntimed:undname.obj
 0002:0001a4d0       ?isUDTThunk@DName@@QBEHXZ  100714d0 f i libvcruntimed:undname.obj
 0002:0001a520       ?isVCallThunk@DName@@QBEHXZ 10071520 f i libvcruntimed:undname.obj
 0002:0001a540       ?isValid@DName@@QBEHXZ     10071540 f i libvcruntimed:undname.obj
 0002:0001a580       ?length@DName@@QBEHXZ      10071580 f i libvcruntimed:undname.obj
 0002:0001a5d0       ?length@DNameStatusNode@@UBEHXZ 100715d0 f i libvcruntimed:undname.obj
 0002:0001a5f0       ?length@charNode@@UBEHXZ   100715f0 f i libvcruntimed:undname.obj
 0002:0001a610       ?length@pDNameNode@@UBEHXZ 10071610 f i libvcruntimed:undname.obj
 0002:0001a650       ?length@pairNode@@UBEHXZ   10071650 f i libvcruntimed:undname.obj
 0002:0001a6e0       ?length@pcharNode@@UBEHXZ  100716e0 f i libvcruntimed:undname.obj
 0002:0001a700       ?make@DNameStatusNode@@SAPBV1@W4DNameStatus@@@Z 10071700 f i libvcruntimed:undname.obj
 0002:0001a740       ?parseDecoratedName@UnDecorator@@CA?AVDName@@XZ 10071740 f   libvcruntimed:undname.obj
 0002:0001a930       ?raw_length@DNameStatusNode@@UBEHXZ 10071930 f i libvcruntimed:undname.obj
 0002:0001a950       ?raw_length@charNode@@UBEHXZ 10071950 f i libvcruntimed:undname.obj
 0002:0001a970       ?raw_length@pDNameNode@@UBEHXZ 10071970 f i libvcruntimed:undname.obj
 0002:0001a990       ?raw_length@pairNode@@UBEHXZ 10071990 f i libvcruntimed:undname.obj
 0002:0001a9b0       ?raw_length@pcharNode@@UBEHXZ 100719b0 f i libvcruntimed:undname.obj
 0002:0001a9d0       ?setIsArray@DName@@QAEXXZ  100719d0 f i libvcruntimed:undname.obj
 0002:0001aa00       ?setIsComArray@DName@@QAEXXZ 10071a00 f i libvcruntimed:undname.obj
 0002:0001aa30       ?setIsNoTE@DName@@QAEXXZ   10071a30 f i libvcruntimed:undname.obj
 0002:0001aa60       ?setIsPinPtr@DName@@QAEXXZ 10071a60 f i libvcruntimed:undname.obj
 0002:0001aa90       ?setIsUDC@DName@@QAEXXZ    10071a90 f i libvcruntimed:undname.obj
 0002:0001aad0       ?setIsVCallThunk@DName@@QAEXXZ 10071ad0 f i libvcruntimed:undname.obj
 0002:0001ab00       ?setPtrRef@DName@@QAEAAV1@XZ 10071b00 f i libvcruntimed:undname.obj
 0002:0001ab30       ?status@DName@@QBE?AW4DNameStatus@@XZ 10071b30 f i libvcruntimed:undname.obj
 0002:0001ac50       ___unDName                 10071c50 f   libvcruntimed:undname.obj
 0002:0001ac90       ___unDNameEx               10071c90 f   libvcruntimed:undname.obj
 0002:0001ad90       _snprintf                  10071d90 f i libvcruntimed:undname.obj
 0002:0001ade0       _unDNameGenerateCHPE       10071de0 f   libvcruntimed:undname.obj
 0002:0001ae60       _vsnprintf                 10071e60 f i libvcruntimed:undname.obj
 0002:0001aed0       ??$?RU__vcrt_ptd@@@__crt_internal_free_policy@@QBEXQBU__vcrt_ptd@@@Z 10071ed0 f i libvcruntimed:per_thread_data.obj
 0002:0001af00       ??0?$__crt_unique_heap_ptr@U__vcrt_ptd@@U__crt_internal_free_policy@@@@QAE@QAU__vcrt_ptd@@@Z 10071f00 f i libvcruntimed:per_thread_data.obj
 0002:0001af40       ??1?$__crt_unique_heap_ptr@U__vcrt_ptd@@U__crt_internal_free_policy@@@@QAE@XZ 10071f40 f i libvcruntimed:per_thread_data.obj
 0002:0001af80       ??B?$__crt_unique_heap_ptr@U__vcrt_ptd@@U__crt_internal_free_policy@@@@QBE_NXZ 10071f80 f i libvcruntimed:per_thread_data.obj
 0002:0001afa0       ?detach@?$__crt_unique_heap_ptr@U__vcrt_ptd@@U__crt_internal_free_policy@@@@QAEPAU__vcrt_ptd@@XZ 10071fa0 f i libvcruntimed:per_thread_data.obj
 0002:0001afd0       ?get@?$__crt_unique_heap_ptr@U__vcrt_ptd@@U__crt_internal_free_policy@@@@QBEPAU__vcrt_ptd@@XZ 10071fd0 f i libvcruntimed:per_thread_data.obj
 0002:0001aff0       ?is_valid@?$__crt_unique_heap_ptr@U__vcrt_ptd@@U__crt_internal_free_policy@@@@QBE_NXZ 10071ff0 f i libvcruntimed:per_thread_data.obj
 0002:0001b030       ?release@?$__crt_unique_heap_ptr@U__vcrt_ptd@@U__crt_internal_free_policy@@@@QAEXXZ 10072030 f i libvcruntimed:per_thread_data.obj
 0002:0001b090       ___vcrt_freefls@4          10072090 f   libvcruntimed:per_thread_data.obj
 0002:0001b0c0       ___vcrt_freeptd_for_this_thread 100720c0 f   libvcruntimed:per_thread_data.obj
 0002:0001b110       ___vcrt_getptd             10072110 f   libvcruntimed:per_thread_data.obj
 0002:0001b140       ___vcrt_getptd_noexit      10072140 f   libvcruntimed:per_thread_data.obj
 0002:0001b2f0       ___vcrt_getptd_noinit      100722f0 f   libvcruntimed:per_thread_data.obj
 0002:0001b360       ___vcrt_initialize_ptd     10072360 f   libvcruntimed:per_thread_data.obj
 0002:0001b3c0       ___vcrt_uninitialize_ptd   100723c0 f   libvcruntimed:per_thread_data.obj
 0002:0001b400       ___vcrt_initialize_locks   10072400 f   libvcruntimed:locks.obj
 0002:0001b470       ___vcrt_lock               10072470 f   libvcruntimed:locks.obj
 0002:0001b490       ___vcrt_uninitialize_locks 10072490 f   libvcruntimed:locks.obj
 0002:0001b4f0       ___vcrt_unlock             100724f0 f   libvcruntimed:locks.obj
 0002:0001b510       __global_unwind2           10072510 f   libvcruntimed:exsup.obj
 0002:0001b5a0       __local_unwind2            100725a0 f   libvcruntimed:exsup.obj
 0002:0001b660       __abnormal_termination     10072660 f   libvcruntimed:exsup.obj
 0002:0001b6a0       __NLG_Notify1              100726a0 f   libvcruntimed:exsup.obj
 0002:0001b6b0       __NLG_Notify               100726b0 f   libvcruntimed:exsup.obj
 0002:0001b6c7       __NLG_Dispatch             100726c7     libvcruntimed:exsup.obj
 0002:0001b6c7       __NLG_Dispatch2            100726c7     libvcruntimed:exsup.obj
 0002:0001b6e0       __NLG_Call                 100726e0 f   libvcruntimed:exsup.obj
 0002:0001b6e2       __NLG_Return2              100726e2     libvcruntimed:exsup.obj
 0002:0001b6f0       ??$__crt_interlocked_exchange_pointer@$$A6AXXZP6AXXZ@@YAP6AXXZPDS6AXXZQ6AXXZ@Z 100726f0 f i libvcruntimed:purevirt.obj
 0002:0001b700       ??$__crt_interlocked_read_pointer@$$A6AXXZ@@YAP6AXXZPDS6AXXZ@Z 10072700 f i libvcruntimed:purevirt.obj
 0002:0001b720       __get_purecall_handler     10072720 f   libvcruntimed:purevirt.obj
 0002:0001b740       __purecall                 10072740 f   libvcruntimed:purevirt.obj
 0002:0001b780       __set_purecall_handler     10072780 f   libvcruntimed:purevirt.obj
 0002:0001b7a0       _memcpy                    100727a0 f   libvcruntimed:memcpy.obj
 0002:0001be80       ??$?0AAViterator@TryBlockMap@__FrameHandler3@@AAV012@$0A@@?$pair@Viterator@TryBlockMap@__FrameHandler3@@V123@@std@@QAE@AAViterator@TryBlockMap@__FrameHandler3@@0@Z 10072e80 f i libvcruntimed:trnsctrl.obj
 0002:0001bec0       ??0iterator@TryBlockMap@__FrameHandler3@@QAE@AAV12@I@Z 10072ec0 f i libvcruntimed:trnsctrl.obj
 0002:0001bef0       ?GetRangeOfTrysToCheck@__FrameHandler3@@SA?AU?$pair@Viterator@TryBlockMap@__FrameHandler3@@V123@@std@@AAVTryBlockMap@1@HPAXPBU_s_FuncInfo@@H@Z 10072ef0 f   libvcruntimed:trnsctrl.obj
 0002:0001c010       ?_CallCatchBlock2@@YAPAXPAUEHRegistrationNode@@PBU_s_FuncInfo@@PAXHK@Z 10073010 f   libvcruntimed:trnsctrl.obj
 0002:0001c0a0       ?_CallSETranslator@@YAHPAUEHExceptionRecord@@PAUEHRegistrationNode@@PAX2PBU_s_FuncInfo@@H1@Z 100730a0 f   libvcruntimed:trnsctrl.obj
 0002:0001c1f0       ?_JumpToContinuation@@YGXPAXPAUEHRegistrationNode@@@Z 100731f0 f   libvcruntimed:trnsctrl.obj
 0002:0001c230       ?_UnwindNestedFrames@@YGXPAUEHRegistrationNode@@PAUEHExceptionRecord@@@Z 10073230 f   libvcruntimed:trnsctrl.obj
 0002:0001c2a0       __CatchGuardHandler        100732a0 f   libvcruntimed:trnsctrl.obj
 0002:0001c300       __CreateFrameInfo          10073300 f   libvcruntimed:trnsctrl.obj
 0002:0001c340       __FindAndUnlinkFrame       10073340 f   libvcruntimed:trnsctrl.obj
 0002:0001c3d0       __TranslatorGuardHandler   100733d0 f   libvcruntimed:trnsctrl.obj
 0002:0001c4b0       ___CxxFrameHandler         100734b0 f   libvcruntimed:trnsctrl.obj
 0002:0001c500       ___CxxFrameHandler2        10073500 f   libvcruntimed:trnsctrl.obj
 0002:0001c550       ___CxxFrameHandler3        10073550 f   libvcruntimed:trnsctrl.obj
 0002:0001c5a0       ___CxxLongjmpUnwind@4      100735a0 f   libvcruntimed:trnsctrl.obj
 0002:0001c5f0       ??$__crt_interlocked_exchange_pointer@UHINSTANCE__@@PAU1@@@YAPAUHINSTANCE__@@PDSAU0@QAU0@@Z 100735f0 f i libvcruntimed:winapi_downlevel.obj
 0002:0001c600       ??$__crt_interlocked_exchange_pointer@UHINSTANCE__@@PAX@@YAPAUHINSTANCE__@@PDSAU0@QAX@Z 10073600 f i libvcruntimed:winapi_downlevel.obj
 0002:0001c610       ??$__crt_interlocked_exchange_pointer@XPAX@@YAPAXPDSAXQAX@Z 10073610 f i libvcruntimed:winapi_downlevel.obj
 0002:0001c620       ??$__crt_interlocked_read_pointer@UHINSTANCE__@@@@YAPAUHINSTANCE__@@PDSAU0@@Z 10073620 f i libvcruntimed:winapi_downlevel.obj
 0002:0001c640       ??$__crt_interlocked_read_pointer@X@@YAPAXPDSAX@Z 10073640 f i libvcruntimed:winapi_downlevel.obj
 0002:0001cb20       ___vcrt_FlsAlloc           10073b20 f   libvcruntimed:winapi_downlevel.obj
 0002:0001cb70       ___vcrt_FlsFree            10073b70 f   libvcruntimed:winapi_downlevel.obj
 0002:0001cbc0       ___vcrt_FlsGetValue        10073bc0 f   libvcruntimed:winapi_downlevel.obj
 0002:0001cc10       ___vcrt_FlsSetValue        10073c10 f   libvcruntimed:winapi_downlevel.obj
 0002:0001cc70       ___vcrt_InitializeCriticalSectionEx 10073c70 f   libvcruntimed:winapi_downlevel.obj
 0002:0001db10       ??$TypeMatchHelper@V__FrameHandler3@@@@YAHPBU_s_HandlerType@@PBU_s_CatchableType@@PBU_s_ThrowInfo@@@Z 10074b10 f i libvcruntimed:frame.obj
 0002:0001dc20       ??$__InternalCxxFrameHandler@V__FrameHandler3@@@@YA?AW4_EXCEPTION_DISPOSITION@@PAUEHExceptionRecord@@PAUEHRegistrationNode@@PAU_CONTEXT@@PAXPBU_s_FuncInfo@@H1E@Z 10074c20 f i libvcruntimed:frame.obj
 0002:0001de50       ??$__InternalCxxFrameHandlerWrapper@V__FrameHandler3@@@@YA?AW4_EXCEPTION_DISPOSITION@@PAUEHExceptionRecord@@PAUEHRegistrationNode@@PAU_CONTEXT@@PAXPBU_s_FuncInfo@@H1E@Z 10074e50 f i libvcruntimed:frame.obj
 0002:0001de90       ??0HandlerMap@__FrameHandler3@@QAE@PBU_s_TryBlockMapEntry@@II@Z 10074e90 f i libvcruntimed:frame.obj
 0002:0001dec0       ??0TryBlockMap@__FrameHandler3@@QAE@PBU_s_FuncInfo@@I@Z 10074ec0 f i libvcruntimed:frame.obj
 0002:0001def0       ??0bad_exception@std@@QAE@ABV01@@Z 10074ef0 f i libvcruntimed:frame.obj
 0002:0001df20       ??0bad_exception@std@@QAE@XZ 10074f20 f i libvcruntimed:frame.obj
 0002:0001df50       ??0exception@std@@QAE@ABV01@@Z 10074f50 f i libvcruntimed:frame.obj
 0002:0001dfa0       ??0exception@std@@QAE@QBDH@Z 10074fa0 f i libvcruntimed:frame.obj
 0002:0001dfe0       ??0iterator@HandlerMap@__FrameHandler3@@QAE@AAV12@I@Z 10074fe0 f i libvcruntimed:frame.obj
 0002:0001e010       ??1bad_exception@std@@UAE@XZ 10075010 f i libvcruntimed:frame.obj
 0002:0001e030       ??1exception@std@@UAE@XZ   10075030 f i libvcruntimed:frame.obj
 0002:0001e060       ??8iterator@HandlerMap@__FrameHandler3@@QBE_NABV012@@Z 10075060 f i libvcruntimed:frame.obj
 0002:0001e0a0       ??8type_info@@QBE_NABV0@@Z 100750a0 f i libvcruntimed:frame.obj
 0002:0001e120       ??9iterator@HandlerMap@__FrameHandler3@@QBE_NABV012@@Z 10075120 f i libvcruntimed:frame.obj
 0002:0001e170       ??Diterator@HandlerMap@__FrameHandler3@@QAE?BU_s_HandlerType@@XZ 10075170 f i libvcruntimed:frame.obj
 0002:0001e1c0       ??Diterator@TryBlockMap@__FrameHandler3@@QAE?BU_s_TryBlockMapEntry@@XZ 100751c0 f i libvcruntimed:frame.obj
 0002:0001e220       ??Eiterator@HandlerMap@__FrameHandler3@@QAEAAV012@XZ 10075220 f i libvcruntimed:frame.obj
 0002:0001e250       ??Eiterator@TryBlockMap@__FrameHandler3@@QAEAAV012@XZ 10075250 f i libvcruntimed:frame.obj
 0002:0001e280       ??Miterator@TryBlockMap@__FrameHandler3@@QBE_NABV012@@Z 10075280 f i libvcruntimed:frame.obj
 0002:0001e2c0       ??_Ebad_exception@std@@UAEPAXI@Z 100752c0 f i libvcruntimed:frame.obj
 0002:0001e2c0       ??_Gbad_exception@std@@UAEPAXI@Z 100752c0 f i libvcruntimed:frame.obj
 0002:0001e300       ??_Eexception@std@@UAEPAXI@Z 10075300 f i libvcruntimed:frame.obj
 0002:0001e300       ??_Gexception@std@@UAEPAXI@Z 10075300 f i libvcruntimed:frame.obj
 0002:0001e340       ?BuildCatchObject@__FrameHandler3@@SAXPAUEHExceptionRecord@@PAXPBU_s_HandlerType@@PBU_s_CatchableType@@@Z 10075340 f   libvcruntimed:frame.obj
 0002:0001e370       ?BuildCatchObjectHelper@__FrameHandler3@@SAHPAUEHExceptionRecord@@PAXPBU_s_HandlerType@@PBU_s_CatchableType@@@Z 10075370 f   libvcruntimed:frame.obj
 0002:0001e800       ?FrameUnwindToEmptyState@__FrameHandler3@@SAXPAUEHRegistrationNode@@PAXPBU_s_FuncInfo@@@Z 10075800 f   libvcruntimed:frame.obj
 0002:0001e830       ?FrameUnwindToState@__FrameHandler3@@SAXPAUEHRegistrationNode@@PAXPBU_s_FuncInfo@@H@Z 10075830 f   libvcruntimed:frame.obj
 0002:0001ea10       ?GetMaxState@__FrameHandler3@@SAHPAXPBU_s_FuncInfo@@@Z 10075a10 f i libvcruntimed:frame.obj
 0002:0001eb70       ?TypeMatch@__FrameHandler3@@SAHPBU_s_HandlerType@@PBU_s_CatchableType@@PBU_s_ThrowInfo@@@Z 10075b70 f   libvcruntimed:frame.obj
 0002:0001eb90       ?_CallMemberFunction1@@YGXQAX00@Z 10075b90 f i libvcruntimed:frame.obj
 0002:0001ebc0       ?_CallMemberFunction2@@YGXQAX00H@Z 10075bc0 f i libvcruntimed:frame.obj
 0002:0001ebf0       ?begin@HandlerMap@__FrameHandler3@@QAE?AViterator@12@XZ 10075bf0 f i libvcruntimed:frame.obj
 0002:0001ec20       ?end@HandlerMap@__FrameHandler3@@QAE?AViterator@12@XZ 10075c20 f i libvcruntimed:frame.obj
 0002:0001ec50       ?getESTypes@__FrameHandler3@@SAPBU_s_ESTypeList@@PBU_s_FuncInfo@@@Z 10075c50 f i libvcruntimed:frame.obj
 0002:0001ec60       ?getLastEntry@HandlerMap@__FrameHandler3@@QAEPBU_s_HandlerType@@XZ 10075c60 f i libvcruntimed:frame.obj
 0002:0001ec90       ?getMagicNum@__FrameHandler3@@SAIPBU_s_FuncInfo@@@Z 10075c90 f i libvcruntimed:frame.obj
 0002:0001ecb0       ?getNumTryBlocks@TryBlockMap@__FrameHandler3@@QAEIXZ 10075cb0 f i libvcruntimed:frame.obj
 0002:0001ecd0       ?isEHs@__FrameHandler3@@SA_NPBU_s_FuncInfo@@@Z 10075cd0 f i libvcruntimed:frame.obj
 0002:0001ed00       ?isNoExcept@__FrameHandler3@@SA_NPBU_s_FuncInfo@@@Z 10075d00 f i libvcruntimed:frame.obj
 0002:0001ed30       ?what@exception@std@@UBEPBDXZ 10075d30 f i libvcruntimed:frame.obj
 0002:0001ed70       ___BuildCatchObject        10075d70 f   libvcruntimed:frame.obj
 0002:0001eda0       ___BuildCatchObjectHelper  10075da0 f   libvcruntimed:frame.obj
 0002:0001edd0       ___TypeMatch               10075dd0 f   libvcruntimed:frame.obj
 0002:0001edf0       ___vcrt_EncodePointer      10075df0 f i libvcruntimed:frame.obj
 0002:0001ee10       __CallSettingFrame@12      10075e10 f   libvcruntimed:lowhelpr.obj
 0002:0001ee37       __NLG_Return               10075e37     libvcruntimed:lowhelpr.obj
 0002:0001eea0       __get_unexpected           10075ea0 f   libvcruntimed:unexpected.obj
 0002:0001eec0       _set_unexpected            10075ec0 f   libvcruntimed:unexpected.obj
 0002:0001ef00       _unexpected                10075f00 f   libvcruntimed:unexpected.obj
 0002:0001ef50       _memmove                   10075f50 f   libvcruntimed:memmove.obj
 0002:0001f630       ?GetCurrentState@__FrameHandler3@@SAHPAUEHRegistrationNode@@PAXPBU_s_FuncInfo@@@Z 10076630 f   libvcruntimed:ehstate.obj
 0002:0001f670       ?SetState@__FrameHandler3@@SAXPAUEHRegistrationNode@@PBU_s_FuncInfo@@H@Z 10076670 f   libvcruntimed:ehstate.obj
 0002:0001f690       ??$?RD@__crt_public_free_policy@@QBEXQBD@Z 10076690 f i libvcruntimed:std_exception.obj
 0002:0001f6b0       ??0?$__crt_unique_heap_ptr@DU__crt_public_free_policy@@@@QAE@QAD@Z 100766b0 f i libvcruntimed:std_exception.obj
 0002:0001f6d0       ??1?$__crt_unique_heap_ptr@DU__crt_public_free_policy@@@@QAE@XZ 100766d0 f i libvcruntimed:std_exception.obj
 0002:0001f6f0       ??B?$__crt_unique_heap_ptr@DU__crt_public_free_policy@@@@QBE_NXZ 100766f0 f i libvcruntimed:std_exception.obj
 0002:0001f710       ?detach@?$__crt_unique_heap_ptr@DU__crt_public_free_policy@@@@QAEPADXZ 10076710 f i libvcruntimed:std_exception.obj
 0002:0001f740       ?get@?$__crt_unique_heap_ptr@DU__crt_public_free_policy@@@@QBEPADXZ 10076740 f i libvcruntimed:std_exception.obj
 0002:0001f760       ?is_valid@?$__crt_unique_heap_ptr@DU__crt_public_free_policy@@@@QBE_NXZ 10076760 f i libvcruntimed:std_exception.obj
 0002:0001f7a0       ?release@?$__crt_unique_heap_ptr@DU__crt_public_free_policy@@@@QAEXXZ 100767a0 f i libvcruntimed:std_exception.obj
 0002:0001f7d0       ___std_exception_copy      100767d0 f   libvcruntimed:std_exception.obj
 0002:0001f900       ___std_exception_destroy   10076900 f   libvcruntimed:std_exception.obj
 0002:0001f940       __CxxThrowException@8      10076940 f   libvcruntimed:throw.obj
 0002:000209f0       ??1?$__crt_simd_cleanup_guard@$00@@QAE@XZ 100779f0 f i libucrtd:strnlen.obj
 0002:00020a10       ??1?$__crt_simd_cleanup_guard@$0A@@@QAE@XZ 10077a10 f i libucrtd:strnlen.obj
 0002:00020a20       ?compare_equals@?$__crt_simd_traits@$00E@@SA?AT__m256i@@T2@0@Z 10077a20 f i libucrtd:strnlen.obj
 0002:00020a70       ?compare_equals@?$__crt_simd_traits@$00G@@SA?AT__m256i@@T2@0@Z 10077a70 f i libucrtd:strnlen.obj
 0002:00020ac0       ?compare_equals@?$__crt_simd_traits@$0A@E@@SA?AT__m128i@@T2@0@Z 10077ac0 f i libucrtd:strnlen.obj
 0002:00020b10       ?compare_equals@?$__crt_simd_traits@$0A@G@@SA?AT__m128i@@T2@0@Z 10077b10 f i libucrtd:strnlen.obj
 0002:00020b60       ?compute_byte_mask@?$__crt_simd_pack_traits@$00@@SAHT__m256i@@@Z 10077b60 f i libucrtd:strnlen.obj
 0002:00020ba0       ?compute_byte_mask@?$__crt_simd_pack_traits@$0A@@@SAHT__m128i@@@Z 10077ba0 f i libucrtd:strnlen.obj
 0002:00020be0       ?get_zero_pack@?$__crt_simd_pack_traits@$00@@SA?AT__m256i@@XZ 10077be0 f i libucrtd:strnlen.obj
 0002:00020c20       ?get_zero_pack@?$__crt_simd_pack_traits@$0A@@@SA?AT__m128i@@XZ 10077c20 f i libucrtd:strnlen.obj
 0002:00020c60       _strnlen                   10077c60 f   libucrtd:strnlen.obj
 0002:00020c80       _wcslen                    10077c80 f   libucrtd:strnlen.obj
 0002:00020ca0       _wcsnlen                   10077ca0 f   libucrtd:strnlen.obj
 0002:00020cc0       ??$?RU?$__crt_report_hook_node@D@@@__crt_internal_free_policy@@QBEXQBU?$__crt_report_hook_node@D@@@Z 10077cc0 f i libucrtd:dbgrpt.obj
 0002:00020cf0       ??$?RU?$__crt_report_hook_node@_W@@@__crt_internal_free_policy@@QBEXQBU?$__crt_report_hook_node@_W@@@Z 10077cf0 f i libucrtd:dbgrpt.obj
 0002:00021f90       ??$get_module_file_name@AAPAUHINSTANCE__@@AAY0BAF@DK@?$__crt_char_traits@D@@SAKAAPAUHINSTANCE__@@AAY0BAF@D$$QAK@Z 10078f90 f i libucrtd:dbgrpt.obj
 0002:00021fc0       ??$get_module_file_name@AAPAUHINSTANCE__@@AAY0BAF@_WK@?$__crt_char_traits@_W@@SAKAAPAUHINSTANCE__@@AAY0BAF@_W$$QAK@Z 10078fc0 f i libucrtd:dbgrpt.obj
 0002:00021ff0       ??$tcscpy_s@AAY0BAF@DIPBD@?$__crt_char_traits@D@@SAHAAY0BAF@D$$QAI$$QAPBD@Z 10078ff0 f i libucrtd:dbgrpt.obj
 0002:00022020       ??$tcscpy_s@AAY0BAF@_WIPB_W@?$__crt_char_traits@_W@@SAHAAY0BAF@_W$$QAI$$QAPB_W@Z 10079020 f i libucrtd:dbgrpt.obj
 0002:00022050       ??$tcslen@AAY0BAF@D@?$__crt_char_traits@D@@SAIAAY0BAF@D@Z 10079050 f i libucrtd:dbgrpt.obj
 0002:00022070       ??$tcslen@AAY0BAF@_W@?$__crt_char_traits@_W@@SAIAAY0BAF@_W@Z 10079070 f i libucrtd:dbgrpt.obj
 0002:00022090       ??$tcslen@ABQBD@?$__crt_char_traits@D@@SAIABQBD@Z 10079090 f i libucrtd:dbgrpt.obj
 0002:000220b0       ??$tcslen@ABQB_W@?$__crt_char_traits@_W@@SAIABQB_W@Z 100790b0 f i libucrtd:dbgrpt.obj
 0002:000221f0       ??0?$__crt_unique_heap_ptr@U?$__crt_report_hook_node@D@@U__crt_internal_free_policy@@@@QAE@QAU?$__crt_report_hook_node@D@@@Z 100791f0 f i libucrtd:dbgrpt.obj
 0002:00022210       ??0?$__crt_unique_heap_ptr@U?$__crt_report_hook_node@_W@@U__crt_internal_free_policy@@@@QAE@QAU?$__crt_report_hook_node@_W@@@Z 10079210 f i libucrtd:dbgrpt.obj
 0002:00022230       ??1?$__crt_unique_heap_ptr@U?$__crt_report_hook_node@D@@U__crt_internal_free_policy@@@@QAE@XZ 10079230 f i libucrtd:dbgrpt.obj
 0002:00022250       ??1?$__crt_unique_heap_ptr@U?$__crt_report_hook_node@_W@@U__crt_internal_free_policy@@@@QAE@XZ 10079250 f i libucrtd:dbgrpt.obj
 0002:00022270       ??B?$__crt_unique_heap_ptr@U?$__crt_report_hook_node@D@@U__crt_internal_free_policy@@@@QBE_NXZ 10079270 f i libucrtd:dbgrpt.obj
 0002:00022290       ??B?$__crt_unique_heap_ptr@U?$__crt_report_hook_node@_W@@U__crt_internal_free_policy@@@@QBE_NXZ 10079290 f i libucrtd:dbgrpt.obj
 0002:00022950       ?detach@?$__crt_unique_heap_ptr@U?$__crt_report_hook_node@D@@U__crt_internal_free_policy@@@@QAEPAU?$__crt_report_hook_node@D@@XZ 10079950 f i libucrtd:dbgrpt.obj
 0002:00022980       ?detach@?$__crt_unique_heap_ptr@U?$__crt_report_hook_node@_W@@U__crt_internal_free_policy@@@@QAEPAU?$__crt_report_hook_node@_W@@XZ 10079980 f i libucrtd:dbgrpt.obj
 0002:000229b0       ?get@?$__crt_unique_heap_ptr@U?$__crt_report_hook_node@D@@U__crt_internal_free_policy@@@@QBEPAU?$__crt_report_hook_node@D@@XZ 100799b0 f i libucrtd:dbgrpt.obj
 0002:000229d0       ?get@?$__crt_unique_heap_ptr@U?$__crt_report_hook_node@_W@@U__crt_internal_free_policy@@@@QBEPAU?$__crt_report_hook_node@_W@@XZ 100799d0 f i libucrtd:dbgrpt.obj
 0002:00022a50       ?is_valid@?$__crt_unique_heap_ptr@U?$__crt_report_hook_node@D@@U__crt_internal_free_policy@@@@QBE_NXZ 10079a50 f i libucrtd:dbgrpt.obj
 0002:00022a90       ?is_valid@?$__crt_unique_heap_ptr@U?$__crt_report_hook_node@_W@@U__crt_internal_free_policy@@@@QBE_NXZ 10079a90 f i libucrtd:dbgrpt.obj
 0002:00022ad0       ?release@?$__crt_unique_heap_ptr@U?$__crt_report_hook_node@D@@U__crt_internal_free_policy@@@@QAEXXZ 10079ad0 f i libucrtd:dbgrpt.obj
 0002:00022b00       ?release@?$__crt_unique_heap_ptr@U?$__crt_report_hook_node@_W@@U__crt_internal_free_policy@@@@QAEXXZ 10079b00 f i libucrtd:dbgrpt.obj
 0002:00022b30       __CrtDbgReport             10079b30 f   libucrtd:dbgrpt.obj
 0002:00022b90       __CrtDbgReportW            10079b90 f   libucrtd:dbgrpt.obj
 0002:00022bf0       __CrtSetReportHook2        10079bf0 f   libucrtd:dbgrpt.obj
 0002:00022c10       __CrtSetReportHookW2       10079c10 f   libucrtd:dbgrpt.obj
 0002:00022c30       ___acrt_MessageWindowA     10079c30 f   libucrtd:dbgrpt.obj
 0002:00022c60       ___acrt_MessageWindowW     10079c60 f   libucrtd:dbgrpt.obj
 0002:00022c90       __invoke_watson_if_error   10079c90 f i libucrtd:dbgrpt.obj
 0002:00022cd0       __invoke_watson_if_oneof   10079cd0 f i libucrtd:dbgrpt.obj
 0002:00022d20       __snwprintf_s              10079d20 f i libucrtd:dbgrpt.obj
 0002:00022d70       __vsnwprintf_s_l           10079d70 f i libucrtd:dbgrpt.obj
 0002:00022de0       __initterm                 10079de0 f   libucrtd:initterm.obj
 0002:00022e40       __initterm_e               10079e40 f   libucrtd:initterm.obj
 0002:00023280       _strcpy_s                  1007a280 f   libucrtd:strcpy_s.obj
 0002:000237d0       _strcat_s                  1007a7d0 f   libucrtd:strcat_s.obj
 0002:00023800       ??$?0ABV?$stream_output_adapter@D@__crt_stdio_output@@AB_KABQBDAAV__crt_cached_ptd_host@@ABQAD@?$format_validation_base@DV?$stream_output_adapter@D@__crt_stdio_output@@@__crt_stdio_output@@IAE@ABV?$stream_output_adapter@D@1@AB_KABQBDAAV__crt_cached_ptd_host@@ABQAD@Z 1007a800 f i libucrtd:output.obj
 0002:00023840       ??$?0ABV?$stream_output_adapter@D@__crt_stdio_output@@AB_KABQBDAAV__crt_cached_ptd_host@@ABQAD@?$positional_parameter_base@DV?$stream_output_adapter@D@__crt_stdio_output@@@__crt_stdio_output@@IAE@ABV?$stream_output_adapter@D@1@AB_KABQBDAAV__crt_cached_ptd_host@@ABQAD@Z 1007a840 f i libucrtd:output.obj
 0002:000238d0       ??$?0ABV?$stream_output_adapter@D@__crt_stdio_output@@AB_KABQBDAAV__crt_cached_ptd_host@@ABQAD@?$standard_base@DV?$stream_output_adapter@D@__crt_stdio_output@@@__crt_stdio_output@@IAE@ABV?$stream_output_adapter@D@1@AB_KABQBDAAV__crt_cached_ptd_host@@ABQAD@Z 1007a8d0 f i libucrtd:output.obj
 0002:00023930       ??$?0ABV?$stream_output_adapter@_W@__crt_stdio_output@@AB_KABQB_WAAV__crt_cached_ptd_host@@ABQAD@?$format_validation_base@_WV?$stream_output_adapter@_W@__crt_stdio_output@@@__crt_stdio_output@@IAE@ABV?$stream_output_adapter@_W@1@AB_KABQB_WAAV__crt_cached_ptd_host@@ABQAD@Z 1007a930 f i libucrtd:output.obj
 0002:00023970       ??$?0ABV?$stream_output_adapter@_W@__crt_stdio_output@@AB_KABQB_WAAV__crt_cached_ptd_host@@ABQAD@?$positional_parameter_base@_WV?$stream_output_adapter@_W@__crt_stdio_output@@@__crt_stdio_output@@IAE@ABV?$stream_output_adapter@_W@1@AB_KABQB_WAAV__crt_cached_ptd_host@@ABQAD@Z 1007a970 f i libucrtd:output.obj
 0002:00023a00       ??$?0ABV?$stream_output_adapter@_W@__crt_stdio_output@@AB_KABQB_WAAV__crt_cached_ptd_host@@ABQAD@?$standard_base@_WV?$stream_output_adapter@_W@__crt_stdio_output@@@__crt_stdio_output@@IAE@ABV?$stream_output_adapter@_W@1@AB_KABQB_WAAV__crt_cached_ptd_host@@ABQAD@Z 1007aa00 f i libucrtd:output.obj
 0002:00023a60       ??$?0ABV?$string_output_adapter@D@__crt_stdio_output@@AB_KABQBDAAV__crt_cached_ptd_host@@ABQAD@?$format_validation_base@DV?$string_output_adapter@D@__crt_stdio_output@@@__crt_stdio_output@@IAE@ABV?$string_output_adapter@D@1@AB_KABQBDAAV__crt_cached_ptd_host@@ABQAD@Z 1007aa60 f i libucrtd:output.obj
 0002:00023aa0       ??$?0ABV?$string_output_adapter@D@__crt_stdio_output@@AB_KABQBDAAV__crt_cached_ptd_host@@ABQAD@?$positional_parameter_base@DV?$string_output_adapter@D@__crt_stdio_output@@@__crt_stdio_output@@IAE@ABV?$string_output_adapter@D@1@AB_KABQBDAAV__crt_cached_ptd_host@@ABQAD@Z 1007aaa0 f i libucrtd:output.obj
 0002:00023b30       ??$?0ABV?$string_output_adapter@D@__crt_stdio_output@@AB_KABQBDAAV__crt_cached_ptd_host@@ABQAD@?$standard_base@DV?$string_output_adapter@D@__crt_stdio_output@@@__crt_stdio_output@@IAE@ABV?$string_output_adapter@D@1@AB_KABQBDAAV__crt_cached_ptd_host@@ABQAD@Z 1007ab30 f i libucrtd:output.obj
 0002:00023b90       ??$?0ABV?$string_output_adapter@_W@__crt_stdio_output@@AB_KABQB_WAAV__crt_cached_ptd_host@@ABQAD@?$format_validation_base@_WV?$string_output_adapter@_W@__crt_stdio_output@@@__crt_stdio_output@@IAE@ABV?$string_output_adapter@_W@1@AB_KABQB_WAAV__crt_cached_ptd_host@@ABQAD@Z 1007ab90 f i libucrtd:output.obj
 0002:00023bd0       ??$?0ABV?$string_output_adapter@_W@__crt_stdio_output@@AB_KABQB_WAAV__crt_cached_ptd_host@@ABQAD@?$positional_parameter_base@_WV?$string_output_adapter@_W@__crt_stdio_output@@@__crt_stdio_output@@IAE@ABV?$string_output_adapter@_W@1@AB_KABQB_WAAV__crt_cached_ptd_host@@ABQAD@Z 1007abd0 f i libucrtd:output.obj
 0002:00023c60       ??$?0ABV?$string_output_adapter@_W@__crt_stdio_output@@AB_KABQB_WAAV__crt_cached_ptd_host@@ABQAD@?$standard_base@_WV?$string_output_adapter@_W@__crt_stdio_output@@@__crt_stdio_output@@IAE@ABV?$string_output_adapter@_W@1@AB_KABQB_WAAV__crt_cached_ptd_host@@ABQAD@Z 1007ac60 f i libucrtd:output.obj
 0002:00024440       ??$__crt_interlocked_read@J@@YAJPDJ@Z 1007b440 f i libucrtd:output.obj
 0002:00024460       ??$_tcstol_internal@DPAPAD$0A@@@YAJAAV__crt_cached_ptd_host@@QBDQAPADH@Z 1007b460 f i libucrtd:output.obj
 0002:000244b0       ??$_tcstol_internal@_WPAPA_W$0A@@@YAJAAV__crt_cached_ptd_host@@QB_WQAPA_WH@Z 1007b4b0 f i libucrtd:output.obj
 0002:00028050       ??$count@D@formatting_buffer@__crt_stdio_output@@QBEIXZ 1007f050 f i libucrtd:output.obj
 0002:000280a0       ??$count@_W@formatting_buffer@__crt_stdio_output@@QBEIXZ 1007f0a0 f i libucrtd:output.obj
 0002:000280f0       ??$data@D@formatting_buffer@__crt_stdio_output@@QAEPADXZ 1007f0f0 f i libucrtd:output.obj
 0002:00028140       ??$data@_W@formatting_buffer@__crt_stdio_output@@QAEPA_WXZ 1007f140 f i libucrtd:output.obj
 0002:00028190       ??$ensure_buffer_is_big_enough@D@formatting_buffer@__crt_stdio_output@@QAE_NIAAV__crt_cached_ptd_host@@@Z 1007f190 f i libucrtd:output.obj
 0002:000282c0       ??$ensure_buffer_is_big_enough@_W@formatting_buffer@__crt_stdio_output@@QAE_NIAAV__crt_cached_ptd_host@@@Z 1007f2c0 f i libucrtd:output.obj
 0002:000283f0       ??$extract_argument_from_va_list@C_J@?$positional_parameter_base@DV?$stream_output_adapter@D@__crt_stdio_output@@@__crt_stdio_output@@IAE_NAA_J@Z 1007f3f0 f i libucrtd:output.obj
 0002:000285b0       ??$extract_argument_from_va_list@C_J@?$positional_parameter_base@DV?$string_output_adapter@D@__crt_stdio_output@@@__crt_stdio_output@@IAE_NAA_J@Z 1007f5b0 f i libucrtd:output.obj
 0002:00028770       ??$extract_argument_from_va_list@C_J@?$positional_parameter_base@_WV?$stream_output_adapter@_W@__crt_stdio_output@@@__crt_stdio_output@@IAE_NAA_J@Z 1007f770 f i libucrtd:output.obj
 0002:00028930       ??$extract_argument_from_va_list@C_J@?$positional_parameter_base@_WV?$string_output_adapter@_W@__crt_stdio_output@@@__crt_stdio_output@@IAE_NAA_J@Z 1007f930 f i libucrtd:output.obj
 0002:00028af0       ??$extract_argument_from_va_list@C_J@?$standard_base@DV?$stream_output_adapter@D@__crt_stdio_output@@@__crt_stdio_output@@IAE_NAA_J@Z 1007faf0 f i libucrtd:output.obj
 0002:00028b30       ??$extract_argument_from_va_list@C_J@?$standard_base@DV?$string_output_adapter@D@__crt_stdio_output@@@__crt_stdio_output@@IAE_NAA_J@Z 1007fb30 f i libucrtd:output.obj
 0002:00028b70       ??$extract_argument_from_va_list@C_J@?$standard_base@_WV?$stream_output_adapter@_W@__crt_stdio_output@@@__crt_stdio_output@@IAE_NAA_J@Z 1007fb70 f i libucrtd:output.obj
 0002:00028bb0       ??$extract_argument_from_va_list@C_J@?$standard_base@_WV?$string_output_adapter@_W@__crt_stdio_output@@@__crt_stdio_output@@IAE_NAA_J@Z 1007fbb0 f i libucrtd:output.obj
 0002:00028bf0       ??$extract_argument_from_va_list@E_J@?$positional_parameter_base@DV?$stream_output_adapter@D@__crt_stdio_output@@@__crt_stdio_output@@IAE_NAA_J@Z 1007fbf0 f i libucrtd:output.obj
 0002:00028db0       ??$extract_argument_from_va_list@E_J@?$positional_parameter_base@DV?$string_output_adapter@D@__crt_stdio_output@@@__crt_stdio_output@@IAE_NAA_J@Z 1007fdb0 f i libucrtd:output.obj
 0002:00028f70       ??$extract_argument_from_va_list@E_J@?$positional_parameter_base@_WV?$stream_output_adapter@_W@__crt_stdio_output@@@__crt_stdio_output@@IAE_NAA_J@Z 1007ff70 f i libucrtd:output.obj
 0002:00029130       ??$extract_argument_from_va_list@E_J@?$positional_parameter_base@_WV?$string_output_adapter@_W@__crt_stdio_output@@@__crt_stdio_output@@IAE_NAA_J@Z 10080130 f i libucrtd:output.obj
 0002:000292f0       ??$extract_argument_from_va_list@E_J@?$standard_base@DV?$stream_output_adapter@D@__crt_stdio_output@@@__crt_stdio_output@@IAE_NAA_J@Z 100802f0 f i libucrtd:output.obj
 0002:00029330       ??$extract_argument_from_va_list@E_J@?$standard_base@DV?$string_output_adapter@D@__crt_stdio_output@@@__crt_stdio_output@@IAE_NAA_J@Z 10080330 f i libucrtd:output.obj
 0002:00029370       ??$extract_argument_from_va_list@E_J@?$standard_base@_WV?$stream_output_adapter@_W@__crt_stdio_output@@@__crt_stdio_output@@IAE_NAA_J@Z 10080370 f i libucrtd:output.obj
 0002:000293b0       ??$extract_argument_from_va_list@E_J@?$standard_base@_WV?$string_output_adapter@_W@__crt_stdio_output@@@__crt_stdio_output@@IAE_NAA_J@Z 100803b0 f i libucrtd:output.obj
 0002:000293f0       ??$extract_argument_from_va_list@F_J@?$positional_parameter_base@DV?$stream_output_adapter@D@__crt_stdio_output@@@__crt_stdio_output@@IAE_NAA_J@Z 100803f0 f i libucrtd:output.obj
 0002:000295b0       ??$extract_argument_from_va_list@F_J@?$positional_parameter_base@DV?$string_output_adapter@D@__crt_stdio_output@@@__crt_stdio_output@@IAE_NAA_J@Z 100805b0 f i libucrtd:output.obj
 0002:00029770       ??$extract_argument_from_va_list@F_J@?$positional_parameter_base@_WV?$stream_output_adapter@_W@__crt_stdio_output@@@__crt_stdio_output@@IAE_NAA_J@Z 10080770 f i libucrtd:output.obj
 0002:00029930       ??$extract_argument_from_va_list@F_J@?$positional_parameter_base@_WV?$string_output_adapter@_W@__crt_stdio_output@@@__crt_stdio_output@@IAE_NAA_J@Z 10080930 f i libucrtd:output.obj
 0002:00029af0       ??$extract_argument_from_va_list@F_J@?$standard_base@DV?$stream_output_adapter@D@__crt_stdio_output@@@__crt_stdio_output@@IAE_NAA_J@Z 10080af0 f i libucrtd:output.obj
 0002:00029b30       ??$extract_argument_from_va_list@F_J@?$standard_base@DV?$string_output_adapter@D@__crt_stdio_output@@@__crt_stdio_output@@IAE_NAA_J@Z 10080b30 f i libucrtd:output.obj
 0002:00029b70       ??$extract_argument_from_va_list@F_J@?$standard_base@_WV?$stream_output_adapter@_W@__crt_stdio_output@@@__crt_stdio_output@@IAE_NAA_J@Z 10080b70 f i libucrtd:output.obj
 0002:00029bb0       ??$extract_argument_from_va_list@F_J@?$standard_base@_WV?$string_output_adapter@_W@__crt_stdio_output@@@__crt_stdio_output@@IAE_NAA_J@Z 10080bb0 f i libucrtd:output.obj
 0002:00029bf0       ??$extract_argument_from_va_list@GD@?$positional_parameter_base@DV?$stream_output_adapter@D@__crt_stdio_output@@@__crt_stdio_output@@IAE_NAAD@Z 10080bf0 f i libucrtd:output.obj
 0002:00029da0       ??$extract_argument_from_va_list@GD@?$positional_parameter_base@DV?$string_output_adapter@D@__crt_stdio_output@@@__crt_stdio_output@@IAE_NAAD@Z 10080da0 f i libucrtd:output.obj
 0002:00029f50       ??$extract_argument_from_va_list@GD@?$standard_base@DV?$stream_output_adapter@D@__crt_stdio_output@@@__crt_stdio_output@@IAE_NAAD@Z 10080f50 f i libucrtd:output.obj
 0002:00029f80       ??$extract_argument_from_va_list@GD@?$standard_base@DV?$string_output_adapter@D@__crt_stdio_output@@@__crt_stdio_output@@IAE_NAAD@Z 10080f80 f i libucrtd:output.obj
 0002:00029fb0       ??$extract_argument_from_va_list@G_J@?$positional_parameter_base@DV?$stream_output_adapter@D@__crt_stdio_output@@@__crt_stdio_output@@IAE_NAA_J@Z 10080fb0 f i libucrtd:output.obj
 0002:0002a170       ??$extract_argument_from_va_list@G_J@?$positional_parameter_base@DV?$string_output_adapter@D@__crt_stdio_output@@@__crt_stdio_output@@IAE_NAA_J@Z 10081170 f i libucrtd:output.obj
 0002:0002a330       ??$extract_argument_from_va_list@G_J@?$positional_parameter_base@_WV?$stream_output_adapter@_W@__crt_stdio_output@@@__crt_stdio_output@@IAE_NAA_J@Z 10081330 f i libucrtd:output.obj
 0002:0002a4f0       ??$extract_argument_from_va_list@G_J@?$positional_parameter_base@_WV?$string_output_adapter@_W@__crt_stdio_output@@@__crt_stdio_output@@IAE_NAA_J@Z 100814f0 f i libucrtd:output.obj
 0002:0002a6b0       ??$extract_argument_from_va_list@G_J@?$standard_base@DV?$stream_output_adapter@D@__crt_stdio_output@@@__crt_stdio_output@@IAE_NAA_J@Z 100816b0 f i libucrtd:output.obj
 0002:0002a6f0       ??$extract_argument_from_va_list@G_J@?$standard_base@DV?$string_output_adapter@D@__crt_stdio_output@@@__crt_stdio_output@@IAE_NAA_J@Z 100816f0 f i libucrtd:output.obj
 0002:0002a730       ??$extract_argument_from_va_list@G_J@?$standard_base@_WV?$stream_output_adapter@_W@__crt_stdio_output@@@__crt_stdio_output@@IAE_NAA_J@Z 10081730 f i libucrtd:output.obj
 0002:0002a770       ??$extract_argument_from_va_list@G_J@?$standard_base@_WV?$string_output_adapter@_W@__crt_stdio_output@@@__crt_stdio_output@@IAE_NAA_J@Z 10081770 f i libucrtd:output.obj
 0002:0002a7b0       ??$extract_argument_from_va_list@H_J@?$positional_parameter_base@DV?$stream_output_adapter@D@__crt_stdio_output@@@__crt_stdio_output@@IAE_NAA_J@Z 100817b0 f i libucrtd:output.obj
 0002:0002a970       ??$extract_argument_from_va_list@H_J@?$positional_parameter_base@DV?$string_output_adapter@D@__crt_stdio_output@@@__crt_stdio_output@@IAE_NAA_J@Z 10081970 f i libucrtd:output.obj
 0002:0002ab30       ??$extract_argument_from_va_list@H_J@?$positional_parameter_base@_WV?$stream_output_adapter@_W@__crt_stdio_output@@@__crt_stdio_output@@IAE_NAA_J@Z 10081b30 f i libucrtd:output.obj
 0002:0002acf0       ??$extract_argument_from_va_list@H_J@?$positional_parameter_base@_WV?$string_output_adapter@_W@__crt_stdio_output@@@__crt_stdio_output@@IAE_NAA_J@Z 10081cf0 f i libucrtd:output.obj
 0002:0002aeb0       ??$extract_argument_from_va_list@H_J@?$standard_base@DV?$stream_output_adapter@D@__crt_stdio_output@@@__crt_stdio_output@@IAE_NAA_J@Z 10081eb0 f i libucrtd:output.obj
 0002:0002aef0       ??$extract_argument_from_va_list@H_J@?$standard_base@DV?$string_output_adapter@D@__crt_stdio_output@@@__crt_stdio_output@@IAE_NAA_J@Z 10081ef0 f i libucrtd:output.obj
 0002:0002af30       ??$extract_argument_from_va_list@H_J@?$standard_base@_WV?$stream_output_adapter@_W@__crt_stdio_output@@@__crt_stdio_output@@IAE_NAA_J@Z 10081f30 f i libucrtd:output.obj
 0002:0002af70       ??$extract_argument_from_va_list@H_J@?$standard_base@_WV?$string_output_adapter@_W@__crt_stdio_output@@@__crt_stdio_output@@IAE_NAA_J@Z 10081f70 f i libucrtd:output.obj
 0002:0002afb0       ??$extract_argument_from_va_list@I_J@?$positional_parameter_base@DV?$stream_output_adapter@D@__crt_stdio_output@@@__crt_stdio_output@@IAE_NAA_J@Z 10081fb0 f i libucrtd:output.obj
 0002:0002b170       ??$extract_argument_from_va_list@I_J@?$positional_parameter_base@DV?$string_output_adapter@D@__crt_stdio_output@@@__crt_stdio_output@@IAE_NAA_J@Z 10082170 f i libucrtd:output.obj
 0002:0002b330       ??$extract_argument_from_va_list@I_J@?$positional_parameter_base@_WV?$stream_output_adapter@_W@__crt_stdio_output@@@__crt_stdio_output@@IAE_NAA_J@Z 10082330 f i libucrtd:output.obj
 0002:0002b4f0       ??$extract_argument_from_va_list@I_J@?$positional_parameter_base@_WV?$string_output_adapter@_W@__crt_stdio_output@@@__crt_stdio_output@@IAE_NAA_J@Z 100824f0 f i libucrtd:output.obj
 0002:0002b6b0       ??$extract_argument_from_va_list@I_J@?$standard_base@DV?$stream_output_adapter@D@__crt_stdio_output@@@__crt_stdio_output@@IAE_NAA_J@Z 100826b0 f i libucrtd:output.obj
 0002:0002b6f0       ??$extract_argument_from_va_list@I_J@?$standard_base@DV?$string_output_adapter@D@__crt_stdio_output@@@__crt_stdio_output@@IAE_NAA_J@Z 100826f0 f i libucrtd:output.obj
 0002:0002b730       ??$extract_argument_from_va_list@I_J@?$standard_base@_WV?$stream_output_adapter@_W@__crt_stdio_output@@@__crt_stdio_output@@IAE_NAA_J@Z 10082730 f i libucrtd:output.obj
 0002:0002b770       ??$extract_argument_from_va_list@I_J@?$standard_base@_WV?$string_output_adapter@_W@__crt_stdio_output@@@__crt_stdio_output@@IAE_NAA_J@Z 10082770 f i libucrtd:output.obj
 0002:0002b7b0       ??$extract_argument_from_va_list@PADPAD@?$positional_parameter_base@DV?$stream_output_adapter@D@__crt_stdio_output@@@__crt_stdio_output@@IAE_NAAPAD@Z 100827b0 f i libucrtd:output.obj
 0002:0002b960       ??$extract_argument_from_va_list@PADPAD@?$positional_parameter_base@DV?$string_output_adapter@D@__crt_stdio_output@@@__crt_stdio_output@@IAE_NAAPAD@Z 10082960 f i libucrtd:output.obj
 0002:0002bb10       ??$extract_argument_from_va_list@PADPAD@?$positional_parameter_base@_WV?$stream_output_adapter@_W@__crt_stdio_output@@@__crt_stdio_output@@IAE_NAAPAD@Z 10082b10 f i libucrtd:output.obj
 0002:0002bcd0       ??$extract_argument_from_va_list@PADPAD@?$positional_parameter_base@_WV?$string_output_adapter@_W@__crt_stdio_output@@@__crt_stdio_output@@IAE_NAAPAD@Z 10082cd0 f i libucrtd:output.obj
 0002:0002be90       ??$extract_argument_from_va_list@PADPAD@?$standard_base@DV?$stream_output_adapter@D@__crt_stdio_output@@@__crt_stdio_output@@IAE_NAAPAD@Z 10082e90 f i libucrtd:output.obj
 0002:0002bec0       ??$extract_argument_from_va_list@PADPAD@?$standard_base@DV?$string_output_adapter@D@__crt_stdio_output@@@__crt_stdio_output@@IAE_NAAPAD@Z 10082ec0 f i libucrtd:output.obj
 0002:0002bef0       ??$extract_argument_from_va_list@PADPAD@?$standard_base@_WV?$stream_output_adapter@_W@__crt_stdio_output@@@__crt_stdio_output@@IAE_NAAPAD@Z 10082ef0 f i libucrtd:output.obj
 0002:0002bf20       ??$extract_argument_from_va_list@PADPAD@?$standard_base@_WV?$string_output_adapter@_W@__crt_stdio_output@@@__crt_stdio_output@@IAE_NAAPAD@Z 10082f20 f i libucrtd:output.obj
 0002:0002bf50       ??$extract_argument_from_va_list@PAUansi_string@?1??type_case_Z@?$output_processor@DV?$stream_output_adapter@D@__crt_stdio_output@@V?$format_validation_base@DV?$stream_output_adapter@D@__crt_stdio_output@@@2@@__crt_stdio_output@@AAE_NXZ@PAU1?1??234@AAE_NXZ@@?$standard_base@DV?$stream_output_adapter@D@__crt_stdio_output@@@__crt_stdio_output@@IAE_NAAPAUansi_string@?1??type_case_Z@?$output_processor@DV?$stream_output_adapter@D@__crt_stdio_output@@V?$format_validation_base@DV?$stream_output_adapter@D@__crt_stdio_output@@@2@@1@AAE_NXZ@@Z 10082f50 f i libucrtd:output.obj
 0002:0002bf80       ??$extract_argument_from_va_list@PAUansi_string@?1??type_case_Z@?$output_processor@DV?$stream_output_adapter@D@__crt_stdio_output@@V?$positional_parameter_base@DV?$stream_output_adapter@D@__crt_stdio_output@@@2@@__crt_stdio_output@@AAE_NXZ@PAU1?1??234@AAE_NXZ@@?$positional_parameter_base@DV?$stream_output_adapter@D@__crt_stdio_output@@@__crt_stdio_output@@IAE_NAAPAUansi_string@?1??type_case_Z@?$output_processor@DV?$stream_output_adapter@D@__crt_stdio_output@@V?$positional_parameter_base@DV?$stream_output_adapter@D@__crt_stdio_output@@@2@@1@AAE_NXZ@@Z 10082f80 f i libucrtd:output.obj
 0002:0002c130       ??$extract_argument_from_va_list@PAUansi_string@?1??type_case_Z@?$output_processor@DV?$stream_output_adapter@D@__crt_stdio_output@@V?$positional_parameter_base@DV?$stream_output_adapter@D@__crt_stdio_output@@@2@@__crt_stdio_output@@AAE_NXZ@PAU1?1??234@AAE_NXZ@@?$standard_base@DV?$stream_output_adapter@D@__crt_stdio_output@@@__crt_stdio_output@@IAE_NAAPAUansi_string@?1??type_case_Z@?$output_processor@DV?$stream_output_adapter@D@__crt_stdio_output@@V?$positional_parameter_base@DV?$stream_output_adapter@D@__crt_stdio_output@@@2@@1@AAE_NXZ@@Z 10083130 f i libucrtd:output.obj
 0002:0002c160       ??$extract_argument_from_va_list@PAUansi_string@?1??type_case_Z@?$output_processor@DV?$stream_output_adapter@D@__crt_stdio_output@@V?$standard_base@DV?$stream_output_adapter@D@__crt_stdio_output@@@2@@__crt_stdio_output@@AAE_NXZ@PAU1?1??234@AAE_NXZ@@?$standard_base@DV?$stream_output_adapter@D@__crt_stdio_output@@@__crt_stdio_output@@IAE_NAAPAUansi_string@?1??type_case_Z@?$output_processor@DV?$stream_output_adapter@D@__crt_stdio_output@@V?$standard_base@DV?$stream_output_adapter@D@__crt_stdio_output@@@2@@1@AAE_NXZ@@Z 10083160 f i libucrtd:output.obj
 0002:0002c190       ??$extract_argument_from_va_list@PAUansi_string@?1??type_case_Z@?$output_processor@DV?$string_output_adapter@D@__crt_stdio_output@@V?$format_validation_base@DV?$string_output_adapter@D@__crt_stdio_output@@@2@@__crt_stdio_output@@AAE_NXZ@PAU1?1??234@AAE_NXZ@@?$standard_base@DV?$string_output_adapter@D@__crt_stdio_output@@@__crt_stdio_output@@IAE_NAAPAUansi_string@?1??type_case_Z@?$output_processor@DV?$string_output_adapter@D@__crt_stdio_output@@V?$format_validation_base@DV?$string_output_adapter@D@__crt_stdio_output@@@2@@1@AAE_NXZ@@Z 10083190 f i libucrtd:output.obj
 0002:0002c1c0       ??$extract_argument_from_va_list@PAUansi_string@?1??type_case_Z@?$output_processor@DV?$string_output_adapter@D@__crt_stdio_output@@V?$positional_parameter_base@DV?$string_output_adapter@D@__crt_stdio_output@@@2@@__crt_stdio_output@@AAE_NXZ@PAU1?1??234@AAE_NXZ@@?$positional_parameter_base@DV?$string_output_adapter@D@__crt_stdio_output@@@__crt_stdio_output@@IAE_NAAPAUansi_string@?1??type_case_Z@?$output_processor@DV?$string_output_adapter@D@__crt_stdio_output@@V?$positional_parameter_base@DV?$string_output_adapter@D@__crt_stdio_output@@@2@@1@AAE_NXZ@@Z 100831c0 f i libucrtd:output.obj
 0002:0002c370       ??$extract_argument_from_va_list@PAUansi_string@?1??type_case_Z@?$output_processor@DV?$string_output_adapter@D@__crt_stdio_output@@V?$positional_parameter_base@DV?$string_output_adapter@D@__crt_stdio_output@@@2@@__crt_stdio_output@@AAE_NXZ@PAU1?1??234@AAE_NXZ@@?$standard_base@DV?$string_output_adapter@D@__crt_stdio_output@@@__crt_stdio_output@@IAE_NAAPAUansi_string@?1??type_case_Z@?$output_processor@DV?$string_output_adapter@D@__crt_stdio_output@@V?$positional_parameter_base@DV?$string_output_adapter@D@__crt_stdio_output@@@2@@1@AAE_NXZ@@Z 10083370 f i libucrtd:output.obj
 0002:0002c3a0       ??$extract_argument_from_va_list@PAUansi_string@?1??type_case_Z@?$output_processor@DV?$string_output_adapter@D@__crt_stdio_output@@V?$standard_base@DV?$string_output_adapter@D@__crt_stdio_output@@@2@@__crt_stdio_output@@AAE_NXZ@PAU1?1??234@AAE_NXZ@@?$standard_base@DV?$string_output_adapter@D@__crt_stdio_output@@@__crt_stdio_output@@IAE_NAAPAUansi_string@?1??type_case_Z@?$output_processor@DV?$string_output_adapter@D@__crt_stdio_output@@V?$standard_base@DV?$string_output_adapter@D@__crt_stdio_output@@@2@@1@AAE_NXZ@@Z 100833a0 f i libucrtd:output.obj
 0002:0002c3d0       ??$extract_argument_from_va_list@PAUansi_string@?1??type_case_Z@?$output_processor@_WV?$stream_output_adapter@_W@__crt_stdio_output@@V?$format_validation_base@_WV?$stream_output_adapter@_W@__crt_stdio_output@@@2@@__crt_stdio_output@@AAE_NXZ@PAU1?1??234@AAE_NXZ@@?$standard_base@_WV?$stream_output_adapter@_W@__crt_stdio_output@@@__crt_stdio_output@@IAE_NAAPAUansi_string@?1??type_case_Z@?$output_processor@_WV?$stream_output_adapter@_W@__crt_stdio_output@@V?$format_validation_base@_WV?$stream_output_adapter@_W@__crt_stdio_output@@@2@@1@AAE_NXZ@@Z 100833d0 f i libucrtd:output.obj
 0002:0002c400       ??$extract_argument_from_va_list@PAUansi_string@?1??type_case_Z@?$output_processor@_WV?$stream_output_adapter@_W@__crt_stdio_output@@V?$positional_parameter_base@_WV?$stream_output_adapter@_W@__crt_stdio_output@@@2@@__crt_stdio_output@@AAE_NXZ@PAU1?1??234@AAE_NXZ@@?$positional_parameter_base@_WV?$stream_output_adapter@_W@__crt_stdio_output@@@__crt_stdio_output@@IAE_NAAPAUansi_string@?1??type_case_Z@?$output_processor@_WV?$stream_output_adapter@_W@__crt_stdio_output@@V?$positional_parameter_base@_WV?$stream_output_adapter@_W@__crt_stdio_output@@@2@@1@AAE_NXZ@@Z 10083400 f i libucrtd:output.obj
 0002:0002c5c0       ??$extract_argument_from_va_list@PAUansi_string@?1??type_case_Z@?$output_processor@_WV?$stream_output_adapter@_W@__crt_stdio_output@@V?$positional_parameter_base@_WV?$stream_output_adapter@_W@__crt_stdio_output@@@2@@__crt_stdio_output@@AAE_NXZ@PAU1?1??234@AAE_NXZ@@?$standard_base@_WV?$stream_output_adapter@_W@__crt_stdio_output@@@__crt_stdio_output@@IAE_NAAPAUansi_string@?1??type_case_Z@?$output_processor@_WV?$stream_output_adapter@_W@__crt_stdio_output@@V?$positional_parameter_base@_WV?$stream_output_adapter@_W@__crt_stdio_output@@@2@@1@AAE_NXZ@@Z 100835c0 f i libucrtd:output.obj
 0002:0002c5f0       ??$extract_argument_from_va_list@PAUansi_string@?1??type_case_Z@?$output_processor@_WV?$stream_output_adapter@_W@__crt_stdio_output@@V?$standard_base@_WV?$stream_output_adapter@_W@__crt_stdio_output@@@2@@__crt_stdio_output@@AAE_NXZ@PAU1?1??234@AAE_NXZ@@?$standard_base@_WV?$stream_output_adapter@_W@__crt_stdio_output@@@__crt_stdio_output@@IAE_NAAPAUansi_string@?1??type_case_Z@?$output_processor@_WV?$stream_output_adapter@_W@__crt_stdio_output@@V?$standard_base@_WV?$stream_output_adapter@_W@__crt_stdio_output@@@2@@1@AAE_NXZ@@Z 100835f0 f i libucrtd:output.obj
 0002:0002c620       ??$extract_argument_from_va_list@PAUansi_string@?1??type_case_Z@?$output_processor@_WV?$string_output_adapter@_W@__crt_stdio_output@@V?$format_validation_base@_WV?$string_output_adapter@_W@__crt_stdio_output@@@2@@__crt_stdio_output@@AAE_NXZ@PAU1?1??234@AAE_NXZ@@?$standard_base@_WV?$string_output_adapter@_W@__crt_stdio_output@@@__crt_stdio_output@@IAE_NAAPAUansi_string@?1??type_case_Z@?$output_processor@_WV?$string_output_adapter@_W@__crt_stdio_output@@V?$format_validation_base@_WV?$string_output_adapter@_W@__crt_stdio_output@@@2@@1@AAE_NXZ@@Z 10083620 f i libucrtd:output.obj
 0002:0002c650       ??$extract_argument_from_va_list@PAUansi_string@?1??type_case_Z@?$output_processor@_WV?$string_output_adapter@_W@__crt_stdio_output@@V?$positional_parameter_base@_WV?$string_output_adapter@_W@__crt_stdio_output@@@2@@__crt_stdio_output@@AAE_NXZ@PAU1?1??234@AAE_NXZ@@?$positional_parameter_base@_WV?$string_output_adapter@_W@__crt_stdio_output@@@__crt_stdio_output@@IAE_NAAPAUansi_string@?1??type_case_Z@?$output_processor@_WV?$string_output_adapter@_W@__crt_stdio_output@@V?$positional_parameter_base@_WV?$string_output_adapter@_W@__crt_stdio_output@@@2@@1@AAE_NXZ@@Z 10083650 f i libucrtd:output.obj
 0002:0002c810       ??$extract_argument_from_va_list@PAUansi_string@?1??type_case_Z@?$output_processor@_WV?$string_output_adapter@_W@__crt_stdio_output@@V?$positional_parameter_base@_WV?$string_output_adapter@_W@__crt_stdio_output@@@2@@__crt_stdio_output@@AAE_NXZ@PAU1?1??234@AAE_NXZ@@?$standard_base@_WV?$string_output_adapter@_W@__crt_stdio_output@@@__crt_stdio_output@@IAE_NAAPAUansi_string@?1??type_case_Z@?$output_processor@_WV?$string_output_adapter@_W@__crt_stdio_output@@V?$positional_parameter_base@_WV?$string_output_adapter@_W@__crt_stdio_output@@@2@@1@AAE_NXZ@@Z 10083810 f i libucrtd:output.obj
 0002:0002c840       ??$extract_argument_from_va_list@PAUansi_string@?1??type_case_Z@?$output_processor@_WV?$string_output_adapter@_W@__crt_stdio_output@@V?$standard_base@_WV?$string_output_adapter@_W@__crt_stdio_output@@@2@@__crt_stdio_output@@AAE_NXZ@PAU1?1??234@AAE_NXZ@@?$standard_base@_WV?$string_output_adapter@_W@__crt_stdio_output@@@__crt_stdio_output@@IAE_NAAPAUansi_string@?1??type_case_Z@?$output_processor@_WV?$string_output_adapter@_W@__crt_stdio_output@@V?$standard_base@_WV?$string_output_adapter@_W@__crt_stdio_output@@@2@@1@AAE_NXZ@@Z 10083840 f i libucrtd:output.obj
 0002:0002c870       ??$extract_argument_from_va_list@PAXPAX@?$positional_parameter_base@DV?$stream_output_adapter@D@__crt_stdio_output@@@__crt_stdio_output@@IAE_NAAPAX@Z 10083870 f i libucrtd:output.obj
 0002:0002ca20       ??$extract_argument_from_va_list@PAXPAX@?$positional_parameter_base@DV?$string_output_adapter@D@__crt_stdio_output@@@__crt_stdio_output@@IAE_NAAPAX@Z 10083a20 f i libucrtd:output.obj
 0002:0002cbd0       ??$extract_argument_from_va_list@PAXPAX@?$positional_parameter_base@_WV?$stream_output_adapter@_W@__crt_stdio_output@@@__crt_stdio_output@@IAE_NAAPAX@Z 10083bd0 f i libucrtd:output.obj
 0002:0002cd90       ??$extract_argument_from_va_list@PAXPAX@?$positional_parameter_base@_WV?$string_output_adapter@_W@__crt_stdio_output@@@__crt_stdio_output@@IAE_NAAPAX@Z 10083d90 f i libucrtd:output.obj
 0002:0002cf50       ??$extract_argument_from_va_list@PAXPAX@?$standard_base@DV?$stream_output_adapter@D@__crt_stdio_output@@@__crt_stdio_output@@IAE_NAAPAX@Z 10083f50 f i libucrtd:output.obj
 0002:0002cf80       ??$extract_argument_from_va_list@PAXPAX@?$standard_base@DV?$string_output_adapter@D@__crt_stdio_output@@@__crt_stdio_output@@IAE_NAAPAX@Z 10083f80 f i libucrtd:output.obj
 0002:0002cfb0       ??$extract_argument_from_va_list@PAXPAX@?$standard_base@_WV?$stream_output_adapter@_W@__crt_stdio_output@@@__crt_stdio_output@@IAE_NAAPAX@Z 10083fb0 f i libucrtd:output.obj
 0002:0002cfe0       ??$extract_argument_from_va_list@PAXPAX@?$standard_base@_WV?$string_output_adapter@_W@__crt_stdio_output@@@__crt_stdio_output@@IAE_NAAPAX@Z 10083fe0 f i libucrtd:output.obj
 0002:0002d010       ??$extract_argument_from_va_list@U_CRT_DOUBLE@@U1@@?$positional_parameter_base@DV?$stream_output_adapter@D@__crt_stdio_output@@@__crt_stdio_output@@IAE_NAAU_CRT_DOUBLE@@@Z 10084010 f i libucrtd:output.obj
 0002:0002d1f0       ??$extract_argument_from_va_list@U_CRT_DOUBLE@@U1@@?$positional_parameter_base@DV?$string_output_adapter@D@__crt_stdio_output@@@__crt_stdio_output@@IAE_NAAU_CRT_DOUBLE@@@Z 100841f0 f i libucrtd:output.obj
 0002:0002d3d0       ??$extract_argument_from_va_list@U_CRT_DOUBLE@@U1@@?$positional_parameter_base@_WV?$stream_output_adapter@_W@__crt_stdio_output@@@__crt_stdio_output@@IAE_NAAU_CRT_DOUBLE@@@Z 100843d0 f i libucrtd:output.obj
 0002:0002d5b0       ??$extract_argument_from_va_list@U_CRT_DOUBLE@@U1@@?$positional_parameter_base@_WV?$string_output_adapter@_W@__crt_stdio_output@@@__crt_stdio_output@@IAE_NAAU_CRT_DOUBLE@@@Z 100845b0 f i libucrtd:output.obj
 0002:0002d790       ??$extract_argument_from_va_list@U_CRT_DOUBLE@@U1@@?$standard_base@DV?$stream_output_adapter@D@__crt_stdio_output@@@__crt_stdio_output@@IAE_NAAU_CRT_DOUBLE@@@Z 10084790 f i libucrtd:output.obj
 0002:0002d7e0       ??$extract_argument_from_va_list@U_CRT_DOUBLE@@U1@@?$standard_base@DV?$string_output_adapter@D@__crt_stdio_output@@@__crt_stdio_output@@IAE_NAAU_CRT_DOUBLE@@@Z 100847e0 f i libucrtd:output.obj
 0002:0002d830       ??$extract_argument_from_va_list@U_CRT_DOUBLE@@U1@@?$standard_base@_WV?$stream_output_adapter@_W@__crt_stdio_output@@@__crt_stdio_output@@IAE_NAAU_CRT_DOUBLE@@@Z 10084830 f i libucrtd:output.obj
 0002:0002d880       ??$extract_argument_from_va_list@U_CRT_DOUBLE@@U1@@?$standard_base@_WV?$string_output_adapter@_W@__crt_stdio_output@@@__crt_stdio_output@@IAE_NAAU_CRT_DOUBLE@@@Z 10084880 f i libucrtd:output.obj
 0002:0002d8d0       ??$extract_argument_from_va_list@_J_J@?$positional_parameter_base@DV?$stream_output_adapter@D@__crt_stdio_output@@@__crt_stdio_output@@IAE_NAA_J@Z 100848d0 f i libucrtd:output.obj
 0002:0002da90       ??$extract_argument_from_va_list@_J_J@?$positional_parameter_base@DV?$string_output_adapter@D@__crt_stdio_output@@@__crt_stdio_output@@IAE_NAA_J@Z 10084a90 f i libucrtd:output.obj
 0002:0002dc50       ??$extract_argument_from_va_list@_J_J@?$positional_parameter_base@_WV?$stream_output_adapter@_W@__crt_stdio_output@@@__crt_stdio_output@@IAE_NAA_J@Z 10084c50 f i libucrtd:output.obj
 0002:0002de10       ??$extract_argument_from_va_list@_J_J@?$positional_parameter_base@_WV?$string_output_adapter@_W@__crt_stdio_output@@@__crt_stdio_output@@IAE_NAA_J@Z 10084e10 f i libucrtd:output.obj
 0002:0002dfd0       ??$extract_argument_from_va_list@_J_J@?$standard_base@DV?$stream_output_adapter@D@__crt_stdio_output@@@__crt_stdio_output@@IAE_NAA_J@Z 10084fd0 f i libucrtd:output.obj
 0002:0002e010       ??$extract_argument_from_va_list@_J_J@?$standard_base@DV?$string_output_adapter@D@__crt_stdio_output@@@__crt_stdio_output@@IAE_NAA_J@Z 10085010 f i libucrtd:output.obj
 0002:0002e050       ??$extract_argument_from_va_list@_J_J@?$standard_base@_WV?$stream_output_adapter@_W@__crt_stdio_output@@@__crt_stdio_output@@IAE_NAA_J@Z 10085050 f i libucrtd:output.obj
 0002:0002e090       ??$extract_argument_from_va_list@_J_J@?$standard_base@_WV?$string_output_adapter@_W@__crt_stdio_output@@@__crt_stdio_output@@IAE_NAA_J@Z 10085090 f i libucrtd:output.obj
 0002:0002e0d0       ??$extract_argument_from_va_list@_K_J@?$positional_parameter_base@DV?$stream_output_adapter@D@__crt_stdio_output@@@__crt_stdio_output@@IAE_NAA_J@Z 100850d0 f i libucrtd:output.obj
 0002:0002e290       ??$extract_argument_from_va_list@_K_J@?$positional_parameter_base@DV?$string_output_adapter@D@__crt_stdio_output@@@__crt_stdio_output@@IAE_NAA_J@Z 10085290 f i libucrtd:output.obj
 0002:0002e450       ??$extract_argument_from_va_list@_K_J@?$positional_parameter_base@_WV?$stream_output_adapter@_W@__crt_stdio_output@@@__crt_stdio_output@@IAE_NAA_J@Z 10085450 f i libucrtd:output.obj
 0002:0002e610       ??$extract_argument_from_va_list@_K_J@?$positional_parameter_base@_WV?$string_output_adapter@_W@__crt_stdio_output@@@__crt_stdio_output@@IAE_NAA_J@Z 10085610 f i libucrtd:output.obj
 0002:0002e7d0       ??$extract_argument_from_va_list@_K_J@?$standard_base@DV?$stream_output_adapter@D@__crt_stdio_output@@@__crt_stdio_output@@IAE_NAA_J@Z 100857d0 f i libucrtd:output.obj
 0002:0002e810       ??$extract_argument_from_va_list@_K_J@?$standard_base@DV?$string_output_adapter@D@__crt_stdio_output@@@__crt_stdio_output@@IAE_NAA_J@Z 10085810 f i libucrtd:output.obj
 0002:0002e850       ??$extract_argument_from_va_list@_K_J@?$standard_base@_WV?$stream_output_adapter@_W@__crt_stdio_output@@@__crt_stdio_output@@IAE_NAA_J@Z 10085850 f i libucrtd:output.obj
 0002:0002e890       ??$extract_argument_from_va_list@_K_J@?$standard_base@_WV?$string_output_adapter@_W@__crt_stdio_output@@@__crt_stdio_output@@IAE_NAA_J@Z 10085890 f i libucrtd:output.obj
 0002:0002e8d0       ??$extract_argument_from_va_list@_W_W@?$positional_parameter_base@DV?$stream_output_adapter@D@__crt_stdio_output@@@__crt_stdio_output@@IAE_NAA_W@Z 100858d0 f i libucrtd:output.obj
 0002:0002ea80       ??$extract_argument_from_va_list@_W_W@?$positional_parameter_base@DV?$string_output_adapter@D@__crt_stdio_output@@@__crt_stdio_output@@IAE_NAA_W@Z 10085a80 f i libucrtd:output.obj
 0002:0002ec30       ??$extract_argument_from_va_list@_W_W@?$positional_parameter_base@_WV?$stream_output_adapter@_W@__crt_stdio_output@@@__crt_stdio_output@@IAE_NAA_W@Z 10085c30 f i libucrtd:output.obj
 0002:0002edf0       ??$extract_argument_from_va_list@_W_W@?$positional_parameter_base@_WV?$string_output_adapter@_W@__crt_stdio_output@@@__crt_stdio_output@@IAE_NAA_W@Z 10085df0 f i libucrtd:output.obj
 0002:0002efb0       ??$extract_argument_from_va_list@_W_W@?$standard_base@DV?$stream_output_adapter@D@__crt_stdio_output@@@__crt_stdio_output@@IAE_NAA_W@Z 10085fb0 f i libucrtd:output.obj
 0002:0002efe0       ??$extract_argument_from_va_list@_W_W@?$standard_base@DV?$string_output_adapter@D@__crt_stdio_output@@@__crt_stdio_output@@IAE_NAA_W@Z 10085fe0 f i libucrtd:output.obj
 0002:0002f010       ??$extract_argument_from_va_list@_W_W@?$standard_base@_WV?$stream_output_adapter@_W@__crt_stdio_output@@@__crt_stdio_output@@IAE_NAA_W@Z 10086010 f i libucrtd:output.obj
 0002:0002f040       ??$extract_argument_from_va_list@_W_W@?$standard_base@_WV?$string_output_adapter@_W@__crt_stdio_output@@@__crt_stdio_output@@IAE_NAA_W@Z 10086040 f i libucrtd:output.obj
 0002:0002f070       ??$get_parameter_type@D@?$positional_parameter_base@DV?$stream_output_adapter@D@__crt_stdio_output@@@__crt_stdio_output@@CA?AW4parameter_type@01@PAD@Z 10086070 f i libucrtd:output.obj
 0002:0002f080       ??$get_parameter_type@D@?$positional_parameter_base@DV?$string_output_adapter@D@__crt_stdio_output@@@__crt_stdio_output@@CA?AW4parameter_type@01@PAD@Z 10086080 f i libucrtd:output.obj
 0002:0002f090       ??$get_parameter_type@D@?$positional_parameter_base@_WV?$stream_output_adapter@_W@__crt_stdio_output@@@__crt_stdio_output@@CA?AW4parameter_type@01@PAD@Z 10086090 f i libucrtd:output.obj
 0002:0002f0a0       ??$get_parameter_type@D@?$positional_parameter_base@_WV?$string_output_adapter@_W@__crt_stdio_output@@@__crt_stdio_output@@CA?AW4parameter_type@01@PAD@Z 100860a0 f i libucrtd:output.obj
 0002:0002f0b0       ??$get_parameter_type@Uansi_string@?1??type_case_Z@?$output_processor@DV?$stream_output_adapter@D@__crt_stdio_output@@V?$positional_parameter_base@DV?$stream_output_adapter@D@__crt_stdio_output@@@2@@__crt_stdio_output@@AAE_NXZ@@?$positional_parameter_base@DV?$stream_output_adapter@D@__crt_stdio_output@@@__crt_stdio_output@@CA?AW4parameter_type@01@PAUansi_string@?1??type_case_Z@?$output_processor@DV?$stream_output_adapter@D@__crt_stdio_output@@V?$positional_parameter_base@DV?$stream_output_adapter@D@__crt_stdio_output@@@2@@1@AAE_NXZ@@Z 100860b0 f i libucrtd:output.obj
 0002:0002f0c0       ??$get_parameter_type@Uansi_string@?1??type_case_Z@?$output_processor@DV?$string_output_adapter@D@__crt_stdio_output@@V?$positional_parameter_base@DV?$string_output_adapter@D@__crt_stdio_output@@@2@@__crt_stdio_output@@AAE_NXZ@@?$positional_parameter_base@DV?$string_output_adapter@D@__crt_stdio_output@@@__crt_stdio_output@@CA?AW4parameter_type@01@PAUansi_string@?1??type_case_Z@?$output_processor@DV?$string_output_adapter@D@__crt_stdio_output@@V?$positional_parameter_base@DV?$string_output_adapter@D@__crt_stdio_output@@@2@@1@AAE_NXZ@@Z 100860c0 f i libucrtd:output.obj
 0002:0002f0d0       ??$get_parameter_type@Uansi_string@?1??type_case_Z@?$output_processor@_WV?$stream_output_adapter@_W@__crt_stdio_output@@V?$positional_parameter_base@_WV?$stream_output_adapter@_W@__crt_stdio_output@@@2@@__crt_stdio_output@@AAE_NXZ@@?$positional_parameter_base@_WV?$stream_output_adapter@_W@__crt_stdio_output@@@__crt_stdio_output@@CA?AW4parameter_type@01@PAUansi_string@?1??type_case_Z@?$output_processor@_WV?$stream_output_adapter@_W@__crt_stdio_output@@V?$positional_parameter_base@_WV?$stream_output_adapter@_W@__crt_stdio_output@@@2@@1@AAE_NXZ@@Z 100860d0 f i libucrtd:output.obj
 0002:0002f0e0       ??$get_parameter_type@Uansi_string@?1??type_case_Z@?$output_processor@_WV?$string_output_adapter@_W@__crt_stdio_output@@V?$positional_parameter_base@_WV?$string_output_adapter@_W@__crt_stdio_output@@@2@@__crt_stdio_output@@AAE_NXZ@@?$positional_parameter_base@_WV?$string_output_adapter@_W@__crt_stdio_output@@@__crt_stdio_output@@CA?AW4parameter_type@01@PAUansi_string@?1??type_case_Z@?$output_processor@_WV?$string_output_adapter@_W@__crt_stdio_output@@V?$positional_parameter_base@_WV?$string_output_adapter@_W@__crt_stdio_output@@@2@@1@AAE_NXZ@@Z 100860e0 f i libucrtd:output.obj
 0002:0002f0f0       ??$get_parameter_type@X@?$positional_parameter_base@DV?$stream_output_adapter@D@__crt_stdio_output@@@__crt_stdio_output@@CA?AW4parameter_type@01@PAX@Z 100860f0 f i libucrtd:output.obj
 0002:0002f100       ??$get_parameter_type@X@?$positional_parameter_base@DV?$string_output_adapter@D@__crt_stdio_output@@@__crt_stdio_output@@CA?AW4parameter_type@01@PAX@Z 10086100 f i libucrtd:output.obj
 0002:0002f110       ??$get_parameter_type@X@?$positional_parameter_base@_WV?$stream_output_adapter@_W@__crt_stdio_output@@@__crt_stdio_output@@CA?AW4parameter_type@01@PAX@Z 10086110 f i libucrtd:output.obj
 0002:0002f120       ??$get_parameter_type@X@?$positional_parameter_base@_WV?$string_output_adapter@_W@__crt_stdio_output@@@__crt_stdio_output@@CA?AW4parameter_type@01@PAX@Z 10086120 f i libucrtd:output.obj
 0002:0002f130       ??$is_character_specifier@D@?$positional_parameter_base@DV?$stream_output_adapter@D@__crt_stdio_output@@@__crt_stdio_output@@CA_ND@Z 10086130 f i libucrtd:output.obj
 0002:0002f170       ??$is_character_specifier@D@?$positional_parameter_base@DV?$string_output_adapter@D@__crt_stdio_output@@@__crt_stdio_output@@CA_ND@Z 10086170 f i libucrtd:output.obj
 0002:0002f1b0       ??$is_character_specifier@_W@?$positional_parameter_base@_WV?$stream_output_adapter@_W@__crt_stdio_output@@@__crt_stdio_output@@CA_N_W@Z 100861b0 f i libucrtd:output.obj
 0002:0002f1f0       ??$is_character_specifier@_W@?$positional_parameter_base@_WV?$string_output_adapter@_W@__crt_stdio_output@@@__crt_stdio_output@@CA_N_W@Z 100861f0 f i libucrtd:output.obj
 0002:0002f230       ??$is_integral_specifier@D@?$positional_parameter_base@DV?$stream_output_adapter@D@__crt_stdio_output@@@__crt_stdio_output@@CA_ND@Z 10086230 f i libucrtd:output.obj
 0002:0002f2b0       ??$is_integral_specifier@D@?$positional_parameter_base@DV?$string_output_adapter@D@__crt_stdio_output@@@__crt_stdio_output@@CA_ND@Z 100862b0 f i libucrtd:output.obj
 0002:0002f330       ??$is_integral_specifier@_W@?$positional_parameter_base@_WV?$stream_output_adapter@_W@__crt_stdio_output@@@__crt_stdio_output@@CA_N_W@Z 10086330 f i libucrtd:output.obj
 0002:0002f3b0       ??$is_integral_specifier@_W@?$positional_parameter_base@_WV?$string_output_adapter@_W@__crt_stdio_output@@@__crt_stdio_output@@CA_N_W@Z 100863b0 f i libucrtd:output.obj
 0002:0002f430       ??$is_overflow_condition@K@__crt_strtox@@YA_NIK@Z 10086430 f i libucrtd:output.obj
 0002:0002f4a0       ??$is_pointer_specifier@D@?$positional_parameter_base@DV?$stream_output_adapter@D@__crt_stdio_output@@@__crt_stdio_output@@CA_ND@Z 100864a0 f i libucrtd:output.obj
 0002:0002f4d0       ??$is_pointer_specifier@D@?$positional_parameter_base@DV?$string_output_adapter@D@__crt_stdio_output@@@__crt_stdio_output@@CA_ND@Z 100864d0 f i libucrtd:output.obj
 0002:0002f500       ??$is_pointer_specifier@_W@?$positional_parameter_base@_WV?$stream_output_adapter@_W@__crt_stdio_output@@@__crt_stdio_output@@CA_N_W@Z 10086500 f i libucrtd:output.obj
 0002:0002f530       ??$is_pointer_specifier@_W@?$positional_parameter_base@_WV?$string_output_adapter@_W@__crt_stdio_output@@@__crt_stdio_output@@CA_N_W@Z 10086530 f i libucrtd:output.obj
 0002:0002f560       ??$is_string_specifier@D@?$positional_parameter_base@DV?$stream_output_adapter@D@__crt_stdio_output@@@__crt_stdio_output@@CA_ND@Z 10086560 f i libucrtd:output.obj
 0002:0002f5a0       ??$is_string_specifier@D@?$positional_parameter_base@DV?$string_output_adapter@D@__crt_stdio_output@@@__crt_stdio_output@@CA_ND@Z 100865a0 f i libucrtd:output.obj
 0002:0002f5e0       ??$is_string_specifier@_W@?$positional_parameter_base@_WV?$stream_output_adapter@_W@__crt_stdio_output@@@__crt_stdio_output@@CA_N_W@Z 100865e0 f i libucrtd:output.obj
 0002:0002f620       ??$is_string_specifier@_W@?$positional_parameter_base@_WV?$string_output_adapter@_W@__crt_stdio_output@@@__crt_stdio_output@@CA_N_W@Z 10086620 f i libucrtd:output.obj
 0002:0002f660       ??$is_wide_character_specifier@D@__crt_stdio_output@@YA_N_KDW4length_modifier@0@@Z 10086660 f i libucrtd:output.obj
 0002:0002f700       ??$is_wide_character_specifier@_W@__crt_stdio_output@@YA_N_K_WW4length_modifier@0@@Z 10086700 f i libucrtd:output.obj
 0002:0002f7f0       ??$make_c_string_character_source@DPAPAD@__crt_strtox@@YA?AV?$c_string_character_source@D@0@QBDQAPAD@Z 100867f0 f i libucrtd:output.obj
 0002:0002f810       ??$make_c_string_character_source@_WPAPA_W@__crt_strtox@@YA?AV?$c_string_character_source@_W@0@QB_WQAPA_W@Z 10086810 f i libucrtd:output.obj
 0002:0002f830       ??$parse_integer@KV?$c_string_character_source@D@__crt_strtox@@$0A@@__crt_strtox@@YAKAAV__crt_cached_ptd_host@@V?$c_string_character_source@D@0@H_N@Z 10086830 f i libucrtd:output.obj
 0002:0002fc30       ??$parse_integer@KV?$c_string_character_source@_W@__crt_strtox@@$0A@@__crt_strtox@@YAKAAV__crt_cached_ptd_host@@V?$c_string_character_source@_W@0@H_N@Z 10086c30 f i libucrtd:output.obj
 0002:00030030       ??$peek_va_arg@C@__crt_stdio_output@@YACPAD@Z 10087030 f i libucrtd:output.obj
 0002:00030050       ??$peek_va_arg@E@__crt_stdio_output@@YAEPAD@Z 10087050 f i libucrtd:output.obj
 0002:00030070       ??$peek_va_arg@F@__crt_stdio_output@@YAFPAD@Z 10087070 f i libucrtd:output.obj
 0002:00030090       ??$peek_va_arg@G@__crt_stdio_output@@YAGPAD@Z 10087090 f i libucrtd:output.obj
 0002:000300b0       ??$peek_va_arg@H@__crt_stdio_output@@YAHPAD@Z 100870b0 f i libucrtd:output.obj
 0002:000300d0       ??$peek_va_arg@I@__crt_stdio_output@@YAIPAD@Z 100870d0 f i libucrtd:output.obj
 0002:000300f0       ??$peek_va_arg@PAD@__crt_stdio_output@@YAPADPAD@Z 100870f0 f i libucrtd:output.obj
 0002:00030110       ??$peek_va_arg@PAUansi_string@?1??type_case_Z@?$output_processor@DV?$stream_output_adapter@D@__crt_stdio_output@@V?$positional_parameter_base@DV?$stream_output_adapter@D@__crt_stdio_output@@@2@@__crt_stdio_output@@AAE_NXZ@@__crt_stdio_output@@YAPAUansi_string@?1??type_case_Z@?$output_processor@DV?$stream_output_adapter@D@__crt_stdio_output@@V?$positional_parameter_base@DV?$stream_output_adapter@D@__crt_stdio_output@@@2@@0@AAE_NXZ@PAD@Z 10087110 f i libucrtd:output.obj
 0002:00030130       ??$peek_va_arg@PAUansi_string@?1??type_case_Z@?$output_processor@DV?$string_output_adapter@D@__crt_stdio_output@@V?$positional_parameter_base@DV?$string_output_adapter@D@__crt_stdio_output@@@2@@__crt_stdio_output@@AAE_NXZ@@__crt_stdio_output@@YAPAUansi_string@?1??type_case_Z@?$output_processor@DV?$string_output_adapter@D@__crt_stdio_output@@V?$positional_parameter_base@DV?$string_output_adapter@D@__crt_stdio_output@@@2@@0@AAE_NXZ@PAD@Z 10087130 f i libucrtd:output.obj
 0002:00030150       ??$peek_va_arg@PAUansi_string@?1??type_case_Z@?$output_processor@_WV?$stream_output_adapter@_W@__crt_stdio_output@@V?$positional_parameter_base@_WV?$stream_output_adapter@_W@__crt_stdio_output@@@2@@__crt_stdio_output@@AAE_NXZ@@__crt_stdio_output@@YAPAUansi_string@?1??type_case_Z@?$output_processor@_WV?$stream_output_adapter@_W@__crt_stdio_output@@V?$positional_parameter_base@_WV?$stream_output_adapter@_W@__crt_stdio_output@@@2@@0@AAE_NXZ@PAD@Z 10087150 f i libucrtd:output.obj
 0002:00030170       ??$peek_va_arg@PAUansi_string@?1??type_case_Z@?$output_processor@_WV?$string_output_adapter@_W@__crt_stdio_output@@V?$positional_parameter_base@_WV?$string_output_adapter@_W@__crt_stdio_output@@@2@@__crt_stdio_output@@AAE_NXZ@@__crt_stdio_output@@YAPAUansi_string@?1??type_case_Z@?$output_processor@_WV?$string_output_adapter@_W@__crt_stdio_output@@V?$positional_parameter_base@_WV?$string_output_adapter@_W@__crt_stdio_output@@@2@@0@AAE_NXZ@PAD@Z 10087170 f i libucrtd:output.obj
 0002:00030190       ??$peek_va_arg@PAX@__crt_stdio_output@@YAPAXPAD@Z 10087190 f i libucrtd:output.obj
 0002:000301b0       ??$peek_va_arg@U_CRT_DOUBLE@@@__crt_stdio_output@@YA?AU_CRT_DOUBLE@@PAD@Z 100871b0 f i libucrtd:output.obj
 0002:000301d0       ??$peek_va_arg@_J@__crt_stdio_output@@YA_JPAD@Z 100871d0 f i libucrtd:output.obj
 0002:000301f0       ??$peek_va_arg@_K@__crt_stdio_output@@YA_KPAD@Z 100871f0 f i libucrtd:output.obj
 0002:00030210       ??$peek_va_arg@_W@__crt_stdio_output@@YA_WPAD@Z 10087210 f i libucrtd:output.obj
 0002:00030230       ??$puttc_nolock_internal@ABDPAU_iobuf@@AAV__crt_cached_ptd_host@@@?$__crt_char_traits@D@@SAHABD$$QAPAU_iobuf@@AAV__crt_cached_ptd_host@@@Z 10087230 f i libucrtd:output.obj
 0002:00030260       ??$puttc_nolock_internal@AB_WPAU_iobuf@@AAV__crt_cached_ptd_host@@@?$__crt_char_traits@_W@@SAGAB_W$$QAPAU_iobuf@@AAV__crt_cached_ptd_host@@@Z 10087260 f i libucrtd:output.obj
 0002:00030290       ??$read_va_arg@C@__crt_stdio_output@@YACAAPAD@Z 10087290 f i libucrtd:output.obj
 0002:000302c0       ??$read_va_arg@E@__crt_stdio_output@@YAEAAPAD@Z 100872c0 f i libucrtd:output.obj
 0002:000302f0       ??$read_va_arg@F@__crt_stdio_output@@YAFAAPAD@Z 100872f0 f i libucrtd:output.obj
 0002:00030320       ??$read_va_arg@G@__crt_stdio_output@@YAGAAPAD@Z 10087320 f i libucrtd:output.obj
 0002:00030350       ??$read_va_arg@H@__crt_stdio_output@@YAHAAPAD@Z 10087350 f i libucrtd:output.obj
 0002:00030380       ??$read_va_arg@I@__crt_stdio_output@@YAIAAPAD@Z 10087380 f i libucrtd:output.obj
 0002:000303b0       ??$read_va_arg@PAD@__crt_stdio_output@@YAPADAAPAD@Z 100873b0 f i libucrtd:output.obj
 0002:000303e0       ??$read_va_arg@PAUansi_string@?1??type_case_Z@?$output_processor@DV?$stream_output_adapter@D@__crt_stdio_output@@V?$format_validation_base@DV?$stream_output_adapter@D@__crt_stdio_output@@@2@@__crt_stdio_output@@AAE_NXZ@@__crt_stdio_output@@YAPAUansi_string@?1??type_case_Z@?$output_processor@DV?$stream_output_adapter@D@__crt_stdio_output@@V?$format_validation_base@DV?$stream_output_adapter@D@__crt_stdio_output@@@2@@0@AAE_NXZ@AAPAD@Z 100873e0 f i libucrtd:output.obj
 0002:00030410       ??$read_va_arg@PAUansi_string@?1??type_case_Z@?$output_processor@DV?$stream_output_adapter@D@__crt_stdio_output@@V?$positional_parameter_base@DV?$stream_output_adapter@D@__crt_stdio_output@@@2@@__crt_stdio_output@@AAE_NXZ@@__crt_stdio_output@@YAPAUansi_string@?1??type_case_Z@?$output_processor@DV?$stream_output_adapter@D@__crt_stdio_output@@V?$positional_parameter_base@DV?$stream_output_adapter@D@__crt_stdio_output@@@2@@0@AAE_NXZ@AAPAD@Z 10087410 f i libucrtd:output.obj
 0002:00030440       ??$read_va_arg@PAUansi_string@?1??type_case_Z@?$output_processor@DV?$stream_output_adapter@D@__crt_stdio_output@@V?$standard_base@DV?$stream_output_adapter@D@__crt_stdio_output@@@2@@__crt_stdio_output@@AAE_NXZ@@__crt_stdio_output@@YAPAUansi_string@?1??type_case_Z@?$output_processor@DV?$stream_output_adapter@D@__crt_stdio_output@@V?$standard_base@DV?$stream_output_adapter@D@__crt_stdio_output@@@2@@0@AAE_NXZ@AAPAD@Z 10087440 f i libucrtd:output.obj
 0002:00030470       ??$read_va_arg@PAUansi_string@?1??type_case_Z@?$output_processor@DV?$string_output_adapter@D@__crt_stdio_output@@V?$format_validation_base@DV?$string_output_adapter@D@__crt_stdio_output@@@2@@__crt_stdio_output@@AAE_NXZ@@__crt_stdio_output@@YAPAUansi_string@?1??type_case_Z@?$output_processor@DV?$string_output_adapter@D@__crt_stdio_output@@V?$format_validation_base@DV?$string_output_adapter@D@__crt_stdio_output@@@2@@0@AAE_NXZ@AAPAD@Z 10087470 f i libucrtd:output.obj
 0002:000304a0       ??$read_va_arg@PAUansi_string@?1??type_case_Z@?$output_processor@DV?$string_output_adapter@D@__crt_stdio_output@@V?$positional_parameter_base@DV?$string_output_adapter@D@__crt_stdio_output@@@2@@__crt_stdio_output@@AAE_NXZ@@__crt_stdio_output@@YAPAUansi_string@?1??type_case_Z@?$output_processor@DV?$string_output_adapter@D@__crt_stdio_output@@V?$positional_parameter_base@DV?$string_output_adapter@D@__crt_stdio_output@@@2@@0@AAE_NXZ@AAPAD@Z 100874a0 f i libucrtd:output.obj
 0002:000304d0       ??$read_va_arg@PAUansi_string@?1??type_case_Z@?$output_processor@DV?$string_output_adapter@D@__crt_stdio_output@@V?$standard_base@DV?$string_output_adapter@D@__crt_stdio_output@@@2@@__crt_stdio_output@@AAE_NXZ@@__crt_stdio_output@@YAPAUansi_string@?1??type_case_Z@?$output_processor@DV?$string_output_adapter@D@__crt_stdio_output@@V?$standard_base@DV?$string_output_adapter@D@__crt_stdio_output@@@2@@0@AAE_NXZ@AAPAD@Z 100874d0 f i libucrtd:output.obj
 0002:00030500       ??$read_va_arg@PAUansi_string@?1??type_case_Z@?$output_processor@_WV?$stream_output_adapter@_W@__crt_stdio_output@@V?$format_validation_base@_WV?$stream_output_adapter@_W@__crt_stdio_output@@@2@@__crt_stdio_output@@AAE_NXZ@@__crt_stdio_output@@YAPAUansi_string@?1??type_case_Z@?$output_processor@_WV?$stream_output_adapter@_W@__crt_stdio_output@@V?$format_validation_base@_WV?$stream_output_adapter@_W@__crt_stdio_output@@@2@@0@AAE_NXZ@AAPAD@Z 10087500 f i libucrtd:output.obj
 0002:00030530       ??$read_va_arg@PAUansi_string@?1??type_case_Z@?$output_processor@_WV?$stream_output_adapter@_W@__crt_stdio_output@@V?$positional_parameter_base@_WV?$stream_output_adapter@_W@__crt_stdio_output@@@2@@__crt_stdio_output@@AAE_NXZ@@__crt_stdio_output@@YAPAUansi_string@?1??type_case_Z@?$output_processor@_WV?$stream_output_adapter@_W@__crt_stdio_output@@V?$positional_parameter_base@_WV?$stream_output_adapter@_W@__crt_stdio_output@@@2@@0@AAE_NXZ@AAPAD@Z 10087530 f i libucrtd:output.obj
 0002:00030560       ??$read_va_arg@PAUansi_string@?1??type_case_Z@?$output_processor@_WV?$stream_output_adapter@_W@__crt_stdio_output@@V?$standard_base@_WV?$stream_output_adapter@_W@__crt_stdio_output@@@2@@__crt_stdio_output@@AAE_NXZ@@__crt_stdio_output@@YAPAUansi_string@?1??type_case_Z@?$output_processor@_WV?$stream_output_adapter@_W@__crt_stdio_output@@V?$standard_base@_WV?$stream_output_adapter@_W@__crt_stdio_output@@@2@@0@AAE_NXZ@AAPAD@Z 10087560 f i libucrtd:output.obj
 0002:00030590       ??$read_va_arg@PAUansi_string@?1??type_case_Z@?$output_processor@_WV?$string_output_adapter@_W@__crt_stdio_output@@V?$format_validation_base@_WV?$string_output_adapter@_W@__crt_stdio_output@@@2@@__crt_stdio_output@@AAE_NXZ@@__crt_stdio_output@@YAPAUansi_string@?1??type_case_Z@?$output_processor@_WV?$string_output_adapter@_W@__crt_stdio_output@@V?$format_validation_base@_WV?$string_output_adapter@_W@__crt_stdio_output@@@2@@0@AAE_NXZ@AAPAD@Z 10087590 f i libucrtd:output.obj
 0002:000305c0       ??$read_va_arg@PAUansi_string@?1??type_case_Z@?$output_processor@_WV?$string_output_adapter@_W@__crt_stdio_output@@V?$positional_parameter_base@_WV?$string_output_adapter@_W@__crt_stdio_output@@@2@@__crt_stdio_output@@AAE_NXZ@@__crt_stdio_output@@YAPAUansi_string@?1??type_case_Z@?$output_processor@_WV?$string_output_adapter@_W@__crt_stdio_output@@V?$positional_parameter_base@_WV?$string_output_adapter@_W@__crt_stdio_output@@@2@@0@AAE_NXZ@AAPAD@Z 100875c0 f i libucrtd:output.obj
 0002:000305f0       ??$read_va_arg@PAUansi_string@?1??type_case_Z@?$output_processor@_WV?$string_output_adapter@_W@__crt_stdio_output@@V?$standard_base@_WV?$string_output_adapter@_W@__crt_stdio_output@@@2@@__crt_stdio_output@@AAE_NXZ@@__crt_stdio_output@@YAPAUansi_string@?1??type_case_Z@?$output_processor@_WV?$string_output_adapter@_W@__crt_stdio_output@@V?$standard_base@_WV?$string_output_adapter@_W@__crt_stdio_output@@@2@@0@AAE_NXZ@AAPAD@Z 100875f0 f i libucrtd:output.obj
 0002:00030620       ??$read_va_arg@PAX@__crt_stdio_output@@YAPAXAAPAD@Z 10087620 f i libucrtd:output.obj
 0002:00030650       ??$read_va_arg@U_CRT_DOUBLE@@@__crt_stdio_output@@YA?AU_CRT_DOUBLE@@AAPAD@Z 10087650 f i libucrtd:output.obj
 0002:00030680       ??$read_va_arg@_J@__crt_stdio_output@@YA_JAAPAD@Z 10087680 f i libucrtd:output.obj
 0002:000306b0       ??$read_va_arg@_K@__crt_stdio_output@@YA_KAAPAD@Z 100876b0 f i libucrtd:output.obj
 0002:000306e0       ??$read_va_arg@_W@__crt_stdio_output@@YA_WAAPAD@Z 100876e0 f i libucrtd:output.obj
 0002:00030710       ??$scratch_count@D@formatting_buffer@__crt_stdio_output@@QBEIXZ 10087710 f i libucrtd:output.obj
 0002:00030730       ??$scratch_data@D@formatting_buffer@__crt_stdio_output@@QAEPADXZ 10087730 f i libucrtd:output.obj
 0002:00030790       ??$type_case_integer@$07@?$output_processor@DV?$stream_output_adapter@D@__crt_stdio_output@@V?$format_validation_base@DV?$stream_output_adapter@D@__crt_stdio_output@@@2@@__crt_stdio_output@@AAE_N_N@Z 10087790 f i libucrtd:output.obj
 0002:00030bc0       ??$type_case_integer@$07@?$output_processor@DV?$stream_output_adapter@D@__crt_stdio_output@@V?$positional_parameter_base@DV?$stream_output_adapter@D@__crt_stdio_output@@@2@@__crt_stdio_output@@AAE_N_N@Z 10087bc0 f i libucrtd:output.obj
 0002:00030ff0       ??$type_case_integer@$07@?$output_processor@DV?$stream_output_adapter@D@__crt_stdio_output@@V?$standard_base@DV?$stream_output_adapter@D@__crt_stdio_output@@@2@@__crt_stdio_output@@AAE_N_N@Z 10087ff0 f i libucrtd:output.obj
 0002:00031420       ??$type_case_integer@$07@?$output_processor@DV?$string_output_adapter@D@__crt_stdio_output@@V?$format_validation_base@DV?$string_output_adapter@D@__crt_stdio_output@@@2@@__crt_stdio_output@@AAE_N_N@Z 10088420 f i libucrtd:output.obj
 0002:00031850       ??$type_case_integer@$07@?$output_processor@DV?$string_output_adapter@D@__crt_stdio_output@@V?$positional_parameter_base@DV?$string_output_adapter@D@__crt_stdio_output@@@2@@__crt_stdio_output@@AAE_N_N@Z 10088850 f i libucrtd:output.obj
 0002:00031c80       ??$type_case_integer@$07@?$output_processor@DV?$string_output_adapter@D@__crt_stdio_output@@V?$standard_base@DV?$string_output_adapter@D@__crt_stdio_output@@@2@@__crt_stdio_output@@AAE_N_N@Z 10088c80 f i libucrtd:output.obj
 0002:000320b0       ??$type_case_integer@$07@?$output_processor@_WV?$stream_output_adapter@_W@__crt_stdio_output@@V?$format_validation_base@_WV?$stream_output_adapter@_W@__crt_stdio_output@@@2@@__crt_stdio_output@@AAE_N_N@Z 100890b0 f i libucrtd:output.obj
 0002:000324f0       ??$type_case_integer@$07@?$output_processor@_WV?$stream_output_adapter@_W@__crt_stdio_output@@V?$positional_parameter_base@_WV?$stream_output_adapter@_W@__crt_stdio_output@@@2@@__crt_stdio_output@@AAE_N_N@Z 100894f0 f i libucrtd:output.obj
 0002:00032930       ??$type_case_integer@$07@?$output_processor@_WV?$stream_output_adapter@_W@__crt_stdio_output@@V?$standard_base@_WV?$stream_output_adapter@_W@__crt_stdio_output@@@2@@__crt_stdio_output@@AAE_N_N@Z 10089930 f i libucrtd:output.obj
 0002:00032d70       ??$type_case_integer@$07@?$output_processor@_WV?$string_output_adapter@_W@__crt_stdio_output@@V?$format_validation_base@_WV?$string_output_adapter@_W@__crt_stdio_output@@@2@@__crt_stdio_output@@AAE_N_N@Z 10089d70 f i libucrtd:output.obj
 0002:000331b0       ??$type_case_integer@$07@?$output_processor@_WV?$string_output_adapter@_W@__crt_stdio_output@@V?$positional_parameter_base@_WV?$string_output_adapter@_W@__crt_stdio_output@@@2@@__crt_stdio_output@@AAE_N_N@Z 1008a1b0 f i libucrtd:output.obj
 0002:000335f0       ??$type_case_integer@$07@?$output_processor@_WV?$string_output_adapter@_W@__crt_stdio_output@@V?$standard_base@_WV?$string_output_adapter@_W@__crt_stdio_output@@@2@@__crt_stdio_output@@AAE_N_N@Z 1008a5f0 f i libucrtd:output.obj
 0002:00033a30       ??$type_case_integer@$09@?$output_processor@DV?$stream_output_adapter@D@__crt_stdio_output@@V?$format_validation_base@DV?$stream_output_adapter@D@__crt_stdio_output@@@2@@__crt_stdio_output@@AAE_N_N@Z 1008aa30 f i libucrtd:output.obj
 0002:00033e60       ??$type_case_integer@$09@?$output_processor@DV?$stream_output_adapter@D@__crt_stdio_output@@V?$positional_parameter_base@DV?$stream_output_adapter@D@__crt_stdio_output@@@2@@__crt_stdio_output@@AAE_N_N@Z 1008ae60 f i libucrtd:output.obj
 0002:00034290       ??$type_case_integer@$09@?$output_processor@DV?$stream_output_adapter@D@__crt_stdio_output@@V?$standard_base@DV?$stream_output_adapter@D@__crt_stdio_output@@@2@@__crt_stdio_output@@AAE_N_N@Z 1008b290 f i libucrtd:output.obj
 0002:000346c0       ??$type_case_integer@$09@?$output_processor@DV?$string_output_adapter@D@__crt_stdio_output@@V?$format_validation_base@DV?$string_output_adapter@D@__crt_stdio_output@@@2@@__crt_stdio_output@@AAE_N_N@Z 1008b6c0 f i libucrtd:output.obj
 0002:00034af0       ??$type_case_integer@$09@?$output_processor@DV?$string_output_adapter@D@__crt_stdio_output@@V?$positional_parameter_base@DV?$string_output_adapter@D@__crt_stdio_output@@@2@@__crt_stdio_output@@AAE_N_N@Z 1008baf0 f i libucrtd:output.obj
 0002:00034f20       ??$type_case_integer@$09@?$output_processor@DV?$string_output_adapter@D@__crt_stdio_output@@V?$standard_base@DV?$string_output_adapter@D@__crt_stdio_output@@@2@@__crt_stdio_output@@AAE_N_N@Z 1008bf20 f i libucrtd:output.obj
 0002:00035350       ??$type_case_integer@$09@?$output_processor@_WV?$stream_output_adapter@_W@__crt_stdio_output@@V?$format_validation_base@_WV?$stream_output_adapter@_W@__crt_stdio_output@@@2@@__crt_stdio_output@@AAE_N_N@Z 1008c350 f i libucrtd:output.obj
 0002:00035790       ??$type_case_integer@$09@?$output_processor@_WV?$stream_output_adapter@_W@__crt_stdio_output@@V?$positional_parameter_base@_WV?$stream_output_adapter@_W@__crt_stdio_output@@@2@@__crt_stdio_output@@AAE_N_N@Z 1008c790 f i libucrtd:output.obj
 0002:00035bd0       ??$type_case_integer@$09@?$output_processor@_WV?$stream_output_adapter@_W@__crt_stdio_output@@V?$standard_base@_WV?$stream_output_adapter@_W@__crt_stdio_output@@@2@@__crt_stdio_output@@AAE_N_N@Z 1008cbd0 f i libucrtd:output.obj
 0002:00036010       ??$type_case_integer@$09@?$output_processor@_WV?$string_output_adapter@_W@__crt_stdio_output@@V?$format_validation_base@_WV?$string_output_adapter@_W@__crt_stdio_output@@@2@@__crt_stdio_output@@AAE_N_N@Z 1008d010 f i libucrtd:output.obj
 0002:00036450       ??$type_case_integer@$09@?$output_processor@_WV?$string_output_adapter@_W@__crt_stdio_output@@V?$positional_parameter_base@_WV?$string_output_adapter@_W@__crt_stdio_output@@@2@@__crt_stdio_output@@AAE_N_N@Z 1008d450 f i libucrtd:output.obj
 0002:00036890       ??$type_case_integer@$09@?$output_processor@_WV?$string_output_adapter@_W@__crt_stdio_output@@V?$standard_base@_WV?$string_output_adapter@_W@__crt_stdio_output@@@2@@__crt_stdio_output@@AAE_N_N@Z 1008d890 f i libucrtd:output.obj
 0002:00036cd0       ??$type_case_integer@$0BA@@?$output_processor@DV?$stream_output_adapter@D@__crt_stdio_output@@V?$format_validation_base@DV?$stream_output_adapter@D@__crt_stdio_output@@@2@@__crt_stdio_output@@AAE_N_N@Z 1008dcd0 f i libucrtd:output.obj
 0002:00037100       ??$type_case_integer@$0BA@@?$output_processor@DV?$stream_output_adapter@D@__crt_stdio_output@@V?$positional_parameter_base@DV?$stream_output_adapter@D@__crt_stdio_output@@@2@@__crt_stdio_output@@AAE_N_N@Z 1008e100 f i libucrtd:output.obj
 0002:00037530       ??$type_case_integer@$0BA@@?$output_processor@DV?$stream_output_adapter@D@__crt_stdio_output@@V?$standard_base@DV?$stream_output_adapter@D@__crt_stdio_output@@@2@@__crt_stdio_output@@AAE_N_N@Z 1008e530 f i libucrtd:output.obj
 0002:00037960       ??$type_case_integer@$0BA@@?$output_processor@DV?$string_output_adapter@D@__crt_stdio_output@@V?$format_validation_base@DV?$string_output_adapter@D@__crt_stdio_output@@@2@@__crt_stdio_output@@AAE_N_N@Z 1008e960 f i libucrtd:output.obj
 0002:00037d90       ??$type_case_integer@$0BA@@?$output_processor@DV?$string_output_adapter@D@__crt_stdio_output@@V?$positional_parameter_base@DV?$string_output_adapter@D@__crt_stdio_output@@@2@@__crt_stdio_output@@AAE_N_N@Z 1008ed90 f i libucrtd:output.obj
 0002:000381c0       ??$type_case_integer@$0BA@@?$output_processor@DV?$string_output_adapter@D@__crt_stdio_output@@V?$standard_base@DV?$string_output_adapter@D@__crt_stdio_output@@@2@@__crt_stdio_output@@AAE_N_N@Z 1008f1c0 f i libucrtd:output.obj
 0002:000385f0       ??$type_case_integer@$0BA@@?$output_processor@_WV?$stream_output_adapter@_W@__crt_stdio_output@@V?$format_validation_base@_WV?$stream_output_adapter@_W@__crt_stdio_output@@@2@@__crt_stdio_output@@AAE_N_N@Z 1008f5f0 f i libucrtd:output.obj
 0002:00038a30       ??$type_case_integer@$0BA@@?$output_processor@_WV?$stream_output_adapter@_W@__crt_stdio_output@@V?$positional_parameter_base@_WV?$stream_output_adapter@_W@__crt_stdio_output@@@2@@__crt_stdio_output@@AAE_N_N@Z 1008fa30 f i libucrtd:output.obj
 0002:00038e70       ??$type_case_integer@$0BA@@?$output_processor@_WV?$stream_output_adapter@_W@__crt_stdio_output@@V?$standard_base@_WV?$stream_output_adapter@_W@__crt_stdio_output@@@2@@__crt_stdio_output@@AAE_N_N@Z 1008fe70 f i libucrtd:output.obj
 0002:000392b0       ??$type_case_integer@$0BA@@?$output_processor@_WV?$string_output_adapter@_W@__crt_stdio_output@@V?$format_validation_base@_WV?$string_output_adapter@_W@__crt_stdio_output@@@2@@__crt_stdio_output@@AAE_N_N@Z 100902b0 f i libucrtd:output.obj
 0002:000396f0       ??$type_case_integer@$0BA@@?$output_processor@_WV?$string_output_adapter@_W@__crt_stdio_output@@V?$positional_parameter_base@_WV?$string_output_adapter@_W@__crt_stdio_output@@@2@@__crt_stdio_output@@AAE_N_N@Z 100906f0 f i libucrtd:output.obj
 0002:00039b30       ??$type_case_integer@$0BA@@?$output_processor@_WV?$string_output_adapter@_W@__crt_stdio_output@@V?$standard_base@_WV?$string_output_adapter@_W@__crt_stdio_output@@@2@@__crt_stdio_output@@AAE_N_N@Z 10090b30 f i libucrtd:output.obj
 0002:00039f70       ??$type_case_integer_parse_into_buffer@I$07@?$output_processor@DV?$stream_output_adapter@D@__crt_stdio_output@@V?$format_validation_base@DV?$stream_output_adapter@D@__crt_stdio_output@@@2@@__crt_stdio_output@@AAEXI_N@Z 10090f70 f i libucrtd:output.obj
 0002:0003a080       ??$type_case_integer_parse_into_buffer@I$07@?$output_processor@DV?$stream_output_adapter@D@__crt_stdio_output@@V?$positional_parameter_base@DV?$stream_output_adapter@D@__crt_stdio_output@@@2@@__crt_stdio_output@@AAEXI_N@Z 10091080 f i libucrtd:output.obj
 0002:0003a190       ??$type_case_integer_parse_into_buffer@I$07@?$output_processor@DV?$stream_output_adapter@D@__crt_stdio_output@@V?$standard_base@DV?$stream_output_adapter@D@__crt_stdio_output@@@2@@__crt_stdio_output@@AAEXI_N@Z 10091190 f i libucrtd:output.obj
 0002:0003a2a0       ??$type_case_integer_parse_into_buffer@I$07@?$output_processor@DV?$string_output_adapter@D@__crt_stdio_output@@V?$format_validation_base@DV?$string_output_adapter@D@__crt_stdio_output@@@2@@__crt_stdio_output@@AAEXI_N@Z 100912a0 f i libucrtd:output.obj
 0002:0003a3b0       ??$type_case_integer_parse_into_buffer@I$07@?$output_processor@DV?$string_output_adapter@D@__crt_stdio_output@@V?$positional_parameter_base@DV?$string_output_adapter@D@__crt_stdio_output@@@2@@__crt_stdio_output@@AAEXI_N@Z 100913b0 f i libucrtd:output.obj
 0002:0003a4c0       ??$type_case_integer_parse_into_buffer@I$07@?$output_processor@DV?$string_output_adapter@D@__crt_stdio_output@@V?$standard_base@DV?$string_output_adapter@D@__crt_stdio_output@@@2@@__crt_stdio_output@@AAEXI_N@Z 100914c0 f i libucrtd:output.obj
 0002:0003a5d0       ??$type_case_integer_parse_into_buffer@I$07@?$output_processor@_WV?$stream_output_adapter@_W@__crt_stdio_output@@V?$format_validation_base@_WV?$stream_output_adapter@_W@__crt_stdio_output@@@2@@__crt_stdio_output@@AAEXI_N@Z 100915d0 f i libucrtd:output.obj
 0002:0003a6e0       ??$type_case_integer_parse_into_buffer@I$07@?$output_processor@_WV?$stream_output_adapter@_W@__crt_stdio_output@@V?$positional_parameter_base@_WV?$stream_output_adapter@_W@__crt_stdio_output@@@2@@__crt_stdio_output@@AAEXI_N@Z 100916e0 f i libucrtd:output.obj
 0002:0003a7f0       ??$type_case_integer_parse_into_buffer@I$07@?$output_processor@_WV?$stream_output_adapter@_W@__crt_stdio_output@@V?$standard_base@_WV?$stream_output_adapter@_W@__crt_stdio_output@@@2@@__crt_stdio_output@@AAEXI_N@Z 100917f0 f i libucrtd:output.obj
 0002:0003a900       ??$type_case_integer_parse_into_buffer@I$07@?$output_processor@_WV?$string_output_adapter@_W@__crt_stdio_output@@V?$format_validation_base@_WV?$string_output_adapter@_W@__crt_stdio_output@@@2@@__crt_stdio_output@@AAEXI_N@Z 10091900 f i libucrtd:output.obj
 0002:0003aa10       ??$type_case_integer_parse_into_buffer@I$07@?$output_processor@_WV?$string_output_adapter@_W@__crt_stdio_output@@V?$positional_parameter_base@_WV?$string_output_adapter@_W@__crt_stdio_output@@@2@@__crt_stdio_output@@AAEXI_N@Z 10091a10 f i libucrtd:output.obj
 0002:0003ab20       ??$type_case_integer_parse_into_buffer@I$07@?$output_processor@_WV?$string_output_adapter@_W@__crt_stdio_output@@V?$standard_base@_WV?$string_output_adapter@_W@__crt_stdio_output@@@2@@__crt_stdio_output@@AAEXI_N@Z 10091b20 f i libucrtd:output.obj
 0002:0003ac30       ??$type_case_integer_parse_into_buffer@I$09@?$output_processor@DV?$stream_output_adapter@D@__crt_stdio_output@@V?$format_validation_base@DV?$stream_output_adapter@D@__crt_stdio_output@@@2@@__crt_stdio_output@@AAEXI_N@Z 10091c30 f i libucrtd:output.obj
 0002:0003ad40       ??$type_case_integer_parse_into_buffer@I$09@?$output_processor@DV?$stream_output_adapter@D@__crt_stdio_output@@V?$positional_parameter_base@DV?$stream_output_adapter@D@__crt_stdio_output@@@2@@__crt_stdio_output@@AAEXI_N@Z 10091d40 f i libucrtd:output.obj
 0002:0003ae50       ??$type_case_integer_parse_into_buffer@I$09@?$output_processor@DV?$stream_output_adapter@D@__crt_stdio_output@@V?$standard_base@DV?$stream_output_adapter@D@__crt_stdio_output@@@2@@__crt_stdio_output@@AAEXI_N@Z 10091e50 f i libucrtd:output.obj
 0002:0003af60       ??$type_case_integer_parse_into_buffer@I$09@?$output_processor@DV?$string_output_adapter@D@__crt_stdio_output@@V?$format_validation_base@DV?$string_output_adapter@D@__crt_stdio_output@@@2@@__crt_stdio_output@@AAEXI_N@Z 10091f60 f i libucrtd:output.obj
 0002:0003b070       ??$type_case_integer_parse_into_buffer@I$09@?$output_processor@DV?$string_output_adapter@D@__crt_stdio_output@@V?$positional_parameter_base@DV?$string_output_adapter@D@__crt_stdio_output@@@2@@__crt_stdio_output@@AAEXI_N@Z 10092070 f i libucrtd:output.obj
 0002:0003b180       ??$type_case_integer_parse_into_buffer@I$09@?$output_processor@DV?$string_output_adapter@D@__crt_stdio_output@@V?$standard_base@DV?$string_output_adapter@D@__crt_stdio_output@@@2@@__crt_stdio_output@@AAEXI_N@Z 10092180 f i libucrtd:output.obj
 0002:0003b290       ??$type_case_integer_parse_into_buffer@I$09@?$output_processor@_WV?$stream_output_adapter@_W@__crt_stdio_output@@V?$format_validation_base@_WV?$stream_output_adapter@_W@__crt_stdio_output@@@2@@__crt_stdio_output@@AAEXI_N@Z 10092290 f i libucrtd:output.obj
 0002:0003b3b0       ??$type_case_integer_parse_into_buffer@I$09@?$output_processor@_WV?$stream_output_adapter@_W@__crt_stdio_output@@V?$positional_parameter_base@_WV?$stream_output_adapter@_W@__crt_stdio_output@@@2@@__crt_stdio_output@@AAEXI_N@Z 100923b0 f i libucrtd:output.obj
 0002:0003b4d0       ??$type_case_integer_parse_into_buffer@I$09@?$output_processor@_WV?$stream_output_adapter@_W@__crt_stdio_output@@V?$standard_base@_WV?$stream_output_adapter@_W@__crt_stdio_output@@@2@@__crt_stdio_output@@AAEXI_N@Z 100924d0 f i libucrtd:output.obj
 0002:0003b5f0       ??$type_case_integer_parse_into_buffer@I$09@?$output_processor@_WV?$string_output_adapter@_W@__crt_stdio_output@@V?$format_validation_base@_WV?$string_output_adapter@_W@__crt_stdio_output@@@2@@__crt_stdio_output@@AAEXI_N@Z 100925f0 f i libucrtd:output.obj
 0002:0003b710       ??$type_case_integer_parse_into_buffer@I$09@?$output_processor@_WV?$string_output_adapter@_W@__crt_stdio_output@@V?$positional_parameter_base@_WV?$string_output_adapter@_W@__crt_stdio_output@@@2@@__crt_stdio_output@@AAEXI_N@Z 10092710 f i libucrtd:output.obj
 0002:0003b830       ??$type_case_integer_parse_into_buffer@I$09@?$output_processor@_WV?$string_output_adapter@_W@__crt_stdio_output@@V?$standard_base@_WV?$string_output_adapter@_W@__crt_stdio_output@@@2@@__crt_stdio_output@@AAEXI_N@Z 10092830 f i libucrtd:output.obj
 0002:0003b950       ??$type_case_integer_parse_into_buffer@I$0BA@@?$output_processor@DV?$stream_output_adapter@D@__crt_stdio_output@@V?$format_validation_base@DV?$stream_output_adapter@D@__crt_stdio_output@@@2@@__crt_stdio_output@@AAEXI_N@Z 10092950 f i libucrtd:output.obj
 0002:0003ba60       ??$type_case_integer_parse_into_buffer@I$0BA@@?$output_processor@DV?$stream_output_adapter@D@__crt_stdio_output@@V?$positional_parameter_base@DV?$stream_output_adapter@D@__crt_stdio_output@@@2@@__crt_stdio_output@@AAEXI_N@Z 10092a60 f i libucrtd:output.obj
 0002:0003bb70       ??$type_case_integer_parse_into_buffer@I$0BA@@?$output_processor@DV?$stream_output_adapter@D@__crt_stdio_output@@V?$standard_base@DV?$stream_output_adapter@D@__crt_stdio_output@@@2@@__crt_stdio_output@@AAEXI_N@Z 10092b70 f i libucrtd:output.obj
 0002:0003bc80       ??$type_case_integer_parse_into_buffer@I$0BA@@?$output_processor@DV?$string_output_adapter@D@__crt_stdio_output@@V?$format_validation_base@DV?$string_output_adapter@D@__crt_stdio_output@@@2@@__crt_stdio_output@@AAEXI_N@Z 10092c80 f i libucrtd:output.obj
 0002:0003bd90       ??$type_case_integer_parse_into_buffer@I$0BA@@?$output_processor@DV?$string_output_adapter@D@__crt_stdio_output@@V?$positional_parameter_base@DV?$string_output_adapter@D@__crt_stdio_output@@@2@@__crt_stdio_output@@AAEXI_N@Z 10092d90 f i libucrtd:output.obj
 0002:0003bea0       ??$type_case_integer_parse_into_buffer@I$0BA@@?$output_processor@DV?$string_output_adapter@D@__crt_stdio_output@@V?$standard_base@DV?$string_output_adapter@D@__crt_stdio_output@@@2@@__crt_stdio_output@@AAEXI_N@Z 10092ea0 f i libucrtd:output.obj
 0002:0003bfb0       ??$type_case_integer_parse_into_buffer@I$0BA@@?$output_processor@_WV?$stream_output_adapter@_W@__crt_stdio_output@@V?$format_validation_base@_WV?$stream_output_adapter@_W@__crt_stdio_output@@@2@@__crt_stdio_output@@AAEXI_N@Z 10092fb0 f i libucrtd:output.obj
 0002:0003c0c0       ??$type_case_integer_parse_into_buffer@I$0BA@@?$output_processor@_WV?$stream_output_adapter@_W@__crt_stdio_output@@V?$positional_parameter_base@_WV?$stream_output_adapter@_W@__crt_stdio_output@@@2@@__crt_stdio_output@@AAEXI_N@Z 100930c0 f i libucrtd:output.obj
 0002:0003c1d0       ??$type_case_integer_parse_into_buffer@I$0BA@@?$output_processor@_WV?$stream_output_adapter@_W@__crt_stdio_output@@V?$standard_base@_WV?$stream_output_adapter@_W@__crt_stdio_output@@@2@@__crt_stdio_output@@AAEXI_N@Z 100931d0 f i libucrtd:output.obj
 0002:0003c2e0       ??$type_case_integer_parse_into_buffer@I$0BA@@?$output_processor@_WV?$string_output_adapter@_W@__crt_stdio_output@@V?$format_validation_base@_WV?$string_output_adapter@_W@__crt_stdio_output@@@2@@__crt_stdio_output@@AAEXI_N@Z 100932e0 f i libucrtd:output.obj
 0002:0003c3f0       ??$type_case_integer_parse_into_buffer@I$0BA@@?$output_processor@_WV?$string_output_adapter@_W@__crt_stdio_output@@V?$positional_parameter_base@_WV?$string_output_adapter@_W@__crt_stdio_output@@@2@@__crt_stdio_output@@AAEXI_N@Z 100933f0 f i libucrtd:output.obj
 0002:0003c500       ??$type_case_integer_parse_into_buffer@I$0BA@@?$output_processor@_WV?$string_output_adapter@_W@__crt_stdio_output@@V?$standard_base@_WV?$string_output_adapter@_W@__crt_stdio_output@@@2@@__crt_stdio_output@@AAEXI_N@Z 10093500 f i libucrtd:output.obj
 0002:0003c610       ??$type_case_integer_parse_into_buffer@_K$07@?$output_processor@DV?$stream_output_adapter@D@__crt_stdio_output@@V?$format_validation_base@DV?$stream_output_adapter@D@__crt_stdio_output@@@2@@__crt_stdio_output@@AAEX_K_N@Z 10093610 f i libucrtd:output.obj
 0002:0003c740       ??$type_case_integer_parse_into_buffer@_K$07@?$output_processor@DV?$stream_output_adapter@D@__crt_stdio_output@@V?$positional_parameter_base@DV?$stream_output_adapter@D@__crt_stdio_output@@@2@@__crt_stdio_output@@AAEX_K_N@Z 10093740 f i libucrtd:output.obj
 0002:0003c870       ??$type_case_integer_parse_into_buffer@_K$07@?$output_processor@DV?$stream_output_adapter@D@__crt_stdio_output@@V?$standard_base@DV?$stream_output_adapter@D@__crt_stdio_output@@@2@@__crt_stdio_output@@AAEX_K_N@Z 10093870 f i libucrtd:output.obj
 0002:0003c9a0       ??$type_case_integer_parse_into_buffer@_K$07@?$output_processor@DV?$string_output_adapter@D@__crt_stdio_output@@V?$format_validation_base@DV?$string_output_adapter@D@__crt_stdio_output@@@2@@__crt_stdio_output@@AAEX_K_N@Z 100939a0 f i libucrtd:output.obj
 0002:0003cad0       ??$type_case_integer_parse_into_buffer@_K$07@?$output_processor@DV?$string_output_adapter@D@__crt_stdio_output@@V?$positional_parameter_base@DV?$string_output_adapter@D@__crt_stdio_output@@@2@@__crt_stdio_output@@AAEX_K_N@Z 10093ad0 f i libucrtd:output.obj
 0002:0003cc00       ??$type_case_integer_parse_into_buffer@_K$07@?$output_processor@DV?$string_output_adapter@D@__crt_stdio_output@@V?$standard_base@DV?$string_output_adapter@D@__crt_stdio_output@@@2@@__crt_stdio_output@@AAEX_K_N@Z 10093c00 f i libucrtd:output.obj
 0002:0003cd30       ??$type_case_integer_parse_into_buffer@_K$07@?$output_processor@_WV?$stream_output_adapter@_W@__crt_stdio_output@@V?$format_validation_base@_WV?$stream_output_adapter@_W@__crt_stdio_output@@@2@@__crt_stdio_output@@AAEX_K_N@Z 10093d30 f i libucrtd:output.obj
 0002:0003ce60       ??$type_case_integer_parse_into_buffer@_K$07@?$output_processor@_WV?$stream_output_adapter@_W@__crt_stdio_output@@V?$positional_parameter_base@_WV?$stream_output_adapter@_W@__crt_stdio_output@@@2@@__crt_stdio_output@@AAEX_K_N@Z 10093e60 f i libucrtd:output.obj
 0002:0003cf90       ??$type_case_integer_parse_into_buffer@_K$07@?$output_processor@_WV?$stream_output_adapter@_W@__crt_stdio_output@@V?$standard_base@_WV?$stream_output_adapter@_W@__crt_stdio_output@@@2@@__crt_stdio_output@@AAEX_K_N@Z 10093f90 f i libucrtd:output.obj
 0002:0003d0c0       ??$type_case_integer_parse_into_buffer@_K$07@?$output_processor@_WV?$string_output_adapter@_W@__crt_stdio_output@@V?$format_validation_base@_WV?$string_output_adapter@_W@__crt_stdio_output@@@2@@__crt_stdio_output@@AAEX_K_N@Z 100940c0 f i libucrtd:output.obj
 0002:0003d1f0       ??$type_case_integer_parse_into_buffer@_K$07@?$output_processor@_WV?$string_output_adapter@_W@__crt_stdio_output@@V?$positional_parameter_base@_WV?$string_output_adapter@_W@__crt_stdio_output@@@2@@__crt_stdio_output@@AAEX_K_N@Z 100941f0 f i libucrtd:output.obj
 0002:0003d320       ??$type_case_integer_parse_into_buffer@_K$07@?$output_processor@_WV?$string_output_adapter@_W@__crt_stdio_output@@V?$standard_base@_WV?$string_output_adapter@_W@__crt_stdio_output@@@2@@__crt_stdio_output@@AAEX_K_N@Z 10094320 f i libucrtd:output.obj
 0002:0003d450       ??$type_case_integer_parse_into_buffer@_K$09@?$output_processor@DV?$stream_output_adapter@D@__crt_stdio_output@@V?$format_validation_base@DV?$stream_output_adapter@D@__crt_stdio_output@@@2@@__crt_stdio_output@@AAEX_K_N@Z 10094450 f i libucrtd:output.obj
 0002:0003d580       ??$type_case_integer_parse_into_buffer@_K$09@?$output_processor@DV?$stream_output_adapter@D@__crt_stdio_output@@V?$positional_parameter_base@DV?$stream_output_adapter@D@__crt_stdio_output@@@2@@__crt_stdio_output@@AAEX_K_N@Z 10094580 f i libucrtd:output.obj
 0002:0003d6b0       ??$type_case_integer_parse_into_buffer@_K$09@?$output_processor@DV?$stream_output_adapter@D@__crt_stdio_output@@V?$standard_base@DV?$stream_output_adapter@D@__crt_stdio_output@@@2@@__crt_stdio_output@@AAEX_K_N@Z 100946b0 f i libucrtd:output.obj
 0002:0003d7e0       ??$type_case_integer_parse_into_buffer@_K$09@?$output_processor@DV?$string_output_adapter@D@__crt_stdio_output@@V?$format_validation_base@DV?$string_output_adapter@D@__crt_stdio_output@@@2@@__crt_stdio_output@@AAEX_K_N@Z 100947e0 f i libucrtd:output.obj
 0002:0003d910       ??$type_case_integer_parse_into_buffer@_K$09@?$output_processor@DV?$string_output_adapter@D@__crt_stdio_output@@V?$positional_parameter_base@DV?$string_output_adapter@D@__crt_stdio_output@@@2@@__crt_stdio_output@@AAEX_K_N@Z 10094910 f i libucrtd:output.obj
 0002:0003da40       ??$type_case_integer_parse_into_buffer@_K$09@?$output_processor@DV?$string_output_adapter@D@__crt_stdio_output@@V?$standard_base@DV?$string_output_adapter@D@__crt_stdio_output@@@2@@__crt_stdio_output@@AAEX_K_N@Z 10094a40 f i libucrtd:output.obj
 0002:0003db70       ??$type_case_integer_parse_into_buffer@_K$09@?$output_processor@_WV?$stream_output_adapter@_W@__crt_stdio_output@@V?$format_validation_base@_WV?$stream_output_adapter@_W@__crt_stdio_output@@@2@@__crt_stdio_output@@AAEX_K_N@Z 10094b70 f i libucrtd:output.obj
 0002:0003dca0       ??$type_case_integer_parse_into_buffer@_K$09@?$output_processor@_WV?$stream_output_adapter@_W@__crt_stdio_output@@V?$positional_parameter_base@_WV?$stream_output_adapter@_W@__crt_stdio_output@@@2@@__crt_stdio_output@@AAEX_K_N@Z 10094ca0 f i libucrtd:output.obj
 0002:0003ddd0       ??$type_case_integer_parse_into_buffer@_K$09@?$output_processor@_WV?$stream_output_adapter@_W@__crt_stdio_output@@V?$standard_base@_WV?$stream_output_adapter@_W@__crt_stdio_output@@@2@@__crt_stdio_output@@AAEX_K_N@Z 10094dd0 f i libucrtd:output.obj
 0002:0003df00       ??$type_case_integer_parse_into_buffer@_K$09@?$output_processor@_WV?$string_output_adapter@_W@__crt_stdio_output@@V?$format_validation_base@_WV?$string_output_adapter@_W@__crt_stdio_output@@@2@@__crt_stdio_output@@AAEX_K_N@Z 10094f00 f i libucrtd:output.obj
 0002:0003e030       ??$type_case_integer_parse_into_buffer@_K$09@?$output_processor@_WV?$string_output_adapter@_W@__crt_stdio_output@@V?$positional_parameter_base@_WV?$string_output_adapter@_W@__crt_stdio_output@@@2@@__crt_stdio_output@@AAEX_K_N@Z 10095030 f i libucrtd:output.obj
 0002:0003e160       ??$type_case_integer_parse_into_buffer@_K$09@?$output_processor@_WV?$string_output_adapter@_W@__crt_stdio_output@@V?$standard_base@_WV?$string_output_adapter@_W@__crt_stdio_output@@@2@@__crt_stdio_output@@AAEX_K_N@Z 10095160 f i libucrtd:output.obj
 0002:0003e290       ??$type_case_integer_parse_into_buffer@_K$0BA@@?$output_processor@DV?$stream_output_adapter@D@__crt_stdio_output@@V?$format_validation_base@DV?$stream_output_adapter@D@__crt_stdio_output@@@2@@__crt_stdio_output@@AAEX_K_N@Z 10095290 f i libucrtd:output.obj
 0002:0003e3c0       ??$type_case_integer_parse_into_buffer@_K$0BA@@?$output_processor@DV?$stream_output_adapter@D@__crt_stdio_output@@V?$positional_parameter_base@DV?$stream_output_adapter@D@__crt_stdio_output@@@2@@__crt_stdio_output@@AAEX_K_N@Z 100953c0 f i libucrtd:output.obj
 0002:0003e4f0       ??$type_case_integer_parse_into_buffer@_K$0BA@@?$output_processor@DV?$stream_output_adapter@D@__crt_stdio_output@@V?$standard_base@DV?$stream_output_adapter@D@__crt_stdio_output@@@2@@__crt_stdio_output@@AAEX_K_N@Z 100954f0 f i libucrtd:output.obj
 0002:0003e620       ??$type_case_integer_parse_into_buffer@_K$0BA@@?$output_processor@DV?$string_output_adapter@D@__crt_stdio_output@@V?$format_validation_base@DV?$string_output_adapter@D@__crt_stdio_output@@@2@@__crt_stdio_output@@AAEX_K_N@Z 10095620 f i libucrtd:output.obj
 0002:0003e750       ??$type_case_integer_parse_into_buffer@_K$0BA@@?$output_processor@DV?$string_output_adapter@D@__crt_stdio_output@@V?$positional_parameter_base@DV?$string_output_adapter@D@__crt_stdio_output@@@2@@__crt_stdio_output@@AAEX_K_N@Z 10095750 f i libucrtd:output.obj
 0002:0003e880       ??$type_case_integer_parse_into_buffer@_K$0BA@@?$output_processor@DV?$string_output_adapter@D@__crt_stdio_output@@V?$standard_base@DV?$string_output_adapter@D@__crt_stdio_output@@@2@@__crt_stdio_output@@AAEX_K_N@Z 10095880 f i libucrtd:output.obj
 0002:0003e9b0       ??$type_case_integer_parse_into_buffer@_K$0BA@@?$output_processor@_WV?$stream_output_adapter@_W@__crt_stdio_output@@V?$format_validation_base@_WV?$stream_output_adapter@_W@__crt_stdio_output@@@2@@__crt_stdio_output@@AAEX_K_N@Z 100959b0 f i libucrtd:output.obj
 0002:0003eae0       ??$type_case_integer_parse_into_buffer@_K$0BA@@?$output_processor@_WV?$stream_output_adapter@_W@__crt_stdio_output@@V?$positional_parameter_base@_WV?$stream_output_adapter@_W@__crt_stdio_output@@@2@@__crt_stdio_output@@AAEX_K_N@Z 10095ae0 f i libucrtd:output.obj
 0002:0003ec10       ??$type_case_integer_parse_into_buffer@_K$0BA@@?$output_processor@_WV?$stream_output_adapter@_W@__crt_stdio_output@@V?$standard_base@_WV?$stream_output_adapter@_W@__crt_stdio_output@@@2@@__crt_stdio_output@@AAEX_K_N@Z 10095c10 f i libucrtd:output.obj
 0002:0003ed40       ??$type_case_integer_parse_into_buffer@_K$0BA@@?$output_processor@_WV?$string_output_adapter@_W@__crt_stdio_output@@V?$format_validation_base@_WV?$string_output_adapter@_W@__crt_stdio_output@@@2@@__crt_stdio_output@@AAEX_K_N@Z 10095d40 f i libucrtd:output.obj
 0002:0003ee70       ??$type_case_integer_parse_into_buffer@_K$0BA@@?$output_processor@_WV?$string_output_adapter@_W@__crt_stdio_output@@V?$positional_parameter_base@_WV?$string_output_adapter@_W@__crt_stdio_output@@@2@@__crt_stdio_output@@AAEX_K_N@Z 10095e70 f i libucrtd:output.obj
 0002:0003efa0       ??$type_case_integer_parse_into_buffer@_K$0BA@@?$output_processor@_WV?$string_output_adapter@_W@__crt_stdio_output@@V?$standard_base@_WV?$string_output_adapter@_W@__crt_stdio_output@@@2@@__crt_stdio_output@@AAEX_K_N@Z 10095fa0 f i libucrtd:output.obj
 0002:0003f0d0       ??$write_multiple_characters@V?$stream_output_adapter@D@__crt_stdio_output@@D@__crt_stdio_output@@YAXABV?$stream_output_adapter@D@0@DHQAHAAV__crt_cached_ptd_host@@@Z 100960d0 f i libucrtd:output.obj
 0002:0003f130       ??$write_multiple_characters@V?$stream_output_adapter@_W@__crt_stdio_output@@D@__crt_stdio_output@@YAXABV?$stream_output_adapter@_W@0@DHQAHAAV__crt_cached_ptd_host@@@Z 10096130 f i libucrtd:output.obj
 0002:0003f190       ??$write_multiple_characters@V?$string_output_adapter@D@__crt_stdio_output@@D@__crt_stdio_output@@YAXABV?$string_output_adapter@D@0@DHQAHAAV__crt_cached_ptd_host@@@Z 10096190 f i libucrtd:output.obj
 0002:0003f1f0       ??$write_multiple_characters@V?$string_output_adapter@_W@__crt_stdio_output@@D@__crt_stdio_output@@YAXABV?$string_output_adapter@_W@0@DHQAHAAV__crt_cached_ptd_host@@@Z 100961f0 f i libucrtd:output.obj
 0002:0003f670       ??0?$c_string_character_source@D@__crt_strtox@@QAE@QBDQAPBD@Z 10096670 f i libucrtd:output.obj
 0002:0003f6b0       ??0?$c_string_character_source@_W@__crt_strtox@@QAE@QB_WQAPB_W@Z 100966b0 f i libucrtd:output.obj
 0002:0003f6f0       ??0?$cached@H@__crt_cached_ptd_host@@QAE@XZ 100966f0 f i libucrtd:output.obj
 0002:0003f710       ??0?$cached@K@__crt_cached_ptd_host@@QAE@XZ 10096710 f i libucrtd:output.obj
 0002:0003f730       ??0?$common_data@D@__crt_stdio_output@@IAE@AAV__crt_cached_ptd_host@@@Z 10096730 f i libucrtd:output.obj
 0002:0003f7f0       ??0?$common_data@_W@__crt_stdio_output@@IAE@AAV__crt_cached_ptd_host@@@Z 100967f0 f i libucrtd:output.obj
 0002:0003f8b0       ??0?$output_adapter_data@DV?$stream_output_adapter@D@__crt_stdio_output@@@__crt_stdio_output@@IAE@ABV?$stream_output_adapter@D@1@_KQBDAAV__crt_cached_ptd_host@@QAD@Z 100968b0 f i libucrtd:output.obj
 0002:0003f950       ??0?$output_adapter_data@DV?$string_output_adapter@D@__crt_stdio_output@@@__crt_stdio_output@@IAE@ABV?$string_output_adapter@D@1@_KQBDAAV__crt_cached_ptd_host@@QAD@Z 10096950 f i libucrtd:output.obj
 0002:0003f9f0       ??0?$output_adapter_data@_WV?$stream_output_adapter@_W@__crt_stdio_output@@@__crt_stdio_output@@IAE@ABV?$stream_output_adapter@_W@1@_KQB_WAAV__crt_cached_ptd_host@@QAD@Z 100969f0 f i libucrtd:output.obj
 0002:0003fa90       ??0?$output_adapter_data@_WV?$string_output_adapter@_W@__crt_stdio_output@@@__crt_stdio_output@@IAE@ABV?$string_output_adapter@_W@1@_KQB_WAAV__crt_cached_ptd_host@@QAD@Z 10096a90 f i libucrtd:output.obj
 0002:0003fb30       ??0?$output_processor@DV?$stream_output_adapter@D@__crt_stdio_output@@V?$format_validation_base@DV?$stream_output_adapter@D@__crt_stdio_output@@@2@@__crt_stdio_output@@QAE@ABV?$stream_output_adapter@D@1@_KQBDAAV__crt_cached_ptd_host@@QAD@Z 10096b30 f i libucrtd:output.obj
 0002:0003fb70       ??0?$output_processor@DV?$stream_output_adapter@D@__crt_stdio_output@@V?$positional_parameter_base@DV?$stream_output_adapter@D@__crt_stdio_output@@@2@@__crt_stdio_output@@QAE@ABV?$stream_output_adapter@D@1@_KQBDAAV__crt_cached_ptd_host@@QAD@Z 10096b70 f i libucrtd:output.obj
 0002:0003fbb0       ??0?$output_processor@DV?$stream_output_adapter@D@__crt_stdio_output@@V?$standard_base@DV?$stream_output_adapter@D@__crt_stdio_output@@@2@@__crt_stdio_output@@QAE@ABV?$stream_output_adapter@D@1@_KQBDAAV__crt_cached_ptd_host@@QAD@Z 10096bb0 f i libucrtd:output.obj
 0002:0003fbf0       ??0?$output_processor@DV?$string_output_adapter@D@__crt_stdio_output@@V?$format_validation_base@DV?$string_output_adapter@D@__crt_stdio_output@@@2@@__crt_stdio_output@@QAE@ABV?$string_output_adapter@D@1@_KQBDAAV__crt_cached_ptd_host@@QAD@Z 10096bf0 f i libucrtd:output.obj
 0002:0003fc30       ??0?$output_processor@DV?$string_output_adapter@D@__crt_stdio_output@@V?$positional_parameter_base@DV?$string_output_adapter@D@__crt_stdio_output@@@2@@__crt_stdio_output@@QAE@ABV?$string_output_adapter@D@1@_KQBDAAV__crt_cached_ptd_host@@QAD@Z 10096c30 f i libucrtd:output.obj
 0002:0003fc70       ??0?$output_processor@DV?$string_output_adapter@D@__crt_stdio_output@@V?$standard_base@DV?$string_output_adapter@D@__crt_stdio_output@@@2@@__crt_stdio_output@@QAE@ABV?$string_output_adapter@D@1@_KQBDAAV__crt_cached_ptd_host@@QAD@Z 10096c70 f i libucrtd:output.obj
 0002:0003fcb0       ??0?$output_processor@_WV?$stream_output_adapter@_W@__crt_stdio_output@@V?$format_validation_base@_WV?$stream_output_adapter@_W@__crt_stdio_output@@@2@@__crt_stdio_output@@QAE@ABV?$stream_output_adapter@_W@1@_KQB_WAAV__crt_cached_ptd_host@@QAD@Z 10096cb0 f i libucrtd:output.obj
 0002:0003fcf0       ??0?$output_processor@_WV?$stream_output_adapter@_W@__crt_stdio_output@@V?$positional_parameter_base@_WV?$stream_output_adapter@_W@__crt_stdio_output@@@2@@__crt_stdio_output@@QAE@ABV?$stream_output_adapter@_W@1@_KQB_WAAV__crt_cached_ptd_host@@QAD@Z 10096cf0 f i libucrtd:output.obj
 0002:0003fd30       ??0?$output_processor@_WV?$stream_output_adapter@_W@__crt_stdio_output@@V?$standard_base@_WV?$stream_output_adapter@_W@__crt_stdio_output@@@2@@__crt_stdio_output@@QAE@ABV?$stream_output_adapter@_W@1@_KQB_WAAV__crt_cached_ptd_host@@QAD@Z 10096d30 f i libucrtd:output.obj
 0002:0003fd70       ??0?$output_processor@_WV?$string_output_adapter@_W@__crt_stdio_output@@V?$format_validation_base@_WV?$string_output_adapter@_W@__crt_stdio_output@@@2@@__crt_stdio_output@@QAE@ABV?$string_output_adapter@_W@1@_KQB_WAAV__crt_cached_ptd_host@@QAD@Z 10096d70 f i libucrtd:output.obj
 0002:0003fdb0       ??0?$output_processor@_WV?$string_output_adapter@_W@__crt_stdio_output@@V?$positional_parameter_base@_WV?$string_output_adapter@_W@__crt_stdio_output@@@2@@__crt_stdio_output@@QAE@ABV?$string_output_adapter@_W@1@_KQB_WAAV__crt_cached_ptd_host@@QAD@Z 10096db0 f i libucrtd:output.obj
 0002:0003fdf0       ??0?$output_processor@_WV?$string_output_adapter@_W@__crt_stdio_output@@V?$standard_base@_WV?$string_output_adapter@_W@__crt_stdio_output@@@2@@__crt_stdio_output@@QAE@ABV?$string_output_adapter@_W@1@_KQB_WAAV__crt_cached_ptd_host@@QAD@Z 10096df0 f i libucrtd:output.obj
 0002:0003fe30       ??0?$stream_output_adapter@D@__crt_stdio_output@@QAE@QAU_iobuf@@@Z 10096e30 f i libucrtd:output.obj
 0002:0003fe60       ??0?$stream_output_adapter@_W@__crt_stdio_output@@QAE@QAU_iobuf@@@Z 10096e60 f i libucrtd:output.obj
 0002:0003fe90       ??0?$string_output_adapter@D@__crt_stdio_output@@QAE@QAU?$string_output_adapter_context@D@1@@Z 10096e90 f i libucrtd:output.obj
 0002:0003feb0       ??0?$string_output_adapter@_W@__crt_stdio_output@@QAE@QAU?$string_output_adapter_context@_W@1@@Z 10096eb0 f i libucrtd:output.obj
 0002:0003fed0       ??0__acrt_stdio_temporary_buffering_guard@@QAE@QAU_iobuf@@AAV__crt_cached_ptd_host@@@Z 10096ed0 f i libucrtd:output.obj
 0002:0003ff20       ??0__crt_cached_ptd_host@@QAE@QAU__crt_locale_pointers@@@Z 10096f20 f i libucrtd:output.obj
 0002:0003ffd0       ??0__crt_scoped_get_last_error_reset@@QAE@XZ 10096fd0 f i libucrtd:output.obj
 0002:00040000       ??0__crt_stdio_stream@@QAE@QAU_iobuf@@@Z 10097000 f i libucrtd:output.obj
 0002:00040020       ??0formatting_buffer@__crt_stdio_output@@QAE@XZ 10097020 f i libucrtd:output.obj
 0002:00040070       ??0guard@?$cached@H@__crt_cached_ptd_host@@QAE@AAU12@@Z 10097070 f i libucrtd:output.obj
 0002:000400b0       ??1?$c_string_character_source@D@__crt_strtox@@QAE@XZ 100970b0 f i libucrtd:output.obj
 0002:000400e0       ??1?$c_string_character_source@_W@__crt_strtox@@QAE@XZ 100970e0 f i libucrtd:output.obj
 0002:00040110       ??1?$common_data@D@__crt_stdio_output@@QAE@XZ 10097110 f i libucrtd:output.obj
 0002:00040130       ??1?$common_data@_W@__crt_stdio_output@@QAE@XZ 10097130 f i libucrtd:output.obj
 0002:00040150       ??1?$format_validation_base@DV?$stream_output_adapter@D@__crt_stdio_output@@@__crt_stdio_output@@QAE@XZ 10097150 f i libucrtd:output.obj
 0002:00040170       ??1?$format_validation_base@DV?$string_output_adapter@D@__crt_stdio_output@@@__crt_stdio_output@@QAE@XZ 10097170 f i libucrtd:output.obj
 0002:00040190       ??1?$format_validation_base@_WV?$stream_output_adapter@_W@__crt_stdio_output@@@__crt_stdio_output@@QAE@XZ 10097190 f i libucrtd:output.obj
 0002:000401b0       ??1?$format_validation_base@_WV?$string_output_adapter@_W@__crt_stdio_output@@@__crt_stdio_output@@QAE@XZ 100971b0 f i libucrtd:output.obj
 0002:000401d0       ??1?$output_adapter_data@DV?$stream_output_adapter@D@__crt_stdio_output@@@__crt_stdio_output@@QAE@XZ 100971d0 f i libucrtd:output.obj
 0002:000401f0       ??1?$output_adapter_data@DV?$string_output_adapter@D@__crt_stdio_output@@@__crt_stdio_output@@QAE@XZ 100971f0 f i libucrtd:output.obj
 0002:00040210       ??1?$output_adapter_data@_WV?$stream_output_adapter@_W@__crt_stdio_output@@@__crt_stdio_output@@QAE@XZ 10097210 f i libucrtd:output.obj
 0002:00040230       ??1?$output_adapter_data@_WV?$string_output_adapter@_W@__crt_stdio_output@@@__crt_stdio_output@@QAE@XZ 10097230 f i libucrtd:output.obj
 0002:00040250       ??1?$output_processor@DV?$stream_output_adapter@D@__crt_stdio_output@@V?$format_validation_base@DV?$stream_output_adapter@D@__crt_stdio_output@@@2@@__crt_stdio_output@@QAE@XZ 10097250 f i libucrtd:output.obj
 0002:00040270       ??1?$output_processor@DV?$stream_output_adapter@D@__crt_stdio_output@@V?$positional_parameter_base@DV?$stream_output_adapter@D@__crt_stdio_output@@@2@@__crt_stdio_output@@QAE@XZ 10097270 f i libucrtd:output.obj
 0002:00040290       ??1?$output_processor@DV?$stream_output_adapter@D@__crt_stdio_output@@V?$standard_base@DV?$stream_output_adapter@D@__crt_stdio_output@@@2@@__crt_stdio_output@@QAE@XZ 10097290 f i libucrtd:output.obj
 0002:000402b0       ??1?$output_processor@DV?$string_output_adapter@D@__crt_stdio_output@@V?$format_validation_base@DV?$string_output_adapter@D@__crt_stdio_output@@@2@@__crt_stdio_output@@QAE@XZ 100972b0 f i libucrtd:output.obj
 0002:000402d0       ??1?$output_processor@DV?$string_output_adapter@D@__crt_stdio_output@@V?$positional_parameter_base@DV?$string_output_adapter@D@__crt_stdio_output@@@2@@__crt_stdio_output@@QAE@XZ 100972d0 f i libucrtd:output.obj
 0002:000402f0       ??1?$output_processor@DV?$string_output_adapter@D@__crt_stdio_output@@V?$standard_base@DV?$string_output_adapter@D@__crt_stdio_output@@@2@@__crt_stdio_output@@QAE@XZ 100972f0 f i libucrtd:output.obj
 0002:00040310       ??1?$output_processor@_WV?$stream_output_adapter@_W@__crt_stdio_output@@V?$format_validation_base@_WV?$stream_output_adapter@_W@__crt_stdio_output@@@2@@__crt_stdio_output@@QAE@XZ 10097310 f i libucrtd:output.obj
 0002:00040330       ??1?$output_processor@_WV?$stream_output_adapter@_W@__crt_stdio_output@@V?$positional_parameter_base@_WV?$stream_output_adapter@_W@__crt_stdio_output@@@2@@__crt_stdio_output@@QAE@XZ 10097330 f i libucrtd:output.obj
 0002:00040350       ??1?$output_processor@_WV?$stream_output_adapter@_W@__crt_stdio_output@@V?$standard_base@_WV?$stream_output_adapter@_W@__crt_stdio_output@@@2@@__crt_stdio_output@@QAE@XZ 10097350 f i libucrtd:output.obj
 0002:00040370       ??1?$output_processor@_WV?$string_output_adapter@_W@__crt_stdio_output@@V?$format_validation_base@_WV?$string_output_adapter@_W@__crt_stdio_output@@@2@@__crt_stdio_output@@QAE@XZ 10097370 f i libucrtd:output.obj
 0002:00040390       ??1?$output_processor@_WV?$string_output_adapter@_W@__crt_stdio_output@@V?$positional_parameter_base@_WV?$string_output_adapter@_W@__crt_stdio_output@@@2@@__crt_stdio_output@@QAE@XZ 10097390 f i libucrtd:output.obj
 0002:000403b0       ??1?$output_processor@_WV?$string_output_adapter@_W@__crt_stdio_output@@V?$standard_base@_WV?$string_output_adapter@_W@__crt_stdio_output@@@2@@__crt_stdio_output@@QAE@XZ 100973b0 f i libucrtd:output.obj
 0002:000403d0       ??1?$positional_parameter_base@DV?$stream_output_adapter@D@__crt_stdio_output@@@__crt_stdio_output@@QAE@XZ 100973d0 f i libucrtd:output.obj
 0002:000403f0       ??1?$positional_parameter_base@DV?$string_output_adapter@D@__crt_stdio_output@@@__crt_stdio_output@@QAE@XZ 100973f0 f i libucrtd:output.obj
 0002:00040410       ??1?$positional_parameter_base@_WV?$stream_output_adapter@_W@__crt_stdio_output@@@__crt_stdio_output@@QAE@XZ 10097410 f i libucrtd:output.obj
 0002:00040430       ??1?$positional_parameter_base@_WV?$string_output_adapter@_W@__crt_stdio_output@@@__crt_stdio_output@@QAE@XZ 10097430 f i libucrtd:output.obj
 0002:00040450       ??1?$standard_base@DV?$stream_output_adapter@D@__crt_stdio_output@@@__crt_stdio_output@@QAE@XZ 10097450 f i libucrtd:output.obj
 0002:00040470       ??1?$standard_base@DV?$string_output_adapter@D@__crt_stdio_output@@@__crt_stdio_output@@QAE@XZ 10097470 f i libucrtd:output.obj
 0002:00040490       ??1?$standard_base@_WV?$stream_output_adapter@_W@__crt_stdio_output@@@__crt_stdio_output@@QAE@XZ 10097490 f i libucrtd:output.obj
 0002:000404b0       ??1?$standard_base@_WV?$string_output_adapter@_W@__crt_stdio_output@@@__crt_stdio_output@@QAE@XZ 100974b0 f i libucrtd:output.obj
 0002:000404d0       ??1__acrt_stdio_temporary_buffering_guard@@QAE@XZ 100974d0 f i libucrtd:output.obj
 0002:00040510       ??1__crt_cached_ptd_host@@QAE@XZ 10097510 f i libucrtd:output.obj
 0002:000405c0       ??1__crt_scoped_get_last_error_reset@@QAE@XZ 100975c0 f i libucrtd:output.obj
 0002:000405e0       ??1formatting_buffer@__crt_stdio_output@@QAE@XZ 100975e0 f i libucrtd:output.obj
 0002:00040610       ??1guard@?$cached@H@__crt_cached_ptd_host@@QAE@XZ 10097610 f i libucrtd:output.obj
 0002:00040650       ??4?$__crt_unique_heap_ptr@DU__crt_internal_free_policy@@@@QAEAAV0@$$QAV0@@Z 10097650 f i libucrtd:output.obj
 0002:00040690       ??A?$spectre_mitigated_lookup_table@Ustate_transition_pair@__crt_stdio_output@@$0IA@@__crt_stdio_output@@QBEABUstate_transition_pair@1@I@Z 10097690 f i libucrtd:output.obj
 0002:000406c0       ??C__crt_stdio_stream@@QBEPAU__crt_stdio_stream_data@@XZ 100976c0 f i libucrtd:output.obj
 0002:00041160       ?adjust_hexit@?$output_processor@DV?$stream_output_adapter@D@__crt_stdio_output@@V?$format_validation_base@DV?$stream_output_adapter@D@__crt_stdio_output@@@2@@__crt_stdio_output@@CADH_N@Z 10098160 f i libucrtd:output.obj
 0002:000411b0       ?adjust_hexit@?$output_processor@DV?$stream_output_adapter@D@__crt_stdio_output@@V?$positional_parameter_base@DV?$stream_output_adapter@D@__crt_stdio_output@@@2@@__crt_stdio_output@@CADH_N@Z 100981b0 f i libucrtd:output.obj
 0002:00041200       ?adjust_hexit@?$output_processor@DV?$stream_output_adapter@D@__crt_stdio_output@@V?$standard_base@DV?$stream_output_adapter@D@__crt_stdio_output@@@2@@__crt_stdio_output@@CADH_N@Z 10098200 f i libucrtd:output.obj
 0002:00041250       ?adjust_hexit@?$output_processor@DV?$string_output_adapter@D@__crt_stdio_output@@V?$format_validation_base@DV?$string_output_adapter@D@__crt_stdio_output@@@2@@__crt_stdio_output@@CADH_N@Z 10098250 f i libucrtd:output.obj
 0002:000412a0       ?adjust_hexit@?$output_processor@DV?$string_output_adapter@D@__crt_stdio_output@@V?$positional_parameter_base@DV?$string_output_adapter@D@__crt_stdio_output@@@2@@__crt_stdio_output@@CADH_N@Z 100982a0 f i libucrtd:output.obj
 0002:000412f0       ?adjust_hexit@?$output_processor@DV?$string_output_adapter@D@__crt_stdio_output@@V?$standard_base@DV?$string_output_adapter@D@__crt_stdio_output@@@2@@__crt_stdio_output@@CADH_N@Z 100982f0 f i libucrtd:output.obj
 0002:00041340       ?adjust_hexit@?$output_processor@_WV?$stream_output_adapter@_W@__crt_stdio_output@@V?$format_validation_base@_WV?$stream_output_adapter@_W@__crt_stdio_output@@@2@@__crt_stdio_output@@CADH_N@Z 10098340 f i libucrtd:output.obj
 0002:00041390       ?adjust_hexit@?$output_processor@_WV?$stream_output_adapter@_W@__crt_stdio_output@@V?$positional_parameter_base@_WV?$stream_output_adapter@_W@__crt_stdio_output@@@2@@__crt_stdio_output@@CADH_N@Z 10098390 f i libucrtd:output.obj
 0002:000413e0       ?adjust_hexit@?$output_processor@_WV?$stream_output_adapter@_W@__crt_stdio_output@@V?$standard_base@_WV?$stream_output_adapter@_W@__crt_stdio_output@@@2@@__crt_stdio_output@@CADH_N@Z 100983e0 f i libucrtd:output.obj
 0002:00041430       ?adjust_hexit@?$output_processor@_WV?$string_output_adapter@_W@__crt_stdio_output@@V?$format_validation_base@_WV?$string_output_adapter@_W@__crt_stdio_output@@@2@@__crt_stdio_output@@CADH_N@Z 10098430 f i libucrtd:output.obj
 0002:00041480       ?adjust_hexit@?$output_processor@_WV?$string_output_adapter@_W@__crt_stdio_output@@V?$positional_parameter_base@_WV?$string_output_adapter@_W@__crt_stdio_output@@@2@@__crt_stdio_output@@CADH_N@Z 10098480 f i libucrtd:output.obj
 0002:000414d0       ?adjust_hexit@?$output_processor@_WV?$string_output_adapter@_W@__crt_stdio_output@@V?$standard_base@_WV?$string_output_adapter@_W@__crt_stdio_output@@@2@@__crt_stdio_output@@CADH_N@Z 100984d0 f i libucrtd:output.obj
 0002:00041520       ?advance_to_next_pass@?$positional_parameter_base@DV?$stream_output_adapter@D@__crt_stdio_output@@@__crt_stdio_output@@IAE_NXZ 10098520 f i libucrtd:output.obj
 0002:000415e0       ?advance_to_next_pass@?$positional_parameter_base@DV?$string_output_adapter@D@__crt_stdio_output@@@__crt_stdio_output@@IAE_NXZ 100985e0 f i libucrtd:output.obj
 0002:000416a0       ?advance_to_next_pass@?$positional_parameter_base@_WV?$stream_output_adapter@_W@__crt_stdio_output@@@__crt_stdio_output@@IAE_NXZ 100986a0 f i libucrtd:output.obj
 0002:00041760       ?advance_to_next_pass@?$positional_parameter_base@_WV?$string_output_adapter@_W@__crt_stdio_output@@@__crt_stdio_output@@IAE_NXZ 10098760 f i libucrtd:output.obj
 0002:00041820       ?advance_to_next_pass@?$standard_base@DV?$stream_output_adapter@D@__crt_stdio_output@@@__crt_stdio_output@@IAE_NXZ 10098820 f i libucrtd:output.obj
 0002:00041880       ?advance_to_next_pass@?$standard_base@DV?$string_output_adapter@D@__crt_stdio_output@@@__crt_stdio_output@@IAE_NXZ 10098880 f i libucrtd:output.obj
 0002:000418e0       ?advance_to_next_pass@?$standard_base@_WV?$stream_output_adapter@_W@__crt_stdio_output@@@__crt_stdio_output@@IAE_NXZ 100988e0 f i libucrtd:output.obj
 0002:00041940       ?advance_to_next_pass@?$standard_base@_WV?$string_output_adapter@_W@__crt_stdio_output@@@__crt_stdio_output@@IAE_NXZ 10098940 f i libucrtd:output.obj
 0002:000419a0       ?check@?$cached@H@__crt_cached_ptd_host@@QBE_NH@Z 100989a0 f i libucrtd:output.obj
 0002:000419f0       ?check_synchronize_global_state_index@__crt_cached_ptd_host@@AAEIABV__crt_scoped_get_last_error_reset@@@Z 100989f0 f i libucrtd:output.obj
 0002:00041a30       ?check_synchronize_per_thread_data@__crt_cached_ptd_host@@AAEPAU__acrt_ptd@@XZ 10098a30 f i libucrtd:output.obj
 0002:00041a70       ?create_guard@?$cached@H@__crt_cached_ptd_host@@QAE?AVguard@12@XZ 10098a70 f i libucrtd:output.obj
 0002:00041aa0       ?crop_zeroes@__crt_stdio_output@@YAXPADQAU__crt_locale_pointers@@@Z 10098aa0 f i libucrtd:output.obj
 0002:00041be0       ?disable@guard@?$cached@H@__crt_cached_ptd_host@@QAEXXZ 10098be0 f i libucrtd:output.obj
 0002:00041c00       ?enable@guard@?$cached@H@__crt_cached_ptd_host@@QAEXXZ 10098c00 f i libucrtd:output.obj
 0002:00041c20       ?find_next_state@?$output_processor@DV?$stream_output_adapter@D@__crt_stdio_output@@V?$format_validation_base@DV?$stream_output_adapter@D@__crt_stdio_output@@@2@@__crt_stdio_output@@ABE?AW4state@2@DW432@@Z 10098c20 f i libucrtd:output.obj
 0002:00041cf0       ?find_next_state@?$output_processor@DV?$stream_output_adapter@D@__crt_stdio_output@@V?$positional_parameter_base@DV?$stream_output_adapter@D@__crt_stdio_output@@@2@@__crt_stdio_output@@ABE?AW4state@2@DW432@@Z 10098cf0 f i libucrtd:output.obj
 0002:00041dc0       ?find_next_state@?$output_processor@DV?$stream_output_adapter@D@__crt_stdio_output@@V?$standard_base@DV?$stream_output_adapter@D@__crt_stdio_output@@@2@@__crt_stdio_output@@ABE?AW4state@2@DW432@@Z 10098dc0 f i libucrtd:output.obj
 0002:00041e90       ?find_next_state@?$output_processor@DV?$string_output_adapter@D@__crt_stdio_output@@V?$format_validation_base@DV?$string_output_adapter@D@__crt_stdio_output@@@2@@__crt_stdio_output@@ABE?AW4state@2@DW432@@Z 10098e90 f i libucrtd:output.obj
 0002:00041f60       ?find_next_state@?$output_processor@DV?$string_output_adapter@D@__crt_stdio_output@@V?$positional_parameter_base@DV?$string_output_adapter@D@__crt_stdio_output@@@2@@__crt_stdio_output@@ABE?AW4state@2@DW432@@Z 10098f60 f i libucrtd:output.obj
 0002:00042030       ?find_next_state@?$output_processor@DV?$string_output_adapter@D@__crt_stdio_output@@V?$standard_base@DV?$string_output_adapter@D@__crt_stdio_output@@@2@@__crt_stdio_output@@ABE?AW4state@2@DW432@@Z 10099030 f i libucrtd:output.obj
 0002:00042100       ?find_next_state@?$output_processor@_WV?$stream_output_adapter@_W@__crt_stdio_output@@V?$format_validation_base@_WV?$stream_output_adapter@_W@__crt_stdio_output@@@2@@__crt_stdio_output@@ABE?AW4state@2@_WW432@@Z 10099100 f i libucrtd:output.obj
 0002:000421d0       ?find_next_state@?$output_processor@_WV?$stream_output_adapter@_W@__crt_stdio_output@@V?$positional_parameter_base@_WV?$stream_output_adapter@_W@__crt_stdio_output@@@2@@__crt_stdio_output@@ABE?AW4state@2@_WW432@@Z 100991d0 f i libucrtd:output.obj
 0002:000422a0       ?find_next_state@?$output_processor@_WV?$stream_output_adapter@_W@__crt_stdio_output@@V?$standard_base@_WV?$stream_output_adapter@_W@__crt_stdio_output@@@2@@__crt_stdio_output@@ABE?AW4state@2@_WW432@@Z 100992a0 f i libucrtd:output.obj
 0002:00042370       ?find_next_state@?$output_processor@_WV?$string_output_adapter@_W@__crt_stdio_output@@V?$format_validation_base@_WV?$string_output_adapter@_W@__crt_stdio_output@@@2@@__crt_stdio_output@@ABE?AW4state@2@_WW432@@Z 10099370 f i libucrtd:output.obj
 0002:00042440       ?find_next_state@?$output_processor@_WV?$string_output_adapter@_W@__crt_stdio_output@@V?$positional_parameter_base@_WV?$string_output_adapter@_W@__crt_stdio_output@@@2@@__crt_stdio_output@@ABE?AW4state@2@_WW432@@Z 10099440 f i libucrtd:output.obj
 0002:00042510       ?find_next_state@?$output_processor@_WV?$string_output_adapter@_W@__crt_stdio_output@@V?$standard_base@_WV?$string_output_adapter@_W@__crt_stdio_output@@@2@@__crt_stdio_output@@ABE?AW4state@2@_WW432@@Z 10099510 f i libucrtd:output.obj
 0002:000425e0       ?force_decimal_point@__crt_stdio_output@@YAXPADQAU__crt_locale_pointers@@@Z 100995e0 f i libucrtd:output.obj
 0002:000426e0       ?force_synchronize_global_state_index@__crt_cached_ptd_host@@AAEIABV__crt_scoped_get_last_error_reset@@@Z 100996e0 f i libucrtd:output.obj
 0002:00042720       ?force_synchronize_per_thread_data@__crt_cached_ptd_host@@AAEPAU__acrt_ptd@@XZ 10099720 f i libucrtd:output.obj
 0002:00042780       ?get@?$c_string_character_source@D@__crt_strtox@@QAEDXZ 10099780 f i libucrtd:output.obj
 0002:000427c0       ?get@?$c_string_character_source@_W@__crt_strtox@@QAE_WXZ 100997c0 f i libucrtd:output.obj
 0002:00042800       ?get_current_state_index@__crt_state_management@@YAIABV__crt_scoped_get_last_error_reset@@@Z 10099800 f i libucrtd:output.obj
 0002:00042810       ?get_errno@__crt_cached_ptd_host@@QAE@XZ 10099810 f i libucrtd:output.obj
 0002:00042830       ?get_flags@__crt_stdio_stream@@QBEJXZ 10099830 f i libucrtd:output.obj
 0002:00042860       ?get_locale@__crt_cached_ptd_host@@QAEPAU__crt_locale_pointers@@XZ 10099860 f i libucrtd:output.obj
 0002:00042890       ?get_parameter_type@?$positional_parameter_base@DV?$stream_output_adapter@D@__crt_stdio_output@@@__crt_stdio_output@@CA?AW4parameter_type@12@F@Z 10099890 f i libucrtd:output.obj
 0002:000428a0       ?get_parameter_type@?$positional_parameter_base@DV?$stream_output_adapter@D@__crt_stdio_output@@@__crt_stdio_output@@CA?AW4parameter_type@12@G@Z 100998a0 f i libucrtd:output.obj
 0002:000428b0       ?get_parameter_type@?$positional_parameter_base@DV?$stream_output_adapter@D@__crt_stdio_output@@@__crt_stdio_output@@CA?AW4parameter_type@12@H@Z 100998b0 f i libucrtd:output.obj
 0002:000428c0       ?get_parameter_type@?$positional_parameter_base@DV?$stream_output_adapter@D@__crt_stdio_output@@@__crt_stdio_output@@CA?AW4parameter_type@12@I@Z 100998c0 f i libucrtd:output.obj
 0002:000428d0       ?get_parameter_type@?$positional_parameter_base@DV?$stream_output_adapter@D@__crt_stdio_output@@@__crt_stdio_output@@CA?AW4parameter_type@12@U_CRT_DOUBLE@@@Z 100998d0 f i libucrtd:output.obj
 0002:000428e0       ?get_parameter_type@?$positional_parameter_base@DV?$stream_output_adapter@D@__crt_stdio_output@@@__crt_stdio_output@@CA?AW4parameter_type@12@_J@Z 100998e0 f i libucrtd:output.obj
 0002:000428f0       ?get_parameter_type@?$positional_parameter_base@DV?$stream_output_adapter@D@__crt_stdio_output@@@__crt_stdio_output@@CA?AW4parameter_type@12@_K@Z 100998f0 f i libucrtd:output.obj
 0002:00042900       ?get_parameter_type@?$positional_parameter_base@DV?$stream_output_adapter@D@__crt_stdio_output@@@__crt_stdio_output@@CA?AW4parameter_type@12@_W@Z 10099900 f i libucrtd:output.obj
 0002:00042910       ?get_parameter_type@?$positional_parameter_base@DV?$string_output_adapter@D@__crt_stdio_output@@@__crt_stdio_output@@CA?AW4parameter_type@12@F@Z 10099910 f i libucrtd:output.obj
 0002:00042920       ?get_parameter_type@?$positional_parameter_base@DV?$string_output_adapter@D@__crt_stdio_output@@@__crt_stdio_output@@CA?AW4parameter_type@12@G@Z 10099920 f i libucrtd:output.obj
 0002:00042930       ?get_parameter_type@?$positional_parameter_base@DV?$string_output_adapter@D@__crt_stdio_output@@@__crt_stdio_output@@CA?AW4parameter_type@12@H@Z 10099930 f i libucrtd:output.obj
 0002:00042940       ?get_parameter_type@?$positional_parameter_base@DV?$string_output_adapter@D@__crt_stdio_output@@@__crt_stdio_output@@CA?AW4parameter_type@12@I@Z 10099940 f i libucrtd:output.obj
 0002:00042950       ?get_parameter_type@?$positional_parameter_base@DV?$string_output_adapter@D@__crt_stdio_output@@@__crt_stdio_output@@CA?AW4parameter_type@12@U_CRT_DOUBLE@@@Z 10099950 f i libucrtd:output.obj
 0002:00042960       ?get_parameter_type@?$positional_parameter_base@DV?$string_output_adapter@D@__crt_stdio_output@@@__crt_stdio_output@@CA?AW4parameter_type@12@_J@Z 10099960 f i libucrtd:output.obj
 0002:00042970       ?get_parameter_type@?$positional_parameter_base@DV?$string_output_adapter@D@__crt_stdio_output@@@__crt_stdio_output@@CA?AW4parameter_type@12@_K@Z 10099970 f i libucrtd:output.obj
 0002:00042980       ?get_parameter_type@?$positional_parameter_base@DV?$string_output_adapter@D@__crt_stdio_output@@@__crt_stdio_output@@CA?AW4parameter_type@12@_W@Z 10099980 f i libucrtd:output.obj
 0002:00042990       ?get_parameter_type@?$positional_parameter_base@_WV?$stream_output_adapter@_W@__crt_stdio_output@@@__crt_stdio_output@@CA?AW4parameter_type@12@F@Z 10099990 f i libucrtd:output.obj
 0002:000429a0       ?get_parameter_type@?$positional_parameter_base@_WV?$stream_output_adapter@_W@__crt_stdio_output@@@__crt_stdio_output@@CA?AW4parameter_type@12@G@Z 100999a0 f i libucrtd:output.obj
 0002:000429b0       ?get_parameter_type@?$positional_parameter_base@_WV?$stream_output_adapter@_W@__crt_stdio_output@@@__crt_stdio_output@@CA?AW4parameter_type@12@H@Z 100999b0 f i libucrtd:output.obj
 0002:000429c0       ?get_parameter_type@?$positional_parameter_base@_WV?$stream_output_adapter@_W@__crt_stdio_output@@@__crt_stdio_output@@CA?AW4parameter_type@12@I@Z 100999c0 f i libucrtd:output.obj
 0002:000429d0       ?get_parameter_type@?$positional_parameter_base@_WV?$stream_output_adapter@_W@__crt_stdio_output@@@__crt_stdio_output@@CA?AW4parameter_type@12@U_CRT_DOUBLE@@@Z 100999d0 f i libucrtd:output.obj
 0002:000429e0       ?get_parameter_type@?$positional_parameter_base@_WV?$stream_output_adapter@_W@__crt_stdio_output@@@__crt_stdio_output@@CA?AW4parameter_type@12@_J@Z 100999e0 f i libucrtd:output.obj
 0002:000429f0       ?get_parameter_type@?$positional_parameter_base@_WV?$stream_output_adapter@_W@__crt_stdio_output@@@__crt_stdio_output@@CA?AW4parameter_type@12@_K@Z 100999f0 f i libucrtd:output.obj
 0002:00042a00       ?get_parameter_type@?$positional_parameter_base@_WV?$stream_output_adapter@_W@__crt_stdio_output@@@__crt_stdio_output@@CA?AW4parameter_type@12@_W@Z 10099a00 f i libucrtd:output.obj
 0002:00042a10       ?get_parameter_type@?$positional_parameter_base@_WV?$string_output_adapter@_W@__crt_stdio_output@@@__crt_stdio_output@@CA?AW4parameter_type@12@F@Z 10099a10 f i libucrtd:output.obj
 0002:00042a20       ?get_parameter_type@?$positional_parameter_base@_WV?$string_output_adapter@_W@__crt_stdio_output@@@__crt_stdio_output@@CA?AW4parameter_type@12@G@Z 10099a20 f i libucrtd:output.obj
 0002:00042a30       ?get_parameter_type@?$positional_parameter_base@_WV?$string_output_adapter@_W@__crt_stdio_output@@@__crt_stdio_output@@CA?AW4parameter_type@12@H@Z 10099a30 f i libucrtd:output.obj
 0002:00042a40       ?get_parameter_type@?$positional_parameter_base@_WV?$string_output_adapter@_W@__crt_stdio_output@@@__crt_stdio_output@@CA?AW4parameter_type@12@I@Z 10099a40 f i libucrtd:output.obj
 0002:00042a50       ?get_parameter_type@?$positional_parameter_base@_WV?$string_output_adapter@_W@__crt_stdio_output@@@__crt_stdio_output@@CA?AW4parameter_type@12@U_CRT_DOUBLE@@@Z 10099a50 f i libucrtd:output.obj
 0002:00042a60       ?get_parameter_type@?$positional_parameter_base@_WV?$string_output_adapter@_W@__crt_stdio_output@@@__crt_stdio_output@@CA?AW4parameter_type@12@_J@Z 10099a60 f i libucrtd:output.obj
 0002:00042a70       ?get_parameter_type@?$positional_parameter_base@_WV?$string_output_adapter@_W@__crt_stdio_output@@@__crt_stdio_output@@CA?AW4parameter_type@12@_K@Z 10099a70 f i libucrtd:output.obj
 0002:00042a80       ?get_parameter_type@?$positional_parameter_base@_WV?$string_output_adapter@_W@__crt_stdio_output@@@__crt_stdio_output@@CA?AW4parameter_type@12@_W@Z 10099a80 f i libucrtd:output.obj
 0002:00042a90       ?get_raw_ptd@__crt_cached_ptd_host@@QAEPAU__acrt_ptd@@XZ 10099a90 f i libucrtd:output.obj
 0002:00042ab0       ?has_flag@?$output_processor@DV?$stream_output_adapter@D@__crt_stdio_output@@V?$format_validation_base@DV?$stream_output_adapter@D@__crt_stdio_output@@@2@@__crt_stdio_output@@ABE_NI@Z 10099ab0 f i libucrtd:output.obj
 0002:00042af0       ?has_flag@?$output_processor@DV?$stream_output_adapter@D@__crt_stdio_output@@V?$positional_parameter_base@DV?$stream_output_adapter@D@__crt_stdio_output@@@2@@__crt_stdio_output@@ABE_NI@Z 10099af0 f i libucrtd:output.obj
 0002:00042b30       ?has_flag@?$output_processor@DV?$stream_output_adapter@D@__crt_stdio_output@@V?$standard_base@DV?$stream_output_adapter@D@__crt_stdio_output@@@2@@__crt_stdio_output@@ABE_NI@Z 10099b30 f i libucrtd:output.obj
 0002:00042b70       ?has_flag@?$output_processor@DV?$string_output_adapter@D@__crt_stdio_output@@V?$format_validation_base@DV?$string_output_adapter@D@__crt_stdio_output@@@2@@__crt_stdio_output@@ABE_NI@Z 10099b70 f i libucrtd:output.obj
 0002:00042bb0       ?has_flag@?$output_processor@DV?$string_output_adapter@D@__crt_stdio_output@@V?$positional_parameter_base@DV?$string_output_adapter@D@__crt_stdio_output@@@2@@__crt_stdio_output@@ABE_NI@Z 10099bb0 f i libucrtd:output.obj
 0002:00042bf0       ?has_flag@?$output_processor@DV?$string_output_adapter@D@__crt_stdio_output@@V?$standard_base@DV?$string_output_adapter@D@__crt_stdio_output@@@2@@__crt_stdio_output@@ABE_NI@Z 10099bf0 f i libucrtd:output.obj
 0002:00042c30       ?has_flag@?$output_processor@_WV?$stream_output_adapter@_W@__crt_stdio_output@@V?$format_validation_base@_WV?$stream_output_adapter@_W@__crt_stdio_output@@@2@@__crt_stdio_output@@ABE_NI@Z 10099c30 f i libucrtd:output.obj
 0002:00042c70       ?has_flag@?$output_processor@_WV?$stream_output_adapter@_W@__crt_stdio_output@@V?$positional_parameter_base@_WV?$stream_output_adapter@_W@__crt_stdio_output@@@2@@__crt_stdio_output@@ABE_NI@Z 10099c70 f i libucrtd:output.obj
 0002:00042cb0       ?has_flag@?$output_processor@_WV?$stream_output_adapter@_W@__crt_stdio_output@@V?$standard_base@_WV?$stream_output_adapter@_W@__crt_stdio_output@@@2@@__crt_stdio_output@@ABE_NI@Z 10099cb0 f i libucrtd:output.obj
 0002:00042cf0       ?has_flag@?$output_processor@_WV?$string_output_adapter@_W@__crt_stdio_output@@V?$format_validation_base@_WV?$string_output_adapter@_W@__crt_stdio_output@@@2@@__crt_stdio_output@@ABE_NI@Z 10099cf0 f i libucrtd:output.obj
 0002:00042d30       ?has_flag@?$output_processor@_WV?$string_output_adapter@_W@__crt_stdio_output@@V?$positional_parameter_base@_WV?$string_output_adapter@_W@__crt_stdio_output@@@2@@__crt_stdio_output@@ABE_NI@Z 10099d30 f i libucrtd:output.obj
 0002:00042d70       ?has_flag@?$output_processor@_WV?$string_output_adapter@_W@__crt_stdio_output@@V?$standard_base@_WV?$string_output_adapter@_W@__crt_stdio_output@@@2@@__crt_stdio_output@@ABE_NI@Z 10099d70 f i libucrtd:output.obj
 0002:00042db0       ?is_positional_parameter_reappearance_consistent@?$positional_parameter_base@DV?$stream_output_adapter@D@__crt_stdio_output@@@__crt_stdio_output@@AAE_NABUparameter_data@12@W4parameter_type@12@DW4length_modifier@2@@Z 10099db0 f i libucrtd:output.obj
 0002:00043060       ?is_positional_parameter_reappearance_consistent@?$positional_parameter_base@DV?$string_output_adapter@D@__crt_stdio_output@@@__crt_stdio_output@@AAE_NABUparameter_data@12@W4parameter_type@12@DW4length_modifier@2@@Z 1009a060 f i libucrtd:output.obj
 0002:00043310       ?is_positional_parameter_reappearance_consistent@?$positional_parameter_base@_WV?$stream_output_adapter@_W@__crt_stdio_output@@@__crt_stdio_output@@AAE_NABUparameter_data@12@W4parameter_type@12@_WW4length_modifier@2@@Z 1009a310 f i libucrtd:output.obj
 0002:000435c0       ?is_positional_parameter_reappearance_consistent@?$positional_parameter_base@_WV?$string_output_adapter@_W@__crt_stdio_output@@@__crt_stdio_output@@AAE_NABUparameter_data@12@W4parameter_type@12@_WW4length_modifier@2@@Z 1009a5c0 f i libucrtd:output.obj
 0002:00043870       ?is_string_backed@__crt_stdio_stream@@QBE_NXZ 1009a870 f i libucrtd:output.obj
 0002:000438b0       ?maximum_signed_value@__crt_strtox@@YAJK@Z 1009a8b0 f i libucrtd:output.obj
 0002:000438c0       ?minimum_signed_value@__crt_strtox@@YAJK@Z 1009a8c0 f i libucrtd:output.obj
 0002:000438d0       ?narrow_null_string@?$output_processor@DV?$stream_output_adapter@D@__crt_stdio_output@@V?$format_validation_base@DV?$stream_output_adapter@D@__crt_stdio_output@@@2@@__crt_stdio_output@@CAPADXZ 1009a8d0 f i libucrtd:output.obj
 0002:000438e0       ?narrow_null_string@?$output_processor@DV?$stream_output_adapter@D@__crt_stdio_output@@V?$positional_parameter_base@DV?$stream_output_adapter@D@__crt_stdio_output@@@2@@__crt_stdio_output@@CAPADXZ 1009a8e0 f i libucrtd:output.obj
 0002:000438f0       ?narrow_null_string@?$output_processor@DV?$stream_output_adapter@D@__crt_stdio_output@@V?$standard_base@DV?$stream_output_adapter@D@__crt_stdio_output@@@2@@__crt_stdio_output@@CAPADXZ 1009a8f0 f i libucrtd:output.obj
 0002:00043900       ?narrow_null_string@?$output_processor@DV?$string_output_adapter@D@__crt_stdio_output@@V?$format_validation_base@DV?$string_output_adapter@D@__crt_stdio_output@@@2@@__crt_stdio_output@@CAPADXZ 1009a900 f i libucrtd:output.obj
 0002:00043910       ?narrow_null_string@?$output_processor@DV?$string_output_adapter@D@__crt_stdio_output@@V?$positional_parameter_base@DV?$string_output_adapter@D@__crt_stdio_output@@@2@@__crt_stdio_output@@CAPADXZ 1009a910 f i libucrtd:output.obj
 0002:00043920       ?narrow_null_string@?$output_processor@DV?$string_output_adapter@D@__crt_stdio_output@@V?$standard_base@DV?$string_output_adapter@D@__crt_stdio_output@@@2@@__crt_stdio_output@@CAPADXZ 1009a920 f i libucrtd:output.obj
 0002:00043930       ?narrow_null_string@?$output_processor@_WV?$stream_output_adapter@_W@__crt_stdio_output@@V?$format_validation_base@_WV?$stream_output_adapter@_W@__crt_stdio_output@@@2@@__crt_stdio_output@@CAPADXZ 1009a930 f i libucrtd:output.obj
 0002:00043940       ?narrow_null_string@?$output_processor@_WV?$stream_output_adapter@_W@__crt_stdio_output@@V?$positional_parameter_base@_WV?$stream_output_adapter@_W@__crt_stdio_output@@@2@@__crt_stdio_output@@CAPADXZ 1009a940 f i libucrtd:output.obj
 0002:00043950       ?narrow_null_string@?$output_processor@_WV?$stream_output_adapter@_W@__crt_stdio_output@@V?$standard_base@_WV?$stream_output_adapter@_W@__crt_stdio_output@@@2@@__crt_stdio_output@@CAPADXZ 1009a950 f i libucrtd:output.obj
 0002:00043960       ?narrow_null_string@?$output_processor@_WV?$string_output_adapter@_W@__crt_stdio_output@@V?$format_validation_base@_WV?$string_output_adapter@_W@__crt_stdio_output@@@2@@__crt_stdio_output@@CAPADXZ 1009a960 f i libucrtd:output.obj
 0002:00043970       ?narrow_null_string@?$output_processor@_WV?$string_output_adapter@_W@__crt_stdio_output@@V?$positional_parameter_base@_WV?$string_output_adapter@_W@__crt_stdio_output@@@2@@__crt_stdio_output@@CAPADXZ 1009a970 f i libucrtd:output.obj
 0002:00043980       ?narrow_null_string@?$output_processor@_WV?$string_output_adapter@_W@__crt_stdio_output@@V?$standard_base@_WV?$string_output_adapter@_W@__crt_stdio_output@@@2@@__crt_stdio_output@@CAPADXZ 1009a980 f i libucrtd:output.obj
 0002:00043990       ?parse_digit@__crt_strtox@@YAID@Z 1009a990 f i libucrtd:output.obj
 0002:00043a10       ?parse_digit@__crt_strtox@@YAI_W@Z 1009aa10 f i libucrtd:output.obj
 0002:00043a70       ?parse_int_from_format_string@?$output_processor@DV?$stream_output_adapter@D@__crt_stdio_output@@V?$format_validation_base@DV?$stream_output_adapter@D@__crt_stdio_output@@@2@@__crt_stdio_output@@AAE_NQAH@Z 1009aa70 f i libucrtd:output.obj
 0002:00043b60       ?parse_int_from_format_string@?$output_processor@DV?$stream_output_adapter@D@__crt_stdio_output@@V?$positional_parameter_base@DV?$stream_output_adapter@D@__crt_stdio_output@@@2@@__crt_stdio_output@@AAE_NQAH@Z 1009ab60 f i libucrtd:output.obj
 0002:00043c50       ?parse_int_from_format_string@?$output_processor@DV?$stream_output_adapter@D@__crt_stdio_output@@V?$standard_base@DV?$stream_output_adapter@D@__crt_stdio_output@@@2@@__crt_stdio_output@@AAE_NQAH@Z 1009ac50 f i libucrtd:output.obj
 0002:00043d40       ?parse_int_from_format_string@?$output_processor@DV?$string_output_adapter@D@__crt_stdio_output@@V?$format_validation_base@DV?$string_output_adapter@D@__crt_stdio_output@@@2@@__crt_stdio_output@@AAE_NQAH@Z 1009ad40 f i libucrtd:output.obj
 0002:00043e30       ?parse_int_from_format_string@?$output_processor@DV?$string_output_adapter@D@__crt_stdio_output@@V?$positional_parameter_base@DV?$string_output_adapter@D@__crt_stdio_output@@@2@@__crt_stdio_output@@AAE_NQAH@Z 1009ae30 f i libucrtd:output.obj
 0002:00043f20       ?parse_int_from_format_string@?$output_processor@DV?$string_output_adapter@D@__crt_stdio_output@@V?$standard_base@DV?$string_output_adapter@D@__crt_stdio_output@@@2@@__crt_stdio_output@@AAE_NQAH@Z 1009af20 f i libucrtd:output.obj
 0002:00044010       ?parse_int_from_format_string@?$output_processor@_WV?$stream_output_adapter@_W@__crt_stdio_output@@V?$format_validation_base@_WV?$stream_output_adapter@_W@__crt_stdio_output@@@2@@__crt_stdio_output@@AAE_NQAH@Z 1009b010 f i libucrtd:output.obj
 0002:00044100       ?parse_int_from_format_string@?$output_processor@_WV?$stream_output_adapter@_W@__crt_stdio_output@@V?$positional_parameter_base@_WV?$stream_output_adapter@_W@__crt_stdio_output@@@2@@__crt_stdio_output@@AAE_NQAH@Z 1009b100 f i libucrtd:output.obj
 0002:000441f0       ?parse_int_from_format_string@?$output_processor@_WV?$stream_output_adapter@_W@__crt_stdio_output@@V?$standard_base@_WV?$stream_output_adapter@_W@__crt_stdio_output@@@2@@__crt_stdio_output@@AAE_NQAH@Z 1009b1f0 f i libucrtd:output.obj
 0002:000442e0       ?parse_int_from_format_string@?$output_processor@_WV?$string_output_adapter@_W@__crt_stdio_output@@V?$format_validation_base@_WV?$string_output_adapter@_W@__crt_stdio_output@@@2@@__crt_stdio_output@@AAE_NQAH@Z 1009b2e0 f i libucrtd:output.obj
 0002:000443d0       ?parse_int_from_format_string@?$output_processor@_WV?$string_output_adapter@_W@__crt_stdio_output@@V?$positional_parameter_base@_WV?$string_output_adapter@_W@__crt_stdio_output@@@2@@__crt_stdio_output@@AAE_NQAH@Z 1009b3d0 f i libucrtd:output.obj
 0002:000444c0       ?parse_int_from_format_string@?$output_processor@_WV?$string_output_adapter@_W@__crt_stdio_output@@V?$standard_base@_WV?$string_output_adapter@_W@__crt_stdio_output@@@2@@__crt_stdio_output@@AAE_NQAH@Z 1009b4c0 f i libucrtd:output.obj
 0002:000445b0       ?process@?$output_processor@DV?$stream_output_adapter@D@__crt_stdio_output@@V?$format_validation_base@DV?$stream_output_adapter@D@__crt_stdio_output@@@2@@__crt_stdio_output@@QAEHXZ 1009b5b0 f i libucrtd:output.obj
 0002:00044940       ?process@?$output_processor@DV?$stream_output_adapter@D@__crt_stdio_output@@V?$positional_parameter_base@DV?$stream_output_adapter@D@__crt_stdio_output@@@2@@__crt_stdio_output@@QAEHXZ 1009b940 f i libucrtd:output.obj
 0002:00044cd0       ?process@?$output_processor@DV?$stream_output_adapter@D@__crt_stdio_output@@V?$standard_base@DV?$stream_output_adapter@D@__crt_stdio_output@@@2@@__crt_stdio_output@@QAEHXZ 1009bcd0 f i libucrtd:output.obj
 0002:00045060       ?process@?$output_processor@DV?$string_output_adapter@D@__crt_stdio_output@@V?$format_validation_base@DV?$string_output_adapter@D@__crt_stdio_output@@@2@@__crt_stdio_output@@QAEHXZ 1009c060 f i libucrtd:output.obj
 0002:000453f0       ?process@?$output_processor@DV?$string_output_adapter@D@__crt_stdio_output@@V?$positional_parameter_base@DV?$string_output_adapter@D@__crt_stdio_output@@@2@@__crt_stdio_output@@QAEHXZ 1009c3f0 f i libucrtd:output.obj
 0002:00045780       ?process@?$output_processor@DV?$string_output_adapter@D@__crt_stdio_output@@V?$standard_base@DV?$string_output_adapter@D@__crt_stdio_output@@@2@@__crt_stdio_output@@QAEHXZ 1009c780 f i libucrtd:output.obj
 0002:00045b10       ?process@?$output_processor@_WV?$stream_output_adapter@_W@__crt_stdio_output@@V?$format_validation_base@_WV?$stream_output_adapter@_W@__crt_stdio_output@@@2@@__crt_stdio_output@@QAEHXZ 1009cb10 f i libucrtd:output.obj
 0002:00045eb0       ?process@?$output_processor@_WV?$stream_output_adapter@_W@__crt_stdio_output@@V?$positional_parameter_base@_WV?$stream_output_adapter@_W@__crt_stdio_output@@@2@@__crt_stdio_output@@QAEHXZ 1009ceb0 f i libucrtd:output.obj
 0002:00046250       ?process@?$output_processor@_WV?$stream_output_adapter@_W@__crt_stdio_output@@V?$standard_base@_WV?$stream_output_adapter@_W@__crt_stdio_output@@@2@@__crt_stdio_output@@QAEHXZ 1009d250 f i libucrtd:output.obj
 0002:000465f0       ?process@?$output_processor@_WV?$string_output_adapter@_W@__crt_stdio_output@@V?$format_validation_base@_WV?$string_output_adapter@_W@__crt_stdio_output@@@2@@__crt_stdio_output@@QAEHXZ 1009d5f0 f i libucrtd:output.obj
 0002:00046990       ?process@?$output_processor@_WV?$string_output_adapter@_W@__crt_stdio_output@@V?$positional_parameter_base@_WV?$string_output_adapter@_W@__crt_stdio_output@@@2@@__crt_stdio_output@@QAEHXZ 1009d990 f i libucrtd:output.obj
 0002:00046d30       ?process@?$output_processor@_WV?$string_output_adapter@_W@__crt_stdio_output@@V?$standard_base@_WV?$string_output_adapter@_W@__crt_stdio_output@@@2@@__crt_stdio_output@@QAEHXZ 1009dd30 f i libucrtd:output.obj
 0002:000470d0       ?public_stream@__crt_stdio_stream@@QBEPAU_iobuf@@XZ 1009e0d0 f i libucrtd:output.obj
 0002:000470f0       ?restore_state@?$c_string_character_source@D@__crt_strtox@@QAE_NQBD@Z 1009e0f0 f i libucrtd:output.obj
 0002:00047110       ?restore_state@?$c_string_character_source@_W@__crt_strtox@@QAE_NQB_W@Z 1009e110 f i libucrtd:output.obj
 0002:00047130       ?save_state@?$c_string_character_source@D@__crt_strtox@@QBEPBDXZ 1009e130 f i libucrtd:output.obj
 0002:00047150       ?save_state@?$c_string_character_source@_W@__crt_strtox@@QBEPB_WXZ 1009e150 f i libucrtd:output.obj
 0002:00047170       ?set@?$cached@H@__crt_cached_ptd_host@@QAEHH@Z 1009e170 f i libucrtd:output.obj
 0002:000471a0       ?set_flag@?$output_processor@DV?$stream_output_adapter@D@__crt_stdio_output@@V?$format_validation_base@DV?$stream_output_adapter@D@__crt_stdio_output@@@2@@__crt_stdio_output@@AAEXI@Z 1009e1a0 f i libucrtd:output.obj
 0002:000471d0       ?set_flag@?$output_processor@DV?$stream_output_adapter@D@__crt_stdio_output@@V?$positional_parameter_base@DV?$stream_output_adapter@D@__crt_stdio_output@@@2@@__crt_stdio_output@@AAEXI@Z 1009e1d0 f i libucrtd:output.obj
 0002:00047200       ?set_flag@?$output_processor@DV?$stream_output_adapter@D@__crt_stdio_output@@V?$standard_base@DV?$stream_output_adapter@D@__crt_stdio_output@@@2@@__crt_stdio_output@@AAEXI@Z 1009e200 f i libucrtd:output.obj
 0002:00047230       ?set_flag@?$output_processor@DV?$string_output_adapter@D@__crt_stdio_output@@V?$format_validation_base@DV?$string_output_adapter@D@__crt_stdio_output@@@2@@__crt_stdio_output@@AAEXI@Z 1009e230 f i libucrtd:output.obj
 0002:00047260       ?set_flag@?$output_processor@DV?$string_output_adapter@D@__crt_stdio_output@@V?$positional_parameter_base@DV?$string_output_adapter@D@__crt_stdio_output@@@2@@__crt_stdio_output@@AAEXI@Z 1009e260 f i libucrtd:output.obj
 0002:00047290       ?set_flag@?$output_processor@DV?$string_output_adapter@D@__crt_stdio_output@@V?$standard_base@DV?$string_output_adapter@D@__crt_stdio_output@@@2@@__crt_stdio_output@@AAEXI@Z 1009e290 f i libucrtd:output.obj
 0002:000472c0       ?set_flag@?$output_processor@_WV?$stream_output_adapter@_W@__crt_stdio_output@@V?$format_validation_base@_WV?$stream_output_adapter@_W@__crt_stdio_output@@@2@@__crt_stdio_output@@AAEXI@Z 1009e2c0 f i libucrtd:output.obj
 0002:000472f0       ?set_flag@?$output_processor@_WV?$stream_output_adapter@_W@__crt_stdio_output@@V?$positional_parameter_base@_WV?$stream_output_adapter@_W@__crt_stdio_output@@@2@@__crt_stdio_output@@AAEXI@Z 1009e2f0 f i libucrtd:output.obj
 0002:00047320       ?set_flag@?$output_processor@_WV?$stream_output_adapter@_W@__crt_stdio_output@@V?$standard_base@_WV?$stream_output_adapter@_W@__crt_stdio_output@@@2@@__crt_stdio_output@@AAEXI@Z 1009e320 f i libucrtd:output.obj
 0002:00047350       ?set_flag@?$output_processor@_WV?$string_output_adapter@_W@__crt_stdio_output@@V?$format_validation_base@_WV?$string_output_adapter@_W@__crt_stdio_output@@@2@@__crt_stdio_output@@AAEXI@Z 1009e350 f i libucrtd:output.obj
 0002:00047380       ?set_flag@?$output_processor@_WV?$string_output_adapter@_W@__crt_stdio_output@@V?$positional_parameter_base@_WV?$string_output_adapter@_W@__crt_stdio_output@@@2@@__crt_stdio_output@@AAEXI@Z 1009e380 f i libucrtd:output.obj
 0002:000473b0       ?set_flag@?$output_processor@_WV?$string_output_adapter@_W@__crt_stdio_output@@V?$standard_base@_WV?$string_output_adapter@_W@__crt_stdio_output@@@2@@__crt_stdio_output@@AAEXI@Z 1009e3b0 f i libucrtd:output.obj
 0002:000473e0       ?should_format@?$positional_parameter_base@DV?$stream_output_adapter@D@__crt_stdio_output@@@__crt_stdio_output@@IAE_NXZ 1009e3e0 f i libucrtd:output.obj
 0002:00047430       ?should_format@?$positional_parameter_base@DV?$string_output_adapter@D@__crt_stdio_output@@@__crt_stdio_output@@IAE_NXZ 1009e430 f i libucrtd:output.obj
 0002:00047480       ?should_format@?$positional_parameter_base@_WV?$stream_output_adapter@_W@__crt_stdio_output@@@__crt_stdio_output@@IAE_NXZ 1009e480 f i libucrtd:output.obj
 0002:000474d0       ?should_format@?$positional_parameter_base@_WV?$string_output_adapter@_W@__crt_stdio_output@@@__crt_stdio_output@@IAE_NXZ 1009e4d0 f i libucrtd:output.obj
 0002:00047520       ?should_format@?$standard_base@DV?$stream_output_adapter@D@__crt_stdio_output@@@__crt_stdio_output@@IAE_NXZ 1009e520 f i libucrtd:output.obj
 0002:00047540       ?should_format@?$standard_base@DV?$string_output_adapter@D@__crt_stdio_output@@@__crt_stdio_output@@IAE_NXZ 1009e540 f i libucrtd:output.obj
 0002:00047560       ?should_format@?$standard_base@_WV?$stream_output_adapter@_W@__crt_stdio_output@@@__crt_stdio_output@@IAE_NXZ 1009e560 f i libucrtd:output.obj
 0002:00047580       ?should_format@?$standard_base@_WV?$string_output_adapter@_W@__crt_stdio_output@@@__crt_stdio_output@@IAE_NXZ 1009e580 f i libucrtd:output.obj
 0002:000475a0       ?should_skip_normal_state_processing@?$positional_parameter_base@DV?$stream_output_adapter@D@__crt_stdio_output@@@__crt_stdio_output@@IAE_NXZ 1009e5a0 f i libucrtd:output.obj
 0002:00047600       ?should_skip_normal_state_processing@?$positional_parameter_base@DV?$string_output_adapter@D@__crt_stdio_output@@@__crt_stdio_output@@IAE_NXZ 1009e600 f i libucrtd:output.obj
 0002:00047660       ?should_skip_normal_state_processing@?$positional_parameter_base@_WV?$stream_output_adapter@_W@__crt_stdio_output@@@__crt_stdio_output@@IAE_NXZ 1009e660 f i libucrtd:output.obj
 0002:000476c0       ?should_skip_normal_state_processing@?$positional_parameter_base@_WV?$string_output_adapter@_W@__crt_stdio_output@@@__crt_stdio_output@@IAE_NXZ 1009e6c0 f i libucrtd:output.obj
 0002:00047720       ?should_skip_normal_state_processing@?$standard_base@DV?$stream_output_adapter@D@__crt_stdio_output@@@__crt_stdio_output@@IAE_NXZ 1009e720 f i libucrtd:output.obj
 0002:00047740       ?should_skip_normal_state_processing@?$standard_base@DV?$string_output_adapter@D@__crt_stdio_output@@@__crt_stdio_output@@IAE_NXZ 1009e740 f i libucrtd:output.obj
 0002:00047760       ?should_skip_normal_state_processing@?$standard_base@_WV?$stream_output_adapter@_W@__crt_stdio_output@@@__crt_stdio_output@@IAE_NXZ 1009e760 f i libucrtd:output.obj
 0002:00047780       ?should_skip_normal_state_processing@?$standard_base@_WV?$string_output_adapter@_W@__crt_stdio_output@@@__crt_stdio_output@@IAE_NXZ 1009e780 f i libucrtd:output.obj
 0002:000477a0       ?should_skip_type_state_output@?$positional_parameter_base@DV?$stream_output_adapter@D@__crt_stdio_output@@@__crt_stdio_output@@IBE_NXZ 1009e7a0 f i libucrtd:output.obj
 0002:000477f0       ?should_skip_type_state_output@?$positional_parameter_base@DV?$string_output_adapter@D@__crt_stdio_output@@@__crt_stdio_output@@IBE_NXZ 1009e7f0 f i libucrtd:output.obj
 0002:00047840       ?should_skip_type_state_output@?$positional_parameter_base@_WV?$stream_output_adapter@_W@__crt_stdio_output@@@__crt_stdio_output@@IBE_NXZ 1009e840 f i libucrtd:output.obj
 0002:00047890       ?should_skip_type_state_output@?$positional_parameter_base@_WV?$string_output_adapter@_W@__crt_stdio_output@@@__crt_stdio_output@@IBE_NXZ 1009e890 f i libucrtd:output.obj
 0002:000478e0       ?should_skip_type_state_output@?$standard_base@DV?$stream_output_adapter@D@__crt_stdio_output@@@__crt_stdio_output@@IBE_NXZ 1009e8e0 f i libucrtd:output.obj
 0002:00047900       ?should_skip_type_state_output@?$standard_base@DV?$string_output_adapter@D@__crt_stdio_output@@@__crt_stdio_output@@IBE_NXZ 1009e900 f i libucrtd:output.obj
 0002:00047920       ?should_skip_type_state_output@?$standard_base@_WV?$stream_output_adapter@_W@__crt_stdio_output@@@__crt_stdio_output@@IBE_NXZ 1009e920 f i libucrtd:output.obj
 0002:00047940       ?should_skip_type_state_output@?$standard_base@_WV?$string_output_adapter@_W@__crt_stdio_output@@@__crt_stdio_output@@IBE_NXZ 1009e940 f i libucrtd:output.obj
 0002:00047960       ?state_case_dot@?$output_processor@DV?$stream_output_adapter@D@__crt_stdio_output@@V?$format_validation_base@DV?$stream_output_adapter@D@__crt_stdio_output@@@2@@__crt_stdio_output@@AAE_NXZ 1009e960 f i libucrtd:output.obj
 0002:00047980       ?state_case_dot@?$output_processor@DV?$stream_output_adapter@D@__crt_stdio_output@@V?$positional_parameter_base@DV?$stream_output_adapter@D@__crt_stdio_output@@@2@@__crt_stdio_output@@AAE_NXZ 1009e980 f i libucrtd:output.obj
 0002:000479a0       ?state_case_dot@?$output_processor@DV?$stream_output_adapter@D@__crt_stdio_output@@V?$standard_base@DV?$stream_output_adapter@D@__crt_stdio_output@@@2@@__crt_stdio_output@@AAE_NXZ 1009e9a0 f i libucrtd:output.obj
 0002:000479c0       ?state_case_dot@?$output_processor@DV?$string_output_adapter@D@__crt_stdio_output@@V?$format_validation_base@DV?$string_output_adapter@D@__crt_stdio_output@@@2@@__crt_stdio_output@@AAE_NXZ 1009e9c0 f i libucrtd:output.obj
 0002:000479e0       ?state_case_dot@?$output_processor@DV?$string_output_adapter@D@__crt_stdio_output@@V?$positional_parameter_base@DV?$string_output_adapter@D@__crt_stdio_output@@@2@@__crt_stdio_output@@AAE_NXZ 1009e9e0 f i libucrtd:output.obj
 0002:00047a00       ?state_case_dot@?$output_processor@DV?$string_output_adapter@D@__crt_stdio_output@@V?$standard_base@DV?$string_output_adapter@D@__crt_stdio_output@@@2@@__crt_stdio_output@@AAE_NXZ 1009ea00 f i libucrtd:output.obj
 0002:00047a20       ?state_case_dot@?$output_processor@_WV?$stream_output_adapter@_W@__crt_stdio_output@@V?$format_validation_base@_WV?$stream_output_adapter@_W@__crt_stdio_output@@@2@@__crt_stdio_output@@AAE_NXZ 1009ea20 f i libucrtd:output.obj
 0002:00047a40       ?state_case_dot@?$output_processor@_WV?$stream_output_adapter@_W@__crt_stdio_output@@V?$positional_parameter_base@_WV?$stream_output_adapter@_W@__crt_stdio_output@@@2@@__crt_stdio_output@@AAE_NXZ 1009ea40 f i libucrtd:output.obj
 0002:00047a60       ?state_case_dot@?$output_processor@_WV?$stream_output_adapter@_W@__crt_stdio_output@@V?$standard_base@_WV?$stream_output_adapter@_W@__crt_stdio_output@@@2@@__crt_stdio_output@@AAE_NXZ 1009ea60 f i libucrtd:output.obj
 0002:00047a80       ?state_case_dot@?$output_processor@_WV?$string_output_adapter@_W@__crt_stdio_output@@V?$format_validation_base@_WV?$string_output_adapter@_W@__crt_stdio_output@@@2@@__crt_stdio_output@@AAE_NXZ 1009ea80 f i libucrtd:output.obj
 0002:00047aa0       ?state_case_dot@?$output_processor@_WV?$string_output_adapter@_W@__crt_stdio_output@@V?$positional_parameter_base@_WV?$string_output_adapter@_W@__crt_stdio_output@@@2@@__crt_stdio_output@@AAE_NXZ 1009eaa0 f i libucrtd:output.obj
 0002:00047ac0       ?state_case_dot@?$output_processor@_WV?$string_output_adapter@_W@__crt_stdio_output@@V?$standard_base@_WV?$string_output_adapter@_W@__crt_stdio_output@@@2@@__crt_stdio_output@@AAE_NXZ 1009eac0 f i libucrtd:output.obj
 0002:00047ae0       ?state_case_flag@?$output_processor@DV?$stream_output_adapter@D@__crt_stdio_output@@V?$format_validation_base@DV?$stream_output_adapter@D@__crt_stdio_output@@@2@@__crt_stdio_output@@AAE_NXZ 1009eae0 f i libucrtd:output.obj
 0002:00047bb0       ?state_case_flag@?$output_processor@DV?$stream_output_adapter@D@__crt_stdio_output@@V?$positional_parameter_base@DV?$stream_output_adapter@D@__crt_stdio_output@@@2@@__crt_stdio_output@@AAE_NXZ 1009ebb0 f i libucrtd:output.obj
 0002:00047c80       ?state_case_flag@?$output_processor@DV?$stream_output_adapter@D@__crt_stdio_output@@V?$standard_base@DV?$stream_output_adapter@D@__crt_stdio_output@@@2@@__crt_stdio_output@@AAE_NXZ 1009ec80 f i libucrtd:output.obj
 0002:00047d50       ?state_case_flag@?$output_processor@DV?$string_output_adapter@D@__crt_stdio_output@@V?$format_validation_base@DV?$string_output_adapter@D@__crt_stdio_output@@@2@@__crt_stdio_output@@AAE_NXZ 1009ed50 f i libucrtd:output.obj
 0002:00047e20       ?state_case_flag@?$output_processor@DV?$string_output_adapter@D@__crt_stdio_output@@V?$positional_parameter_base@DV?$string_output_adapter@D@__crt_stdio_output@@@2@@__crt_stdio_output@@AAE_NXZ 1009ee20 f i libucrtd:output.obj
 0002:00047ef0       ?state_case_flag@?$output_processor@DV?$string_output_adapter@D@__crt_stdio_output@@V?$standard_base@DV?$string_output_adapter@D@__crt_stdio_output@@@2@@__crt_stdio_output@@AAE_NXZ 1009eef0 f i libucrtd:output.obj
 0002:00047fc0       ?state_case_flag@?$output_processor@_WV?$stream_output_adapter@_W@__crt_stdio_output@@V?$format_validation_base@_WV?$stream_output_adapter@_W@__crt_stdio_output@@@2@@__crt_stdio_output@@AAE_NXZ 1009efc0 f i libucrtd:output.obj
 0002:00048090       ?state_case_flag@?$output_processor@_WV?$stream_output_adapter@_W@__crt_stdio_output@@V?$positional_parameter_base@_WV?$stream_output_adapter@_W@__crt_stdio_output@@@2@@__crt_stdio_output@@AAE_NXZ 1009f090 f i libucrtd:output.obj
 0002:00048160       ?state_case_flag@?$output_processor@_WV?$stream_output_adapter@_W@__crt_stdio_output@@V?$standard_base@_WV?$stream_output_adapter@_W@__crt_stdio_output@@@2@@__crt_stdio_output@@AAE_NXZ 1009f160 f i libucrtd:output.obj
 0002:00048230       ?state_case_flag@?$output_processor@_WV?$string_output_adapter@_W@__crt_stdio_output@@V?$format_validation_base@_WV?$string_output_adapter@_W@__crt_stdio_output@@@2@@__crt_stdio_output@@AAE_NXZ 1009f230 f i libucrtd:output.obj
 0002:00048300       ?state_case_flag@?$output_processor@_WV?$string_output_adapter@_W@__crt_stdio_output@@V?$positional_parameter_base@_WV?$string_output_adapter@_W@__crt_stdio_output@@@2@@__crt_stdio_output@@AAE_NXZ 1009f300 f i libucrtd:output.obj
 0002:000483d0       ?state_case_flag@?$output_processor@_WV?$string_output_adapter@_W@__crt_stdio_output@@V?$standard_base@_WV?$string_output_adapter@_W@__crt_stdio_output@@@2@@__crt_stdio_output@@AAE_NXZ 1009f3d0 f i libucrtd:output.obj
 0002:000484a0       ?state_case_normal@?$output_processor@DV?$stream_output_adapter@D@__crt_stdio_output@@V?$format_validation_base@DV?$stream_output_adapter@D@__crt_stdio_output@@@2@@__crt_stdio_output@@AAE_NXZ 1009f4a0 f i libucrtd:output.obj
 0002:00048590       ?state_case_normal@?$output_processor@DV?$stream_output_adapter@D@__crt_stdio_output@@V?$positional_parameter_base@DV?$stream_output_adapter@D@__crt_stdio_output@@@2@@__crt_stdio_output@@AAE_NXZ 1009f590 f i libucrtd:output.obj
 0002:00048680       ?state_case_normal@?$output_processor@DV?$stream_output_adapter@D@__crt_stdio_output@@V?$standard_base@DV?$stream_output_adapter@D@__crt_stdio_output@@@2@@__crt_stdio_output@@AAE_NXZ 1009f680 f i libucrtd:output.obj
 0002:00048770       ?state_case_normal@?$output_processor@DV?$string_output_adapter@D@__crt_stdio_output@@V?$format_validation_base@DV?$string_output_adapter@D@__crt_stdio_output@@@2@@__crt_stdio_output@@AAE_NXZ 1009f770 f i libucrtd:output.obj
 0002:00048860       ?state_case_normal@?$output_processor@DV?$string_output_adapter@D@__crt_stdio_output@@V?$positional_parameter_base@DV?$string_output_adapter@D@__crt_stdio_output@@@2@@__crt_stdio_output@@AAE_NXZ 1009f860 f i libucrtd:output.obj
 0002:00048950       ?state_case_normal@?$output_processor@DV?$string_output_adapter@D@__crt_stdio_output@@V?$standard_base@DV?$string_output_adapter@D@__crt_stdio_output@@@2@@__crt_stdio_output@@AAE_NXZ 1009f950 f i libucrtd:output.obj
 0002:00048a40       ?state_case_normal@?$output_processor@_WV?$stream_output_adapter@_W@__crt_stdio_output@@V?$format_validation_base@_WV?$stream_output_adapter@_W@__crt_stdio_output@@@2@@__crt_stdio_output@@AAE_NXZ 1009fa40 f i libucrtd:output.obj
 0002:00048b30       ?state_case_normal@?$output_processor@_WV?$stream_output_adapter@_W@__crt_stdio_output@@V?$positional_parameter_base@_WV?$stream_output_adapter@_W@__crt_stdio_output@@@2@@__crt_stdio_output@@AAE_NXZ 1009fb30 f i libucrtd:output.obj
 0002:00048c20       ?state_case_normal@?$output_processor@_WV?$stream_output_adapter@_W@__crt_stdio_output@@V?$standard_base@_WV?$stream_output_adapter@_W@__crt_stdio_output@@@2@@__crt_stdio_output@@AAE_NXZ 1009fc20 f i libucrtd:output.obj
 0002:00048d10       ?state_case_normal@?$output_processor@_WV?$string_output_adapter@_W@__crt_stdio_output@@V?$format_validation_base@_WV?$string_output_adapter@_W@__crt_stdio_output@@@2@@__crt_stdio_output@@AAE_NXZ 1009fd10 f i libucrtd:output.obj
 0002:00048e00       ?state_case_normal@?$output_processor@_WV?$string_output_adapter@_W@__crt_stdio_output@@V?$positional_parameter_base@_WV?$string_output_adapter@_W@__crt_stdio_output@@@2@@__crt_stdio_output@@AAE_NXZ 1009fe00 f i libucrtd:output.obj
 0002:00048ef0       ?state_case_normal@?$output_processor@_WV?$string_output_adapter@_W@__crt_stdio_output@@V?$standard_base@_WV?$string_output_adapter@_W@__crt_stdio_output@@@2@@__crt_stdio_output@@AAE_NXZ 1009fef0 f i libucrtd:output.obj
 0002:00048fe0       ?state_case_normal_common@?$output_processor@DV?$stream_output_adapter@D@__crt_stdio_output@@V?$format_validation_base@DV?$stream_output_adapter@D@__crt_stdio_output@@@2@@__crt_stdio_output@@AAE_NXZ 1009ffe0 f i libucrtd:output.obj
 0002:00049050       ?state_case_normal_common@?$output_processor@DV?$stream_output_adapter@D@__crt_stdio_output@@V?$positional_parameter_base@DV?$stream_output_adapter@D@__crt_stdio_output@@@2@@__crt_stdio_output@@AAE_NXZ 100a0050 f i libucrtd:output.obj
 0002:000490c0       ?state_case_normal_common@?$output_processor@DV?$stream_output_adapter@D@__crt_stdio_output@@V?$standard_base@DV?$stream_output_adapter@D@__crt_stdio_output@@@2@@__crt_stdio_output@@AAE_NXZ 100a00c0 f i libucrtd:output.obj
 0002:00049130       ?state_case_normal_common@?$output_processor@DV?$string_output_adapter@D@__crt_stdio_output@@V?$format_validation_base@DV?$string_output_adapter@D@__crt_stdio_output@@@2@@__crt_stdio_output@@AAE_NXZ 100a0130 f i libucrtd:output.obj
 0002:000491a0       ?state_case_normal_common@?$output_processor@DV?$string_output_adapter@D@__crt_stdio_output@@V?$positional_parameter_base@DV?$string_output_adapter@D@__crt_stdio_output@@@2@@__crt_stdio_output@@AAE_NXZ 100a01a0 f i libucrtd:output.obj
 0002:00049210       ?state_case_normal_common@?$output_processor@DV?$string_output_adapter@D@__crt_stdio_output@@V?$standard_base@DV?$string_output_adapter@D@__crt_stdio_output@@@2@@__crt_stdio_output@@AAE_NXZ 100a0210 f i libucrtd:output.obj
 0002:00049280       ?state_case_normal_common@?$output_processor@_WV?$stream_output_adapter@_W@__crt_stdio_output@@V?$format_validation_base@_WV?$stream_output_adapter@_W@__crt_stdio_output@@@2@@__crt_stdio_output@@AAE_NXZ 100a0280 f i libucrtd:output.obj
 0002:000492f0       ?state_case_normal_common@?$output_processor@_WV?$stream_output_adapter@_W@__crt_stdio_output@@V?$positional_parameter_base@_WV?$stream_output_adapter@_W@__crt_stdio_output@@@2@@__crt_stdio_output@@AAE_NXZ 100a02f0 f i libucrtd:output.obj
 0002:00049360       ?state_case_normal_common@?$output_processor@_WV?$stream_output_adapter@_W@__crt_stdio_output@@V?$standard_base@_WV?$stream_output_adapter@_W@__crt_stdio_output@@@2@@__crt_stdio_output@@AAE_NXZ 100a0360 f i libucrtd:output.obj
 0002:000493d0       ?state_case_normal_common@?$output_processor@_WV?$string_output_adapter@_W@__crt_stdio_output@@V?$format_validation_base@_WV?$string_output_adapter@_W@__crt_stdio_output@@@2@@__crt_stdio_output@@AAE_NXZ 100a03d0 f i libucrtd:output.obj
 0002:00049440       ?state_case_normal_common@?$output_processor@_WV?$string_output_adapter@_W@__crt_stdio_output@@V?$positional_parameter_base@_WV?$string_output_adapter@_W@__crt_stdio_output@@@2@@__crt_stdio_output@@AAE_NXZ 100a0440 f i libucrtd:output.obj
 0002:000494b0       ?state_case_normal_common@?$output_processor@_WV?$string_output_adapter@_W@__crt_stdio_output@@V?$standard_base@_WV?$string_output_adapter@_W@__crt_stdio_output@@@2@@__crt_stdio_output@@AAE_NXZ 100a04b0 f i libucrtd:output.obj
 0002:00049520       ?state_case_normal_tchar@?$output_processor@DV?$stream_output_adapter@D@__crt_stdio_output@@V?$format_validation_base@DV?$stream_output_adapter@D@__crt_stdio_output@@@2@@__crt_stdio_output@@AAE_ND@Z 100a0520 f i libucrtd:output.obj
 0002:000496a0       ?state_case_normal_tchar@?$output_processor@DV?$stream_output_adapter@D@__crt_stdio_output@@V?$positional_parameter_base@DV?$stream_output_adapter@D@__crt_stdio_output@@@2@@__crt_stdio_output@@AAE_ND@Z 100a06a0 f i libucrtd:output.obj
 0002:00049820       ?state_case_normal_tchar@?$output_processor@DV?$stream_output_adapter@D@__crt_stdio_output@@V?$standard_base@DV?$stream_output_adapter@D@__crt_stdio_output@@@2@@__crt_stdio_output@@AAE_ND@Z 100a0820 f i libucrtd:output.obj
 0002:000499a0       ?state_case_normal_tchar@?$output_processor@DV?$string_output_adapter@D@__crt_stdio_output@@V?$format_validation_base@DV?$string_output_adapter@D@__crt_stdio_output@@@2@@__crt_stdio_output@@AAE_ND@Z 100a09a0 f i libucrtd:output.obj
 0002:00049b20       ?state_case_normal_tchar@?$output_processor@DV?$string_output_adapter@D@__crt_stdio_output@@V?$positional_parameter_base@DV?$string_output_adapter@D@__crt_stdio_output@@@2@@__crt_stdio_output@@AAE_ND@Z 100a0b20 f i libucrtd:output.obj
 0002:00049ca0       ?state_case_normal_tchar@?$output_processor@DV?$string_output_adapter@D@__crt_stdio_output@@V?$standard_base@DV?$string_output_adapter@D@__crt_stdio_output@@@2@@__crt_stdio_output@@AAE_ND@Z 100a0ca0 f i libucrtd:output.obj
 0002:00049e20       ?state_case_normal_tchar@?$output_processor@_WV?$stream_output_adapter@_W@__crt_stdio_output@@V?$format_validation_base@_WV?$stream_output_adapter@_W@__crt_stdio_output@@@2@@__crt_stdio_output@@AAE_N_W@Z 100a0e20 f i libucrtd:output.obj
 0002:00049e40       ?state_case_normal_tchar@?$output_processor@_WV?$stream_output_adapter@_W@__crt_stdio_output@@V?$positional_parameter_base@_WV?$stream_output_adapter@_W@__crt_stdio_output@@@2@@__crt_stdio_output@@AAE_N_W@Z 100a0e40 f i libucrtd:output.obj
 0002:00049e60       ?state_case_normal_tchar@?$output_processor@_WV?$stream_output_adapter@_W@__crt_stdio_output@@V?$standard_base@_WV?$stream_output_adapter@_W@__crt_stdio_output@@@2@@__crt_stdio_output@@AAE_N_W@Z 100a0e60 f i libucrtd:output.obj
 0002:00049e80       ?state_case_normal_tchar@?$output_processor@_WV?$string_output_adapter@_W@__crt_stdio_output@@V?$format_validation_base@_WV?$string_output_adapter@_W@__crt_stdio_output@@@2@@__crt_stdio_output@@AAE_N_W@Z 100a0e80 f i libucrtd:output.obj
 0002:00049ea0       ?state_case_normal_tchar@?$output_processor@_WV?$string_output_adapter@_W@__crt_stdio_output@@V?$positional_parameter_base@_WV?$string_output_adapter@_W@__crt_stdio_output@@@2@@__crt_stdio_output@@AAE_N_W@Z 100a0ea0 f i libucrtd:output.obj
 0002:00049ec0       ?state_case_normal_tchar@?$output_processor@_WV?$string_output_adapter@_W@__crt_stdio_output@@V?$standard_base@_WV?$string_output_adapter@_W@__crt_stdio_output@@@2@@__crt_stdio_output@@AAE_N_W@Z 100a0ec0 f i libucrtd:output.obj
 0002:00049ee0       ?state_case_percent@?$output_processor@DV?$stream_output_adapter@D@__crt_stdio_output@@V?$format_validation_base@DV?$stream_output_adapter@D@__crt_stdio_output@@@2@@__crt_stdio_output@@AAE_NXZ 100a0ee0 f i libucrtd:output.obj
 0002:00049f40       ?state_case_percent@?$output_processor@DV?$stream_output_adapter@D@__crt_stdio_output@@V?$positional_parameter_base@DV?$stream_output_adapter@D@__crt_stdio_output@@@2@@__crt_stdio_output@@AAE_NXZ 100a0f40 f i libucrtd:output.obj
 0002:00049fa0       ?state_case_percent@?$output_processor@DV?$stream_output_adapter@D@__crt_stdio_output@@V?$standard_base@DV?$stream_output_adapter@D@__crt_stdio_output@@@2@@__crt_stdio_output@@AAE_NXZ 100a0fa0 f i libucrtd:output.obj
 0002:0004a000       ?state_case_percent@?$output_processor@DV?$string_output_adapter@D@__crt_stdio_output@@V?$format_validation_base@DV?$string_output_adapter@D@__crt_stdio_output@@@2@@__crt_stdio_output@@AAE_NXZ 100a1000 f i libucrtd:output.obj
 0002:0004a060       ?state_case_percent@?$output_processor@DV?$string_output_adapter@D@__crt_stdio_output@@V?$positional_parameter_base@DV?$string_output_adapter@D@__crt_stdio_output@@@2@@__crt_stdio_output@@AAE_NXZ 100a1060 f i libucrtd:output.obj
 0002:0004a0c0       ?state_case_percent@?$output_processor@DV?$string_output_adapter@D@__crt_stdio_output@@V?$standard_base@DV?$string_output_adapter@D@__crt_stdio_output@@@2@@__crt_stdio_output@@AAE_NXZ 100a10c0 f i libucrtd:output.obj
 0002:0004a120       ?state_case_percent@?$output_processor@_WV?$stream_output_adapter@_W@__crt_stdio_output@@V?$format_validation_base@_WV?$stream_output_adapter@_W@__crt_stdio_output@@@2@@__crt_stdio_output@@AAE_NXZ 100a1120 f i libucrtd:output.obj
 0002:0004a180       ?state_case_percent@?$output_processor@_WV?$stream_output_adapter@_W@__crt_stdio_output@@V?$positional_parameter_base@_WV?$stream_output_adapter@_W@__crt_stdio_output@@@2@@__crt_stdio_output@@AAE_NXZ 100a1180 f i libucrtd:output.obj
 0002:0004a1e0       ?state_case_percent@?$output_processor@_WV?$stream_output_adapter@_W@__crt_stdio_output@@V?$standard_base@_WV?$stream_output_adapter@_W@__crt_stdio_output@@@2@@__crt_stdio_output@@AAE_NXZ 100a11e0 f i libucrtd:output.obj
 0002:0004a240       ?state_case_percent@?$output_processor@_WV?$string_output_adapter@_W@__crt_stdio_output@@V?$format_validation_base@_WV?$string_output_adapter@_W@__crt_stdio_output@@@2@@__crt_stdio_output@@AAE_NXZ 100a1240 f i libucrtd:output.obj
 0002:0004a2a0       ?state_case_percent@?$output_processor@_WV?$string_output_adapter@_W@__crt_stdio_output@@V?$positional_parameter_base@_WV?$string_output_adapter@_W@__crt_stdio_output@@@2@@__crt_stdio_output@@AAE_NXZ 100a12a0 f i libucrtd:output.obj
 0002:0004a300       ?state_case_percent@?$output_processor@_WV?$string_output_adapter@_W@__crt_stdio_output@@V?$standard_base@_WV?$string_output_adapter@_W@__crt_stdio_output@@@2@@__crt_stdio_output@@AAE_NXZ 100a1300 f i libucrtd:output.obj
 0002:0004a360       ?state_case_precision@?$output_processor@DV?$stream_output_adapter@D@__crt_stdio_output@@V?$format_validation_base@DV?$stream_output_adapter@D@__crt_stdio_output@@@2@@__crt_stdio_output@@AAE_NXZ 100a1360 f i libucrtd:output.obj
 0002:0004a3e0       ?state_case_precision@?$output_processor@DV?$stream_output_adapter@D@__crt_stdio_output@@V?$positional_parameter_base@DV?$stream_output_adapter@D@__crt_stdio_output@@@2@@__crt_stdio_output@@AAE_NXZ 100a13e0 f i libucrtd:output.obj
 0002:0004a460       ?state_case_precision@?$output_processor@DV?$stream_output_adapter@D@__crt_stdio_output@@V?$standard_base@DV?$stream_output_adapter@D@__crt_stdio_output@@@2@@__crt_stdio_output@@AAE_NXZ 100a1460 f i libucrtd:output.obj
 0002:0004a4e0       ?state_case_precision@?$output_processor@DV?$string_output_adapter@D@__crt_stdio_output@@V?$format_validation_base@DV?$string_output_adapter@D@__crt_stdio_output@@@2@@__crt_stdio_output@@AAE_NXZ 100a14e0 f i libucrtd:output.obj
 0002:0004a560       ?state_case_precision@?$output_processor@DV?$string_output_adapter@D@__crt_stdio_output@@V?$positional_parameter_base@DV?$string_output_adapter@D@__crt_stdio_output@@@2@@__crt_stdio_output@@AAE_NXZ 100a1560 f i libucrtd:output.obj
 0002:0004a5e0       ?state_case_precision@?$output_processor@DV?$string_output_adapter@D@__crt_stdio_output@@V?$standard_base@DV?$string_output_adapter@D@__crt_stdio_output@@@2@@__crt_stdio_output@@AAE_NXZ 100a15e0 f i libucrtd:output.obj
 0002:0004a660       ?state_case_precision@?$output_processor@_WV?$stream_output_adapter@_W@__crt_stdio_output@@V?$format_validation_base@_WV?$stream_output_adapter@_W@__crt_stdio_output@@@2@@__crt_stdio_output@@AAE_NXZ 100a1660 f i libucrtd:output.obj
 0002:0004a6e0       ?state_case_precision@?$output_processor@_WV?$stream_output_adapter@_W@__crt_stdio_output@@V?$positional_parameter_base@_WV?$stream_output_adapter@_W@__crt_stdio_output@@@2@@__crt_stdio_output@@AAE_NXZ 100a16e0 f i libucrtd:output.obj
 0002:0004a760       ?state_case_precision@?$output_processor@_WV?$stream_output_adapter@_W@__crt_stdio_output@@V?$standard_base@_WV?$stream_output_adapter@_W@__crt_stdio_output@@@2@@__crt_stdio_output@@AAE_NXZ 100a1760 f i libucrtd:output.obj
 0002:0004a7e0       ?state_case_precision@?$output_processor@_WV?$string_output_adapter@_W@__crt_stdio_output@@V?$format_validation_base@_WV?$string_output_adapter@_W@__crt_stdio_output@@@2@@__crt_stdio_output@@AAE_NXZ 100a17e0 f i libucrtd:output.obj
 0002:0004a860       ?state_case_precision@?$output_processor@_WV?$string_output_adapter@_W@__crt_stdio_output@@V?$positional_parameter_base@_WV?$string_output_adapter@_W@__crt_stdio_output@@@2@@__crt_stdio_output@@AAE_NXZ 100a1860 f i libucrtd:output.obj
 0002:0004a8e0       ?state_case_precision@?$output_processor@_WV?$string_output_adapter@_W@__crt_stdio_output@@V?$standard_base@_WV?$string_output_adapter@_W@__crt_stdio_output@@@2@@__crt_stdio_output@@AAE_NXZ 100a18e0 f i libucrtd:output.obj
 0002:0004a960       ?state_case_size@?$output_processor@DV?$stream_output_adapter@D@__crt_stdio_output@@V?$format_validation_base@DV?$stream_output_adapter@D@__crt_stdio_output@@@2@@__crt_stdio_output@@AAE_NXZ 100a1960 f i libucrtd:output.obj
 0002:0004ae40       ?state_case_size@?$output_processor@DV?$stream_output_adapter@D@__crt_stdio_output@@V?$positional_parameter_base@DV?$stream_output_adapter@D@__crt_stdio_output@@@2@@__crt_stdio_output@@AAE_NXZ 100a1e40 f i libucrtd:output.obj
 0002:0004b320       ?state_case_size@?$output_processor@DV?$stream_output_adapter@D@__crt_stdio_output@@V?$standard_base@DV?$stream_output_adapter@D@__crt_stdio_output@@@2@@__crt_stdio_output@@AAE_NXZ 100a2320 f i libucrtd:output.obj
 0002:0004b800       ?state_case_size@?$output_processor@DV?$string_output_adapter@D@__crt_stdio_output@@V?$format_validation_base@DV?$string_output_adapter@D@__crt_stdio_output@@@2@@__crt_stdio_output@@AAE_NXZ 100a2800 f i libucrtd:output.obj
 0002:0004bce0       ?state_case_size@?$output_processor@DV?$string_output_adapter@D@__crt_stdio_output@@V?$positional_parameter_base@DV?$string_output_adapter@D@__crt_stdio_output@@@2@@__crt_stdio_output@@AAE_NXZ 100a2ce0 f i libucrtd:output.obj
 0002:0004c1c0       ?state_case_size@?$output_processor@DV?$string_output_adapter@D@__crt_stdio_output@@V?$standard_base@DV?$string_output_adapter@D@__crt_stdio_output@@@2@@__crt_stdio_output@@AAE_NXZ 100a31c0 f i libucrtd:output.obj
 0002:0004c6a0       ?state_case_size@?$output_processor@_WV?$stream_output_adapter@_W@__crt_stdio_output@@V?$format_validation_base@_WV?$stream_output_adapter@_W@__crt_stdio_output@@@2@@__crt_stdio_output@@AAE_NXZ 100a36a0 f i libucrtd:output.obj
 0002:0004cb80       ?state_case_size@?$output_processor@_WV?$stream_output_adapter@_W@__crt_stdio_output@@V?$positional_parameter_base@_WV?$stream_output_adapter@_W@__crt_stdio_output@@@2@@__crt_stdio_output@@AAE_NXZ 100a3b80 f i libucrtd:output.obj
 0002:0004d060       ?state_case_size@?$output_processor@_WV?$stream_output_adapter@_W@__crt_stdio_output@@V?$standard_base@_WV?$stream_output_adapter@_W@__crt_stdio_output@@@2@@__crt_stdio_output@@AAE_NXZ 100a4060 f i libucrtd:output.obj
 0002:0004d540       ?state_case_size@?$output_processor@_WV?$string_output_adapter@_W@__crt_stdio_output@@V?$format_validation_base@_WV?$string_output_adapter@_W@__crt_stdio_output@@@2@@__crt_stdio_output@@AAE_NXZ 100a4540 f i libucrtd:output.obj
 0002:0004da20       ?state_case_size@?$output_processor@_WV?$string_output_adapter@_W@__crt_stdio_output@@V?$positional_parameter_base@_WV?$string_output_adapter@_W@__crt_stdio_output@@@2@@__crt_stdio_output@@AAE_NXZ 100a4a20 f i libucrtd:output.obj
 0002:0004df00       ?state_case_size@?$output_processor@_WV?$string_output_adapter@_W@__crt_stdio_output@@V?$standard_base@_WV?$string_output_adapter@_W@__crt_stdio_output@@@2@@__crt_stdio_output@@AAE_NXZ 100a4f00 f i libucrtd:output.obj
 0002:0004e3e0       ?state_case_type@?$output_processor@DV?$stream_output_adapter@D@__crt_stdio_output@@V?$format_validation_base@DV?$stream_output_adapter@D@__crt_stdio_output@@@2@@__crt_stdio_output@@AAE_NXZ 100a53e0 f i libucrtd:output.obj
 0002:0004e8a0       ?state_case_type@?$output_processor@DV?$stream_output_adapter@D@__crt_stdio_output@@V?$positional_parameter_base@DV?$stream_output_adapter@D@__crt_stdio_output@@@2@@__crt_stdio_output@@AAE_NXZ 100a58a0 f i libucrtd:output.obj
 0002:0004ed60       ?state_case_type@?$output_processor@DV?$stream_output_adapter@D@__crt_stdio_output@@V?$standard_base@DV?$stream_output_adapter@D@__crt_stdio_output@@@2@@__crt_stdio_output@@AAE_NXZ 100a5d60 f i libucrtd:output.obj
 0002:0004f220       ?state_case_type@?$output_processor@DV?$string_output_adapter@D@__crt_stdio_output@@V?$format_validation_base@DV?$string_output_adapter@D@__crt_stdio_output@@@2@@__crt_stdio_output@@AAE_NXZ 100a6220 f i libucrtd:output.obj
 0002:0004f6e0       ?state_case_type@?$output_processor@DV?$string_output_adapter@D@__crt_stdio_output@@V?$positional_parameter_base@DV?$string_output_adapter@D@__crt_stdio_output@@@2@@__crt_stdio_output@@AAE_NXZ 100a66e0 f i libucrtd:output.obj
 0002:0004fba0       ?state_case_type@?$output_processor@DV?$string_output_adapter@D@__crt_stdio_output@@V?$standard_base@DV?$string_output_adapter@D@__crt_stdio_output@@@2@@__crt_stdio_output@@AAE_NXZ 100a6ba0 f i libucrtd:output.obj
 0002:00050060       ?state_case_type@?$output_processor@_WV?$stream_output_adapter@_W@__crt_stdio_output@@V?$format_validation_base@_WV?$stream_output_adapter@_W@__crt_stdio_output@@@2@@__crt_stdio_output@@AAE_NXZ 100a7060 f i libucrtd:output.obj
 0002:00050560       ?state_case_type@?$output_processor@_WV?$stream_output_adapter@_W@__crt_stdio_output@@V?$positional_parameter_base@_WV?$stream_output_adapter@_W@__crt_stdio_output@@@2@@__crt_stdio_output@@AAE_NXZ 100a7560 f i libucrtd:output.obj
 0002:00050a60       ?state_case_type@?$output_processor@_WV?$stream_output_adapter@_W@__crt_stdio_output@@V?$standard_base@_WV?$stream_output_adapter@_W@__crt_stdio_output@@@2@@__crt_stdio_output@@AAE_NXZ 100a7a60 f i libucrtd:output.obj
 0002:00050f60       ?state_case_type@?$output_processor@_WV?$string_output_adapter@_W@__crt_stdio_output@@V?$format_validation_base@_WV?$string_output_adapter@_W@__crt_stdio_output@@@2@@__crt_stdio_output@@AAE_NXZ 100a7f60 f i libucrtd:output.obj
 0002:00051460       ?state_case_type@?$output_processor@_WV?$string_output_adapter@_W@__crt_stdio_output@@V?$positional_parameter_base@_WV?$string_output_adapter@_W@__crt_stdio_output@@@2@@__crt_stdio_output@@AAE_NXZ 100a8460 f i libucrtd:output.obj
 0002:00051960       ?state_case_type@?$output_processor@_WV?$string_output_adapter@_W@__crt_stdio_output@@V?$standard_base@_WV?$string_output_adapter@_W@__crt_stdio_output@@@2@@__crt_stdio_output@@AAE_NXZ 100a8960 f i libucrtd:output.obj
 0002:00051e60       ?state_case_width@?$output_processor@DV?$stream_output_adapter@D@__crt_stdio_output@@V?$format_validation_base@DV?$stream_output_adapter@D@__crt_stdio_output@@@2@@__crt_stdio_output@@AAE_NXZ 100a8e60 f i libucrtd:output.obj
 0002:00051ef0       ?state_case_width@?$output_processor@DV?$stream_output_adapter@D@__crt_stdio_output@@V?$positional_parameter_base@DV?$stream_output_adapter@D@__crt_stdio_output@@@2@@__crt_stdio_output@@AAE_NXZ 100a8ef0 f i libucrtd:output.obj
 0002:00051f80       ?state_case_width@?$output_processor@DV?$stream_output_adapter@D@__crt_stdio_output@@V?$standard_base@DV?$stream_output_adapter@D@__crt_stdio_output@@@2@@__crt_stdio_output@@AAE_NXZ 100a8f80 f i libucrtd:output.obj
 0002:00052010       ?state_case_width@?$output_processor@DV?$string_output_adapter@D@__crt_stdio_output@@V?$format_validation_base@DV?$string_output_adapter@D@__crt_stdio_output@@@2@@__crt_stdio_output@@AAE_NXZ 100a9010 f i libucrtd:output.obj
 0002:000520a0       ?state_case_width@?$output_processor@DV?$string_output_adapter@D@__crt_stdio_output@@V?$positional_parameter_base@DV?$string_output_adapter@D@__crt_stdio_output@@@2@@__crt_stdio_output@@AAE_NXZ 100a90a0 f i libucrtd:output.obj
 0002:00052130       ?state_case_width@?$output_processor@DV?$string_output_adapter@D@__crt_stdio_output@@V?$standard_base@DV?$string_output_adapter@D@__crt_stdio_output@@@2@@__crt_stdio_output@@AAE_NXZ 100a9130 f i libucrtd:output.obj
 0002:000521c0       ?state_case_width@?$output_processor@_WV?$stream_output_adapter@_W@__crt_stdio_output@@V?$format_validation_base@_WV?$stream_output_adapter@_W@__crt_stdio_output@@@2@@__crt_stdio_output@@AAE_NXZ 100a91c0 f i libucrtd:output.obj
 0002:00052250       ?state_case_width@?$output_processor@_WV?$stream_output_adapter@_W@__crt_stdio_output@@V?$positional_parameter_base@_WV?$stream_output_adapter@_W@__crt_stdio_output@@@2@@__crt_stdio_output@@AAE_NXZ 100a9250 f i libucrtd:output.obj
 0002:000522e0       ?state_case_width@?$output_processor@_WV?$stream_output_adapter@_W@__crt_stdio_output@@V?$standard_base@_WV?$stream_output_adapter@_W@__crt_stdio_output@@@2@@__crt_stdio_output@@AAE_NXZ 100a92e0 f i libucrtd:output.obj
 0002:00052370       ?state_case_width@?$output_processor@_WV?$string_output_adapter@_W@__crt_stdio_output@@V?$format_validation_base@_WV?$string_output_adapter@_W@__crt_stdio_output@@@2@@__crt_stdio_output@@AAE_NXZ 100a9370 f i libucrtd:output.obj
 0002:00052400       ?state_case_width@?$output_processor@_WV?$string_output_adapter@_W@__crt_stdio_output@@V?$positional_parameter_base@_WV?$string_output_adapter@_W@__crt_stdio_output@@@2@@__crt_stdio_output@@AAE_NXZ 100a9400 f i libucrtd:output.obj
 0002:00052490       ?state_case_width@?$output_processor@_WV?$string_output_adapter@_W@__crt_stdio_output@@V?$standard_base@_WV?$string_output_adapter@_W@__crt_stdio_output@@@2@@__crt_stdio_output@@AAE_NXZ 100a9490 f i libucrtd:output.obj
 0002:00052520       ?state_count@?$format_validation_base@DV?$stream_output_adapter@D@__crt_stdio_output@@@__crt_stdio_output@@KAIXZ 100a9520 f i libucrtd:output.obj
 0002:00052530       ?state_count@?$format_validation_base@DV?$string_output_adapter@D@__crt_stdio_output@@@__crt_stdio_output@@KAIXZ 100a9530 f i libucrtd:output.obj
 0002:00052540       ?state_count@?$format_validation_base@_WV?$stream_output_adapter@_W@__crt_stdio_output@@@__crt_stdio_output@@KAIXZ 100a9540 f i libucrtd:output.obj
 0002:00052550       ?state_count@?$format_validation_base@_WV?$string_output_adapter@_W@__crt_stdio_output@@@__crt_stdio_output@@KAIXZ 100a9550 f i libucrtd:output.obj
 0002:00052560       ?state_count@?$standard_base@DV?$stream_output_adapter@D@__crt_stdio_output@@@__crt_stdio_output@@KAIXZ 100a9560 f i libucrtd:output.obj
 0002:00052570       ?state_count@?$standard_base@DV?$string_output_adapter@D@__crt_stdio_output@@@__crt_stdio_output@@KAIXZ 100a9570 f i libucrtd:output.obj
 0002:00052580       ?state_count@?$standard_base@_WV?$stream_output_adapter@_W@__crt_stdio_output@@@__crt_stdio_output@@KAIXZ 100a9580 f i libucrtd:output.obj
 0002:00052590       ?state_count@?$standard_base@_WV?$string_output_adapter@_W@__crt_stdio_output@@@__crt_stdio_output@@KAIXZ 100a9590 f i libucrtd:output.obj
 0002:000525a0       ?state_transition_table@?$format_validation_base@DV?$stream_output_adapter@D@__crt_stdio_output@@@__crt_stdio_output@@KAABV?$spectre_mitigated_lookup_table@Ustate_transition_pair@__crt_stdio_output@@$0IA@@2@XZ 100a95a0 f i libucrtd:output.obj
 0002:000525b0       ?state_transition_table@?$format_validation_base@DV?$string_output_adapter@D@__crt_stdio_output@@@__crt_stdio_output@@KAABV?$spectre_mitigated_lookup_table@Ustate_transition_pair@__crt_stdio_output@@$0IA@@2@XZ 100a95b0 f i libucrtd:output.obj
 0002:000525c0       ?state_transition_table@?$format_validation_base@_WV?$stream_output_adapter@_W@__crt_stdio_output@@@__crt_stdio_output@@KAABV?$spectre_mitigated_lookup_table@Ustate_transition_pair@__crt_stdio_output@@$0IA@@2@XZ 100a95c0 f i libucrtd:output.obj
 0002:000525d0       ?state_transition_table@?$format_validation_base@_WV?$string_output_adapter@_W@__crt_stdio_output@@@__crt_stdio_output@@KAABV?$spectre_mitigated_lookup_table@Ustate_transition_pair@__crt_stdio_output@@$0IA@@2@XZ 100a95d0 f i libucrtd:output.obj
 0002:000525e0       ?state_transition_table@?$standard_base@DV?$stream_output_adapter@D@__crt_stdio_output@@@__crt_stdio_output@@KAABV?$spectre_mitigated_lookup_table@Ustate_transition_pair@__crt_stdio_output@@$0IA@@2@XZ 100a95e0 f i libucrtd:output.obj
 0002:000525f0       ?state_transition_table@?$standard_base@DV?$string_output_adapter@D@__crt_stdio_output@@@__crt_stdio_output@@KAABV?$spectre_mitigated_lookup_table@Ustate_transition_pair@__crt_stdio_output@@$0IA@@2@XZ 100a95f0 f i libucrtd:output.obj
 0002:00052600       ?state_transition_table@?$standard_base@_WV?$stream_output_adapter@_W@__crt_stdio_output@@@__crt_stdio_output@@KAABV?$spectre_mitigated_lookup_table@Ustate_transition_pair@__crt_stdio_output@@$0IA@@2@XZ 100a9600 f i libucrtd:output.obj
 0002:00052610       ?state_transition_table@?$standard_base@_WV?$string_output_adapter@_W@__crt_stdio_output@@@__crt_stdio_output@@KAABV?$spectre_mitigated_lookup_table@Ustate_transition_pair@__crt_stdio_output@@$0IA@@2@XZ 100a9610 f i libucrtd:output.obj
 0002:00052620       ?tchar_string@?$common_data@D@__crt_stdio_output@@IAEAAPADD@Z 100a9620 f i libucrtd:output.obj
 0002:00052640       ?tchar_string@?$common_data@D@__crt_stdio_output@@IAEAAPADXZ 100a9640 f i libucrtd:output.obj
 0002:00052660       ?tchar_string@?$common_data@_W@__crt_stdio_output@@IAEAAPA_WXZ 100a9660 f i libucrtd:output.obj
 0002:00052680       ?tchar_string@?$common_data@_W@__crt_stdio_output@@IAEAAPA_W_W@Z 100a9680 f i libucrtd:output.obj
 0002:000526a0       ?to_integer_size@__crt_stdio_output@@YAIW4length_modifier@1@@Z 100a96a0 f i libucrtd:output.obj
 0002:00052770       ?type_case_X@?$output_processor@DV?$stream_output_adapter@D@__crt_stdio_output@@V?$format_validation_base@DV?$stream_output_adapter@D@__crt_stdio_output@@@2@@__crt_stdio_output@@AAE_NXZ 100a9770 f i libucrtd:output.obj
 0002:00052790       ?type_case_X@?$output_processor@DV?$stream_output_adapter@D@__crt_stdio_output@@V?$positional_parameter_base@DV?$stream_output_adapter@D@__crt_stdio_output@@@2@@__crt_stdio_output@@AAE_NXZ 100a9790 f i libucrtd:output.obj
 0002:000527b0       ?type_case_X@?$output_processor@DV?$stream_output_adapter@D@__crt_stdio_output@@V?$standard_base@DV?$stream_output_adapter@D@__crt_stdio_output@@@2@@__crt_stdio_output@@AAE_NXZ 100a97b0 f i libucrtd:output.obj
 0002:000527d0       ?type_case_X@?$output_processor@DV?$string_output_adapter@D@__crt_stdio_output@@V?$format_validation_base@DV?$string_output_adapter@D@__crt_stdio_output@@@2@@__crt_stdio_output@@AAE_NXZ 100a97d0 f i libucrtd:output.obj
 0002:000527f0       ?type_case_X@?$output_processor@DV?$string_output_adapter@D@__crt_stdio_output@@V?$positional_parameter_base@DV?$string_output_adapter@D@__crt_stdio_output@@@2@@__crt_stdio_output@@AAE_NXZ 100a97f0 f i libucrtd:output.obj
 0002:00052810       ?type_case_X@?$output_processor@DV?$string_output_adapter@D@__crt_stdio_output@@V?$standard_base@DV?$string_output_adapter@D@__crt_stdio_output@@@2@@__crt_stdio_output@@AAE_NXZ 100a9810 f i libucrtd:output.obj
 0002:00052830       ?type_case_X@?$output_processor@_WV?$stream_output_adapter@_W@__crt_stdio_output@@V?$format_validation_base@_WV?$stream_output_adapter@_W@__crt_stdio_output@@@2@@__crt_stdio_output@@AAE_NXZ 100a9830 f i libucrtd:output.obj
 0002:00052850       ?type_case_X@?$output_processor@_WV?$stream_output_adapter@_W@__crt_stdio_output@@V?$positional_parameter_base@_WV?$stream_output_adapter@_W@__crt_stdio_output@@@2@@__crt_stdio_output@@AAE_NXZ 100a9850 f i libucrtd:output.obj
 0002:00052870       ?type_case_X@?$output_processor@_WV?$stream_output_adapter@_W@__crt_stdio_output@@V?$standard_base@_WV?$stream_output_adapter@_W@__crt_stdio_output@@@2@@__crt_stdio_output@@AAE_NXZ 100a9870 f i libucrtd:output.obj
 0002:00052890       ?type_case_X@?$output_processor@_WV?$string_output_adapter@_W@__crt_stdio_output@@V?$format_validation_base@_WV?$string_output_adapter@_W@__crt_stdio_output@@@2@@__crt_stdio_output@@AAE_NXZ 100a9890 f i libucrtd:output.obj
 0002:000528b0       ?type_case_X@?$output_processor@_WV?$string_output_adapter@_W@__crt_stdio_output@@V?$positional_parameter_base@_WV?$string_output_adapter@_W@__crt_stdio_output@@@2@@__crt_stdio_output@@AAE_NXZ 100a98b0 f i libucrtd:output.obj
 0002:000528d0       ?type_case_X@?$output_processor@_WV?$string_output_adapter@_W@__crt_stdio_output@@V?$standard_base@_WV?$string_output_adapter@_W@__crt_stdio_output@@@2@@__crt_stdio_output@@AAE_NXZ 100a98d0 f i libucrtd:output.obj
 0002:000528f0       ?type_case_Z@?$output_processor@DV?$stream_output_adapter@D@__crt_stdio_output@@V?$format_validation_base@DV?$stream_output_adapter@D@__crt_stdio_output@@@2@@__crt_stdio_output@@AAE_NXZ 100a98f0 f i libucrtd:output.obj
 0002:00052a20       ?type_case_Z@?$output_processor@DV?$stream_output_adapter@D@__crt_stdio_output@@V?$positional_parameter_base@DV?$stream_output_adapter@D@__crt_stdio_output@@@2@@__crt_stdio_output@@AAE_NXZ 100a9a20 f i libucrtd:output.obj
 0002:00052b50       ?type_case_Z@?$output_processor@DV?$stream_output_adapter@D@__crt_stdio_output@@V?$standard_base@DV?$stream_output_adapter@D@__crt_stdio_output@@@2@@__crt_stdio_output@@AAE_NXZ 100a9b50 f i libucrtd:output.obj
 0002:00052c80       ?type_case_Z@?$output_processor@DV?$string_output_adapter@D@__crt_stdio_output@@V?$format_validation_base@DV?$string_output_adapter@D@__crt_stdio_output@@@2@@__crt_stdio_output@@AAE_NXZ 100a9c80 f i libucrtd:output.obj
 0002:00052db0       ?type_case_Z@?$output_processor@DV?$string_output_adapter@D@__crt_stdio_output@@V?$positional_parameter_base@DV?$string_output_adapter@D@__crt_stdio_output@@@2@@__crt_stdio_output@@AAE_NXZ 100a9db0 f i libucrtd:output.obj
 0002:00052ee0       ?type_case_Z@?$output_processor@DV?$string_output_adapter@D@__crt_stdio_output@@V?$standard_base@DV?$string_output_adapter@D@__crt_stdio_output@@@2@@__crt_stdio_output@@AAE_NXZ 100a9ee0 f i libucrtd:output.obj
 0002:00053010       ?type_case_Z@?$output_processor@_WV?$stream_output_adapter@_W@__crt_stdio_output@@V?$format_validation_base@_WV?$stream_output_adapter@_W@__crt_stdio_output@@@2@@__crt_stdio_output@@AAE_NXZ 100aa010 f i libucrtd:output.obj
 0002:00053140       ?type_case_Z@?$output_processor@_WV?$stream_output_adapter@_W@__crt_stdio_output@@V?$positional_parameter_base@_WV?$stream_output_adapter@_W@__crt_stdio_output@@@2@@__crt_stdio_output@@AAE_NXZ 100aa140 f i libucrtd:output.obj
 0002:00053270       ?type_case_Z@?$output_processor@_WV?$stream_output_adapter@_W@__crt_stdio_output@@V?$standard_base@_WV?$stream_output_adapter@_W@__crt_stdio_output@@@2@@__crt_stdio_output@@AAE_NXZ 100aa270 f i libucrtd:output.obj
 0002:000533a0       ?type_case_Z@?$output_processor@_WV?$string_output_adapter@_W@__crt_stdio_output@@V?$format_validation_base@_WV?$string_output_adapter@_W@__crt_stdio_output@@@2@@__crt_stdio_output@@AAE_NXZ 100aa3a0 f i libucrtd:output.obj
 0002:000534d0       ?type_case_Z@?$output_processor@_WV?$string_output_adapter@_W@__crt_stdio_output@@V?$positional_parameter_base@_WV?$string_output_adapter@_W@__crt_stdio_output@@@2@@__crt_stdio_output@@AAE_NXZ 100aa4d0 f i libucrtd:output.obj
 0002:00053600       ?type_case_Z@?$output_processor@_WV?$string_output_adapter@_W@__crt_stdio_output@@V?$standard_base@_WV?$string_output_adapter@_W@__crt_stdio_output@@@2@@__crt_stdio_output@@AAE_NXZ 100aa600 f i libucrtd:output.obj
 0002:00053730       ?type_case_a@?$output_processor@DV?$stream_output_adapter@D@__crt_stdio_output@@V?$format_validation_base@DV?$stream_output_adapter@D@__crt_stdio_output@@@2@@__crt_stdio_output@@AAE_NXZ 100aa730 f i libucrtd:output.obj
 0002:00053ab0       ?type_case_a@?$output_processor@DV?$stream_output_adapter@D@__crt_stdio_output@@V?$positional_parameter_base@DV?$stream_output_adapter@D@__crt_stdio_output@@@2@@__crt_stdio_output@@AAE_NXZ 100aaab0 f i libucrtd:output.obj
 0002:00053e30       ?type_case_a@?$output_processor@DV?$stream_output_adapter@D@__crt_stdio_output@@V?$standard_base@DV?$stream_output_adapter@D@__crt_stdio_output@@@2@@__crt_stdio_output@@AAE_NXZ 100aae30 f i libucrtd:output.obj
 0002:000541b0       ?type_case_a@?$output_processor@DV?$string_output_adapter@D@__crt_stdio_output@@V?$format_validation_base@DV?$string_output_adapter@D@__crt_stdio_output@@@2@@__crt_stdio_output@@AAE_NXZ 100ab1b0 f i libucrtd:output.obj
 0002:00054530       ?type_case_a@?$output_processor@DV?$string_output_adapter@D@__crt_stdio_output@@V?$positional_parameter_base@DV?$string_output_adapter@D@__crt_stdio_output@@@2@@__crt_stdio_output@@AAE_NXZ 100ab530 f i libucrtd:output.obj
 0002:000548b0       ?type_case_a@?$output_processor@DV?$string_output_adapter@D@__crt_stdio_output@@V?$standard_base@DV?$string_output_adapter@D@__crt_stdio_output@@@2@@__crt_stdio_output@@AAE_NXZ 100ab8b0 f i libucrtd:output.obj
 0002:00054c30       ?type_case_a@?$output_processor@_WV?$stream_output_adapter@_W@__crt_stdio_output@@V?$format_validation_base@_WV?$stream_output_adapter@_W@__crt_stdio_output@@@2@@__crt_stdio_output@@AAE_NXZ 100abc30 f i libucrtd:output.obj
 0002:00054fc0       ?type_case_a@?$output_processor@_WV?$stream_output_adapter@_W@__crt_stdio_output@@V?$positional_parameter_base@_WV?$stream_output_adapter@_W@__crt_stdio_output@@@2@@__crt_stdio_output@@AAE_NXZ 100abfc0 f i libucrtd:output.obj
 0002:00055350       ?type_case_a@?$output_processor@_WV?$stream_output_adapter@_W@__crt_stdio_output@@V?$standard_base@_WV?$stream_output_adapter@_W@__crt_stdio_output@@@2@@__crt_stdio_output@@AAE_NXZ 100ac350 f i libucrtd:output.obj
 0002:000556e0       ?type_case_a@?$output_processor@_WV?$string_output_adapter@_W@__crt_stdio_output@@V?$format_validation_base@_WV?$string_output_adapter@_W@__crt_stdio_output@@@2@@__crt_stdio_output@@AAE_NXZ 100ac6e0 f i libucrtd:output.obj
 0002:00055a70       ?type_case_a@?$output_processor@_WV?$string_output_adapter@_W@__crt_stdio_output@@V?$positional_parameter_base@_WV?$string_output_adapter@_W@__crt_stdio_output@@@2@@__crt_stdio_output@@AAE_NXZ 100aca70 f i libucrtd:output.obj
 0002:00055e00       ?type_case_a@?$output_processor@_WV?$string_output_adapter@_W@__crt_stdio_output@@V?$standard_base@_WV?$string_output_adapter@_W@__crt_stdio_output@@@2@@__crt_stdio_output@@AAE_NXZ 100ace00 f i libucrtd:output.obj
 0002:00056190       ?type_case_c@?$output_processor@DV?$stream_output_adapter@D@__crt_stdio_output@@V?$format_validation_base@DV?$stream_output_adapter@D@__crt_stdio_output@@@2@@__crt_stdio_output@@AAE_NXZ 100ad190 f i libucrtd:output.obj
 0002:000561b0       ?type_case_c@?$output_processor@DV?$stream_output_adapter@D@__crt_stdio_output@@V?$positional_parameter_base@DV?$stream_output_adapter@D@__crt_stdio_output@@@2@@__crt_stdio_output@@AAE_NXZ 100ad1b0 f i libucrtd:output.obj
 0002:000561d0       ?type_case_c@?$output_processor@DV?$stream_output_adapter@D@__crt_stdio_output@@V?$standard_base@DV?$stream_output_adapter@D@__crt_stdio_output@@@2@@__crt_stdio_output@@AAE_NXZ 100ad1d0 f i libucrtd:output.obj
 0002:000561f0       ?type_case_c@?$output_processor@DV?$string_output_adapter@D@__crt_stdio_output@@V?$format_validation_base@DV?$string_output_adapter@D@__crt_stdio_output@@@2@@__crt_stdio_output@@AAE_NXZ 100ad1f0 f i libucrtd:output.obj
 0002:00056210       ?type_case_c@?$output_processor@DV?$string_output_adapter@D@__crt_stdio_output@@V?$positional_parameter_base@DV?$string_output_adapter@D@__crt_stdio_output@@@2@@__crt_stdio_output@@AAE_NXZ 100ad210 f i libucrtd:output.obj
 0002:00056230       ?type_case_c@?$output_processor@DV?$string_output_adapter@D@__crt_stdio_output@@V?$standard_base@DV?$string_output_adapter@D@__crt_stdio_output@@@2@@__crt_stdio_output@@AAE_NXZ 100ad230 f i libucrtd:output.obj
 0002:00056250       ?type_case_c@?$output_processor@_WV?$stream_output_adapter@_W@__crt_stdio_output@@V?$format_validation_base@_WV?$stream_output_adapter@_W@__crt_stdio_output@@@2@@__crt_stdio_output@@AAE_NXZ 100ad250 f i libucrtd:output.obj
 0002:00056270       ?type_case_c@?$output_processor@_WV?$stream_output_adapter@_W@__crt_stdio_output@@V?$positional_parameter_base@_WV?$stream_output_adapter@_W@__crt_stdio_output@@@2@@__crt_stdio_output@@AAE_NXZ 100ad270 f i libucrtd:output.obj
 0002:00056290       ?type_case_c@?$output_processor@_WV?$stream_output_adapter@_W@__crt_stdio_output@@V?$standard_base@_WV?$stream_output_adapter@_W@__crt_stdio_output@@@2@@__crt_stdio_output@@AAE_NXZ 100ad290 f i libucrtd:output.obj
 0002:000562b0       ?type_case_c@?$output_processor@_WV?$string_output_adapter@_W@__crt_stdio_output@@V?$format_validation_base@_WV?$string_output_adapter@_W@__crt_stdio_output@@@2@@__crt_stdio_output@@AAE_NXZ 100ad2b0 f i libucrtd:output.obj
 0002:000562d0       ?type_case_c@?$output_processor@_WV?$string_output_adapter@_W@__crt_stdio_output@@V?$positional_parameter_base@_WV?$string_output_adapter@_W@__crt_stdio_output@@@2@@__crt_stdio_output@@AAE_NXZ 100ad2d0 f i libucrtd:output.obj
 0002:000562f0       ?type_case_c@?$output_processor@_WV?$string_output_adapter@_W@__crt_stdio_output@@V?$standard_base@_WV?$string_output_adapter@_W@__crt_stdio_output@@@2@@__crt_stdio_output@@AAE_NXZ 100ad2f0 f i libucrtd:output.obj
 0002:00056310       ?type_case_c_tchar@?$output_processor@DV?$stream_output_adapter@D@__crt_stdio_output@@V?$format_validation_base@DV?$stream_output_adapter@D@__crt_stdio_output@@@2@@__crt_stdio_output@@AAE_ND@Z 100ad310 f i libucrtd:output.obj
 0002:00056490       ?type_case_c_tchar@?$output_processor@DV?$stream_output_adapter@D@__crt_stdio_output@@V?$positional_parameter_base@DV?$stream_output_adapter@D@__crt_stdio_output@@@2@@__crt_stdio_output@@AAE_ND@Z 100ad490 f i libucrtd:output.obj
 0002:00056610       ?type_case_c_tchar@?$output_processor@DV?$stream_output_adapter@D@__crt_stdio_output@@V?$standard_base@DV?$stream_output_adapter@D@__crt_stdio_output@@@2@@__crt_stdio_output@@AAE_ND@Z 100ad610 f i libucrtd:output.obj
 0002:00056790       ?type_case_c_tchar@?$output_processor@DV?$string_output_adapter@D@__crt_stdio_output@@V?$format_validation_base@DV?$string_output_adapter@D@__crt_stdio_output@@@2@@__crt_stdio_output@@AAE_ND@Z 100ad790 f i libucrtd:output.obj
 0002:00056910       ?type_case_c_tchar@?$output_processor@DV?$string_output_adapter@D@__crt_stdio_output@@V?$positional_parameter_base@DV?$string_output_adapter@D@__crt_stdio_output@@@2@@__crt_stdio_output@@AAE_ND@Z 100ad910 f i libucrtd:output.obj
 0002:00056a90       ?type_case_c_tchar@?$output_processor@DV?$string_output_adapter@D@__crt_stdio_output@@V?$standard_base@DV?$string_output_adapter@D@__crt_stdio_output@@@2@@__crt_stdio_output@@AAE_ND@Z 100ada90 f i libucrtd:output.obj
 0002:00056c10       ?type_case_c_tchar@?$output_processor@_WV?$stream_output_adapter@_W@__crt_stdio_output@@V?$format_validation_base@_WV?$stream_output_adapter@_W@__crt_stdio_output@@@2@@__crt_stdio_output@@AAE_N_W@Z 100adc10 f i libucrtd:output.obj
 0002:00056d80       ?type_case_c_tchar@?$output_processor@_WV?$stream_output_adapter@_W@__crt_stdio_output@@V?$positional_parameter_base@_WV?$stream_output_adapter@_W@__crt_stdio_output@@@2@@__crt_stdio_output@@AAE_N_W@Z 100add80 f i libucrtd:output.obj
 0002:00056ef0       ?type_case_c_tchar@?$output_processor@_WV?$stream_output_adapter@_W@__crt_stdio_output@@V?$standard_base@_WV?$stream_output_adapter@_W@__crt_stdio_output@@@2@@__crt_stdio_output@@AAE_N_W@Z 100adef0 f i libucrtd:output.obj
 0002:00057060       ?type_case_c_tchar@?$output_processor@_WV?$string_output_adapter@_W@__crt_stdio_output@@V?$format_validation_base@_WV?$string_output_adapter@_W@__crt_stdio_output@@@2@@__crt_stdio_output@@AAE_N_W@Z 100ae060 f i libucrtd:output.obj
 0002:000571d0       ?type_case_c_tchar@?$output_processor@_WV?$string_output_adapter@_W@__crt_stdio_output@@V?$positional_parameter_base@_WV?$string_output_adapter@_W@__crt_stdio_output@@@2@@__crt_stdio_output@@AAE_N_W@Z 100ae1d0 f i libucrtd:output.obj
 0002:00057340       ?type_case_c_tchar@?$output_processor@_WV?$string_output_adapter@_W@__crt_stdio_output@@V?$standard_base@_WV?$string_output_adapter@_W@__crt_stdio_output@@@2@@__crt_stdio_output@@AAE_N_W@Z 100ae340 f i libucrtd:output.obj
 0002:000574b0       ?type_case_d@?$output_processor@DV?$stream_output_adapter@D@__crt_stdio_output@@V?$format_validation_base@DV?$stream_output_adapter@D@__crt_stdio_output@@@2@@__crt_stdio_output@@AAE_NXZ 100ae4b0 f i libucrtd:output.obj
 0002:000574e0       ?type_case_d@?$output_processor@DV?$stream_output_adapter@D@__crt_stdio_output@@V?$positional_parameter_base@DV?$stream_output_adapter@D@__crt_stdio_output@@@2@@__crt_stdio_output@@AAE_NXZ 100ae4e0 f i libucrtd:output.obj
 0002:00057510       ?type_case_d@?$output_processor@DV?$stream_output_adapter@D@__crt_stdio_output@@V?$standard_base@DV?$stream_output_adapter@D@__crt_stdio_output@@@2@@__crt_stdio_output@@AAE_NXZ 100ae510 f i libucrtd:output.obj
 0002:00057540       ?type_case_d@?$output_processor@DV?$string_output_adapter@D@__crt_stdio_output@@V?$format_validation_base@DV?$string_output_adapter@D@__crt_stdio_output@@@2@@__crt_stdio_output@@AAE_NXZ 100ae540 f i libucrtd:output.obj
 0002:00057570       ?type_case_d@?$output_processor@DV?$string_output_adapter@D@__crt_stdio_output@@V?$positional_parameter_base@DV?$string_output_adapter@D@__crt_stdio_output@@@2@@__crt_stdio_output@@AAE_NXZ 100ae570 f i libucrtd:output.obj
 0002:000575a0       ?type_case_d@?$output_processor@DV?$string_output_adapter@D@__crt_stdio_output@@V?$standard_base@DV?$string_output_adapter@D@__crt_stdio_output@@@2@@__crt_stdio_output@@AAE_NXZ 100ae5a0 f i libucrtd:output.obj
 0002:000575d0       ?type_case_d@?$output_processor@_WV?$stream_output_adapter@_W@__crt_stdio_output@@V?$format_validation_base@_WV?$stream_output_adapter@_W@__crt_stdio_output@@@2@@__crt_stdio_output@@AAE_NXZ 100ae5d0 f i libucrtd:output.obj
 0002:00057600       ?type_case_d@?$output_processor@_WV?$stream_output_adapter@_W@__crt_stdio_output@@V?$positional_parameter_base@_WV?$stream_output_adapter@_W@__crt_stdio_output@@@2@@__crt_stdio_output@@AAE_NXZ 100ae600 f i libucrtd:output.obj
 0002:00057630       ?type_case_d@?$output_processor@_WV?$stream_output_adapter@_W@__crt_stdio_output@@V?$standard_base@_WV?$stream_output_adapter@_W@__crt_stdio_output@@@2@@__crt_stdio_output@@AAE_NXZ 100ae630 f i libucrtd:output.obj
 0002:00057660       ?type_case_d@?$output_processor@_WV?$string_output_adapter@_W@__crt_stdio_output@@V?$format_validation_base@_WV?$string_output_adapter@_W@__crt_stdio_output@@@2@@__crt_stdio_output@@AAE_NXZ 100ae660 f i libucrtd:output.obj
 0002:00057690       ?type_case_d@?$output_processor@_WV?$string_output_adapter@_W@__crt_stdio_output@@V?$positional_parameter_base@_WV?$string_output_adapter@_W@__crt_stdio_output@@@2@@__crt_stdio_output@@AAE_NXZ 100ae690 f i libucrtd:output.obj
 0002:000576c0       ?type_case_d@?$output_processor@_WV?$string_output_adapter@_W@__crt_stdio_output@@V?$standard_base@_WV?$string_output_adapter@_W@__crt_stdio_output@@@2@@__crt_stdio_output@@AAE_NXZ 100ae6c0 f i libucrtd:output.obj
 0002:000576f0       ?type_case_n@?$output_processor@DV?$stream_output_adapter@D@__crt_stdio_output@@V?$format_validation_base@DV?$stream_output_adapter@D@__crt_stdio_output@@@2@@__crt_stdio_output@@AAE_NXZ 100ae6f0 f i libucrtd:output.obj
 0002:00057990       ?type_case_n@?$output_processor@DV?$stream_output_adapter@D@__crt_stdio_output@@V?$positional_parameter_base@DV?$stream_output_adapter@D@__crt_stdio_output@@@2@@__crt_stdio_output@@AAE_NXZ 100ae990 f i libucrtd:output.obj
 0002:00057c30       ?type_case_n@?$output_processor@DV?$stream_output_adapter@D@__crt_stdio_output@@V?$standard_base@DV?$stream_output_adapter@D@__crt_stdio_output@@@2@@__crt_stdio_output@@AAE_NXZ 100aec30 f i libucrtd:output.obj
 0002:00057ed0       ?type_case_n@?$output_processor@DV?$string_output_adapter@D@__crt_stdio_output@@V?$format_validation_base@DV?$string_output_adapter@D@__crt_stdio_output@@@2@@__crt_stdio_output@@AAE_NXZ 100aeed0 f i libucrtd:output.obj
 0002:00058170       ?type_case_n@?$output_processor@DV?$string_output_adapter@D@__crt_stdio_output@@V?$positional_parameter_base@DV?$string_output_adapter@D@__crt_stdio_output@@@2@@__crt_stdio_output@@AAE_NXZ 100af170 f i libucrtd:output.obj
 0002:00058410       ?type_case_n@?$output_processor@DV?$string_output_adapter@D@__crt_stdio_output@@V?$standard_base@DV?$string_output_adapter@D@__crt_stdio_output@@@2@@__crt_stdio_output@@AAE_NXZ 100af410 f i libucrtd:output.obj
 0002:000586b0       ?type_case_n@?$output_processor@_WV?$stream_output_adapter@_W@__crt_stdio_output@@V?$format_validation_base@_WV?$stream_output_adapter@_W@__crt_stdio_output@@@2@@__crt_stdio_output@@AAE_NXZ 100af6b0 f i libucrtd:output.obj
 0002:00058950       ?type_case_n@?$output_processor@_WV?$stream_output_adapter@_W@__crt_stdio_output@@V?$positional_parameter_base@_WV?$stream_output_adapter@_W@__crt_stdio_output@@@2@@__crt_stdio_output@@AAE_NXZ 100af950 f i libucrtd:output.obj
 0002:00058bf0       ?type_case_n@?$output_processor@_WV?$stream_output_adapter@_W@__crt_stdio_output@@V?$standard_base@_WV?$stream_output_adapter@_W@__crt_stdio_output@@@2@@__crt_stdio_output@@AAE_NXZ 100afbf0 f i libucrtd:output.obj
 0002:00058e90       ?type_case_n@?$output_processor@_WV?$string_output_adapter@_W@__crt_stdio_output@@V?$format_validation_base@_WV?$string_output_adapter@_W@__crt_stdio_output@@@2@@__crt_stdio_output@@AAE_NXZ 100afe90 f i libucrtd:output.obj
 0002:00059130       ?type_case_n@?$output_processor@_WV?$string_output_adapter@_W@__crt_stdio_output@@V?$positional_parameter_base@_WV?$string_output_adapter@_W@__crt_stdio_output@@@2@@__crt_stdio_output@@AAE_NXZ 100b0130 f i libucrtd:output.obj
 0002:000593d0       ?type_case_n@?$output_processor@_WV?$string_output_adapter@_W@__crt_stdio_output@@V?$standard_base@_WV?$string_output_adapter@_W@__crt_stdio_output@@@2@@__crt_stdio_output@@AAE_NXZ 100b03d0 f i libucrtd:output.obj
 0002:00059670       ?type_case_o@?$output_processor@DV?$stream_output_adapter@D@__crt_stdio_output@@V?$format_validation_base@DV?$stream_output_adapter@D@__crt_stdio_output@@@2@@__crt_stdio_output@@AAE_NXZ 100b0670 f i libucrtd:output.obj
 0002:000596c0       ?type_case_o@?$output_processor@DV?$stream_output_adapter@D@__crt_stdio_output@@V?$positional_parameter_base@DV?$stream_output_adapter@D@__crt_stdio_output@@@2@@__crt_stdio_output@@AAE_NXZ 100b06c0 f i libucrtd:output.obj
 0002:00059710       ?type_case_o@?$output_processor@DV?$stream_output_adapter@D@__crt_stdio_output@@V?$standard_base@DV?$stream_output_adapter@D@__crt_stdio_output@@@2@@__crt_stdio_output@@AAE_NXZ 100b0710 f i libucrtd:output.obj
 0002:00059760       ?type_case_o@?$output_processor@DV?$string_output_adapter@D@__crt_stdio_output@@V?$format_validation_base@DV?$string_output_adapter@D@__crt_stdio_output@@@2@@__crt_stdio_output@@AAE_NXZ 100b0760 f i libucrtd:output.obj
 0002:000597b0       ?type_case_o@?$output_processor@DV?$string_output_adapter@D@__crt_stdio_output@@V?$positional_parameter_base@DV?$string_output_adapter@D@__crt_stdio_output@@@2@@__crt_stdio_output@@AAE_NXZ 100b07b0 f i libucrtd:output.obj
 0002:00059800       ?type_case_o@?$output_processor@DV?$string_output_adapter@D@__crt_stdio_output@@V?$standard_base@DV?$string_output_adapter@D@__crt_stdio_output@@@2@@__crt_stdio_output@@AAE_NXZ 100b0800 f i libucrtd:output.obj
 0002:00059850       ?type_case_o@?$output_processor@_WV?$stream_output_adapter@_W@__crt_stdio_output@@V?$format_validation_base@_WV?$stream_output_adapter@_W@__crt_stdio_output@@@2@@__crt_stdio_output@@AAE_NXZ 100b0850 f i libucrtd:output.obj
 0002:000598a0       ?type_case_o@?$output_processor@_WV?$stream_output_adapter@_W@__crt_stdio_output@@V?$positional_parameter_base@_WV?$stream_output_adapter@_W@__crt_stdio_output@@@2@@__crt_stdio_output@@AAE_NXZ 100b08a0 f i libucrtd:output.obj
 0002:000598f0       ?type_case_o@?$output_processor@_WV?$stream_output_adapter@_W@__crt_stdio_output@@V?$standard_base@_WV?$stream_output_adapter@_W@__crt_stdio_output@@@2@@__crt_stdio_output@@AAE_NXZ 100b08f0 f i libucrtd:output.obj
 0002:00059940       ?type_case_o@?$output_processor@_WV?$string_output_adapter@_W@__crt_stdio_output@@V?$format_validation_base@_WV?$string_output_adapter@_W@__crt_stdio_output@@@2@@__crt_stdio_output@@AAE_NXZ 100b0940 f i libucrtd:output.obj
 0002:00059990       ?type_case_o@?$output_processor@_WV?$string_output_adapter@_W@__crt_stdio_output@@V?$positional_parameter_base@_WV?$string_output_adapter@_W@__crt_stdio_output@@@2@@__crt_stdio_output@@AAE_NXZ 100b0990 f i libucrtd:output.obj
 0002:000599e0       ?type_case_o@?$output_processor@_WV?$string_output_adapter@_W@__crt_stdio_output@@V?$standard_base@_WV?$string_output_adapter@_W@__crt_stdio_output@@@2@@__crt_stdio_output@@AAE_NXZ 100b09e0 f i libucrtd:output.obj
 0002:00059a30       ?type_case_p@?$output_processor@DV?$stream_output_adapter@D@__crt_stdio_output@@V?$format_validation_base@DV?$stream_output_adapter@D@__crt_stdio_output@@@2@@__crt_stdio_output@@AAE_NXZ 100b0a30 f i libucrtd:output.obj
 0002:00059a70       ?type_case_p@?$output_processor@DV?$stream_output_adapter@D@__crt_stdio_output@@V?$positional_parameter_base@DV?$stream_output_adapter@D@__crt_stdio_output@@@2@@__crt_stdio_output@@AAE_NXZ 100b0a70 f i libucrtd:output.obj
 0002:00059ab0       ?type_case_p@?$output_processor@DV?$stream_output_adapter@D@__crt_stdio_output@@V?$standard_base@DV?$stream_output_adapter@D@__crt_stdio_output@@@2@@__crt_stdio_output@@AAE_NXZ 100b0ab0 f i libucrtd:output.obj
 0002:00059af0       ?type_case_p@?$output_processor@DV?$string_output_adapter@D@__crt_stdio_output@@V?$format_validation_base@DV?$string_output_adapter@D@__crt_stdio_output@@@2@@__crt_stdio_output@@AAE_NXZ 100b0af0 f i libucrtd:output.obj
 0002:00059b30       ?type_case_p@?$output_processor@DV?$string_output_adapter@D@__crt_stdio_output@@V?$positional_parameter_base@DV?$string_output_adapter@D@__crt_stdio_output@@@2@@__crt_stdio_output@@AAE_NXZ 100b0b30 f i libucrtd:output.obj
 0002:00059b70       ?type_case_p@?$output_processor@DV?$string_output_adapter@D@__crt_stdio_output@@V?$standard_base@DV?$string_output_adapter@D@__crt_stdio_output@@@2@@__crt_stdio_output@@AAE_NXZ 100b0b70 f i libucrtd:output.obj
 0002:00059bb0       ?type_case_p@?$output_processor@_WV?$stream_output_adapter@_W@__crt_stdio_output@@V?$format_validation_base@_WV?$stream_output_adapter@_W@__crt_stdio_output@@@2@@__crt_stdio_output@@AAE_NXZ 100b0bb0 f i libucrtd:output.obj
 0002:00059bf0       ?type_case_p@?$output_processor@_WV?$stream_output_adapter@_W@__crt_stdio_output@@V?$positional_parameter_base@_WV?$stream_output_adapter@_W@__crt_stdio_output@@@2@@__crt_stdio_output@@AAE_NXZ 100b0bf0 f i libucrtd:output.obj
 0002:00059c30       ?type_case_p@?$output_processor@_WV?$stream_output_adapter@_W@__crt_stdio_output@@V?$standard_base@_WV?$stream_output_adapter@_W@__crt_stdio_output@@@2@@__crt_stdio_output@@AAE_NXZ 100b0c30 f i libucrtd:output.obj
 0002:00059c70       ?type_case_p@?$output_processor@_WV?$string_output_adapter@_W@__crt_stdio_output@@V?$format_validation_base@_WV?$string_output_adapter@_W@__crt_stdio_output@@@2@@__crt_stdio_output@@AAE_NXZ 100b0c70 f i libucrtd:output.obj
 0002:00059cb0       ?type_case_p@?$output_processor@_WV?$string_output_adapter@_W@__crt_stdio_output@@V?$positional_parameter_base@_WV?$string_output_adapter@_W@__crt_stdio_output@@@2@@__crt_stdio_output@@AAE_NXZ 100b0cb0 f i libucrtd:output.obj
 0002:00059cf0       ?type_case_p@?$output_processor@_WV?$string_output_adapter@_W@__crt_stdio_output@@V?$standard_base@_WV?$string_output_adapter@_W@__crt_stdio_output@@@2@@__crt_stdio_output@@AAE_NXZ 100b0cf0 f i libucrtd:output.obj
 0002:00059d30       ?type_case_s@?$output_processor@DV?$stream_output_adapter@D@__crt_stdio_output@@V?$format_validation_base@DV?$stream_output_adapter@D@__crt_stdio_output@@@2@@__crt_stdio_output@@AAE_NXZ 100b0d30 f i libucrtd:output.obj
 0002:00059e60       ?type_case_s@?$output_processor@DV?$stream_output_adapter@D@__crt_stdio_output@@V?$positional_parameter_base@DV?$stream_output_adapter@D@__crt_stdio_output@@@2@@__crt_stdio_output@@AAE_NXZ 100b0e60 f i libucrtd:output.obj
 0002:00059f90       ?type_case_s@?$output_processor@DV?$stream_output_adapter@D@__crt_stdio_output@@V?$standard_base@DV?$stream_output_adapter@D@__crt_stdio_output@@@2@@__crt_stdio_output@@AAE_NXZ 100b0f90 f i libucrtd:output.obj
 0002:0005a0c0       ?type_case_s@?$output_processor@DV?$string_output_adapter@D@__crt_stdio_output@@V?$format_validation_base@DV?$string_output_adapter@D@__crt_stdio_output@@@2@@__crt_stdio_output@@AAE_NXZ 100b10c0 f i libucrtd:output.obj
 0002:0005a1f0       ?type_case_s@?$output_processor@DV?$string_output_adapter@D@__crt_stdio_output@@V?$positional_parameter_base@DV?$string_output_adapter@D@__crt_stdio_output@@@2@@__crt_stdio_output@@AAE_NXZ 100b11f0 f i libucrtd:output.obj
 0002:0005a320       ?type_case_s@?$output_processor@DV?$string_output_adapter@D@__crt_stdio_output@@V?$standard_base@DV?$string_output_adapter@D@__crt_stdio_output@@@2@@__crt_stdio_output@@AAE_NXZ 100b1320 f i libucrtd:output.obj
 0002:0005a450       ?type_case_s@?$output_processor@_WV?$stream_output_adapter@_W@__crt_stdio_output@@V?$format_validation_base@_WV?$stream_output_adapter@_W@__crt_stdio_output@@@2@@__crt_stdio_output@@AAE_NXZ 100b1450 f i libucrtd:output.obj
 0002:0005a580       ?type_case_s@?$output_processor@_WV?$stream_output_adapter@_W@__crt_stdio_output@@V?$positional_parameter_base@_WV?$stream_output_adapter@_W@__crt_stdio_output@@@2@@__crt_stdio_output@@AAE_NXZ 100b1580 f i libucrtd:output.obj
 0002:0005a6b0       ?type_case_s@?$output_processor@_WV?$stream_output_adapter@_W@__crt_stdio_output@@V?$standard_base@_WV?$stream_output_adapter@_W@__crt_stdio_output@@@2@@__crt_stdio_output@@AAE_NXZ 100b16b0 f i libucrtd:output.obj
 0002:0005a7e0       ?type_case_s@?$output_processor@_WV?$string_output_adapter@_W@__crt_stdio_output@@V?$format_validation_base@_WV?$string_output_adapter@_W@__crt_stdio_output@@@2@@__crt_stdio_output@@AAE_NXZ 100b17e0 f i libucrtd:output.obj
 0002:0005a910       ?type_case_s@?$output_processor@_WV?$string_output_adapter@_W@__crt_stdio_output@@V?$positional_parameter_base@_WV?$string_output_adapter@_W@__crt_stdio_output@@@2@@__crt_stdio_output@@AAE_NXZ 100b1910 f i libucrtd:output.obj
 0002:0005aa40       ?type_case_s@?$output_processor@_WV?$string_output_adapter@_W@__crt_stdio_output@@V?$standard_base@_WV?$string_output_adapter@_W@__crt_stdio_output@@@2@@__crt_stdio_output@@AAE_NXZ 100b1a40 f i libucrtd:output.obj
 0002:0005ab70       ?type_case_s_compute_narrow_string_length@?$output_processor@DV?$stream_output_adapter@D@__crt_stdio_output@@V?$format_validation_base@DV?$stream_output_adapter@D@__crt_stdio_output@@@2@@__crt_stdio_output@@AAEHHD@Z 100b1b70 f i libucrtd:output.obj
 0002:0005aba0       ?type_case_s_compute_narrow_string_length@?$output_processor@DV?$stream_output_adapter@D@__crt_stdio_output@@V?$positional_parameter_base@DV?$stream_output_adapter@D@__crt_stdio_output@@@2@@__crt_stdio_output@@AAEHHD@Z 100b1ba0 f i libucrtd:output.obj
 0002:0005abd0       ?type_case_s_compute_narrow_string_length@?$output_processor@DV?$stream_output_adapter@D@__crt_stdio_output@@V?$standard_base@DV?$stream_output_adapter@D@__crt_stdio_output@@@2@@__crt_stdio_output@@AAEHHD@Z 100b1bd0 f i libucrtd:output.obj
 0002:0005ac00       ?type_case_s_compute_narrow_string_length@?$output_processor@DV?$string_output_adapter@D@__crt_stdio_output@@V?$format_validation_base@DV?$string_output_adapter@D@__crt_stdio_output@@@2@@__crt_stdio_output@@AAEHHD@Z 100b1c00 f i libucrtd:output.obj
 0002:0005ac30       ?type_case_s_compute_narrow_string_length@?$output_processor@DV?$string_output_adapter@D@__crt_stdio_output@@V?$positional_parameter_base@DV?$string_output_adapter@D@__crt_stdio_output@@@2@@__crt_stdio_output@@AAEHHD@Z 100b1c30 f i libucrtd:output.obj
 0002:0005ac60       ?type_case_s_compute_narrow_string_length@?$output_processor@DV?$string_output_adapter@D@__crt_stdio_output@@V?$standard_base@DV?$string_output_adapter@D@__crt_stdio_output@@@2@@__crt_stdio_output@@AAEHHD@Z 100b1c60 f i libucrtd:output.obj
 0002:0005ac90       ?type_case_s_compute_narrow_string_length@?$output_processor@_WV?$stream_output_adapter@_W@__crt_stdio_output@@V?$format_validation_base@_WV?$stream_output_adapter@_W@__crt_stdio_output@@@2@@__crt_stdio_output@@AAEHH_W@Z 100b1c90 f i libucrtd:output.obj
 0002:0005ae10       ?type_case_s_compute_narrow_string_length@?$output_processor@_WV?$stream_output_adapter@_W@__crt_stdio_output@@V?$positional_parameter_base@_WV?$stream_output_adapter@_W@__crt_stdio_output@@@2@@__crt_stdio_output@@AAEHH_W@Z 100b1e10 f i libucrtd:output.obj
 0002:0005af90       ?type_case_s_compute_narrow_string_length@?$output_processor@_WV?$stream_output_adapter@_W@__crt_stdio_output@@V?$standard_base@_WV?$stream_output_adapter@_W@__crt_stdio_output@@@2@@__crt_stdio_output@@AAEHH_W@Z 100b1f90 f i libucrtd:output.obj
 0002:0005b110       ?type_case_s_compute_narrow_string_length@?$output_processor@_WV?$string_output_adapter@_W@__crt_stdio_output@@V?$format_validation_base@_WV?$string_output_adapter@_W@__crt_stdio_output@@@2@@__crt_stdio_output@@AAEHH_W@Z 100b2110 f i libucrtd:output.obj
 0002:0005b290       ?type_case_s_compute_narrow_string_length@?$output_processor@_WV?$string_output_adapter@_W@__crt_stdio_output@@V?$positional_parameter_base@_WV?$string_output_adapter@_W@__crt_stdio_output@@@2@@__crt_stdio_output@@AAEHH_W@Z 100b2290 f i libucrtd:output.obj
 0002:0005b410       ?type_case_s_compute_narrow_string_length@?$output_processor@_WV?$string_output_adapter@_W@__crt_stdio_output@@V?$standard_base@_WV?$string_output_adapter@_W@__crt_stdio_output@@@2@@__crt_stdio_output@@AAEHH_W@Z 100b2410 f i libucrtd:output.obj
 0002:0005b590       ?type_case_u@?$output_processor@DV?$stream_output_adapter@D@__crt_stdio_output@@V?$format_validation_base@DV?$stream_output_adapter@D@__crt_stdio_output@@@2@@__crt_stdio_output@@AAE_NXZ 100b2590 f i libucrtd:output.obj
 0002:0005b5b0       ?type_case_u@?$output_processor@DV?$stream_output_adapter@D@__crt_stdio_output@@V?$positional_parameter_base@DV?$stream_output_adapter@D@__crt_stdio_output@@@2@@__crt_stdio_output@@AAE_NXZ 100b25b0 f i libucrtd:output.obj
 0002:0005b5d0       ?type_case_u@?$output_processor@DV?$stream_output_adapter@D@__crt_stdio_output@@V?$standard_base@DV?$stream_output_adapter@D@__crt_stdio_output@@@2@@__crt_stdio_output@@AAE_NXZ 100b25d0 f i libucrtd:output.obj
 0002:0005b5f0       ?type_case_u@?$output_processor@DV?$string_output_adapter@D@__crt_stdio_output@@V?$format_validation_base@DV?$string_output_adapter@D@__crt_stdio_output@@@2@@__crt_stdio_output@@AAE_NXZ 100b25f0 f i libucrtd:output.obj
 0002:0005b610       ?type_case_u@?$output_processor@DV?$string_output_adapter@D@__crt_stdio_output@@V?$positional_parameter_base@DV?$string_output_adapter@D@__crt_stdio_output@@@2@@__crt_stdio_output@@AAE_NXZ 100b2610 f i libucrtd:output.obj
 0002:0005b630       ?type_case_u@?$output_processor@DV?$string_output_adapter@D@__crt_stdio_output@@V?$standard_base@DV?$string_output_adapter@D@__crt_stdio_output@@@2@@__crt_stdio_output@@AAE_NXZ 100b2630 f i libucrtd:output.obj
 0002:0005b650       ?type_case_u@?$output_processor@_WV?$stream_output_adapter@_W@__crt_stdio_output@@V?$format_validation_base@_WV?$stream_output_adapter@_W@__crt_stdio_output@@@2@@__crt_stdio_output@@AAE_NXZ 100b2650 f i libucrtd:output.obj
 0002:0005b670       ?type_case_u@?$output_processor@_WV?$stream_output_adapter@_W@__crt_stdio_output@@V?$positional_parameter_base@_WV?$stream_output_adapter@_W@__crt_stdio_output@@@2@@__crt_stdio_output@@AAE_NXZ 100b2670 f i libucrtd:output.obj
 0002:0005b690       ?type_case_u@?$output_processor@_WV?$stream_output_adapter@_W@__crt_stdio_output@@V?$standard_base@_WV?$stream_output_adapter@_W@__crt_stdio_output@@@2@@__crt_stdio_output@@AAE_NXZ 100b2690 f i libucrtd:output.obj
 0002:0005b6b0       ?type_case_u@?$output_processor@_WV?$string_output_adapter@_W@__crt_stdio_output@@V?$format_validation_base@_WV?$string_output_adapter@_W@__crt_stdio_output@@@2@@__crt_stdio_output@@AAE_NXZ 100b26b0 f i libucrtd:output.obj
 0002:0005b6d0       ?type_case_u@?$output_processor@_WV?$string_output_adapter@_W@__crt_stdio_output@@V?$positional_parameter_base@_WV?$string_output_adapter@_W@__crt_stdio_output@@@2@@__crt_stdio_output@@AAE_NXZ 100b26d0 f i libucrtd:output.obj
 0002:0005b6f0       ?type_case_u@?$output_processor@_WV?$string_output_adapter@_W@__crt_stdio_output@@V?$standard_base@_WV?$string_output_adapter@_W@__crt_stdio_output@@@2@@__crt_stdio_output@@AAE_NXZ 100b26f0 f i libucrtd:output.obj
 0002:0005b710       ?type_case_x@?$output_processor@DV?$stream_output_adapter@D@__crt_stdio_output@@V?$format_validation_base@DV?$stream_output_adapter@D@__crt_stdio_output@@@2@@__crt_stdio_output@@AAE_NXZ 100b2710 f i libucrtd:output.obj
 0002:0005b730       ?type_case_x@?$output_processor@DV?$stream_output_adapter@D@__crt_stdio_output@@V?$positional_parameter_base@DV?$stream_output_adapter@D@__crt_stdio_output@@@2@@__crt_stdio_output@@AAE_NXZ 100b2730 f i libucrtd:output.obj
 0002:0005b750       ?type_case_x@?$output_processor@DV?$stream_output_adapter@D@__crt_stdio_output@@V?$standard_base@DV?$stream_output_adapter@D@__crt_stdio_output@@@2@@__crt_stdio_output@@AAE_NXZ 100b2750 f i libucrtd:output.obj
 0002:0005b770       ?type_case_x@?$output_processor@DV?$string_output_adapter@D@__crt_stdio_output@@V?$format_validation_base@DV?$string_output_adapter@D@__crt_stdio_output@@@2@@__crt_stdio_output@@AAE_NXZ 100b2770 f i libucrtd:output.obj
 0002:0005b790       ?type_case_x@?$output_processor@DV?$string_output_adapter@D@__crt_stdio_output@@V?$positional_parameter_base@DV?$string_output_adapter@D@__crt_stdio_output@@@2@@__crt_stdio_output@@AAE_NXZ 100b2790 f i libucrtd:output.obj
 0002:0005b7b0       ?type_case_x@?$output_processor@DV?$string_output_adapter@D@__crt_stdio_output@@V?$standard_base@DV?$string_output_adapter@D@__crt_stdio_output@@@2@@__crt_stdio_output@@AAE_NXZ 100b27b0 f i libucrtd:output.obj
 0002:0005b7d0       ?type_case_x@?$output_processor@_WV?$stream_output_adapter@_W@__crt_stdio_output@@V?$format_validation_base@_WV?$stream_output_adapter@_W@__crt_stdio_output@@@2@@__crt_stdio_output@@AAE_NXZ 100b27d0 f i libucrtd:output.obj
 0002:0005b7f0       ?type_case_x@?$output_processor@_WV?$stream_output_adapter@_W@__crt_stdio_output@@V?$positional_parameter_base@_WV?$stream_output_adapter@_W@__crt_stdio_output@@@2@@__crt_stdio_output@@AAE_NXZ 100b27f0 f i libucrtd:output.obj
 0002:0005b810       ?type_case_x@?$output_processor@_WV?$stream_output_adapter@_W@__crt_stdio_output@@V?$standard_base@_WV?$stream_output_adapter@_W@__crt_stdio_output@@@2@@__crt_stdio_output@@AAE_NXZ 100b2810 f i libucrtd:output.obj
 0002:0005b830       ?type_case_x@?$output_processor@_WV?$string_output_adapter@_W@__crt_stdio_output@@V?$format_validation_base@_WV?$string_output_adapter@_W@__crt_stdio_output@@@2@@__crt_stdio_output@@AAE_NXZ 100b2830 f i libucrtd:output.obj
 0002:0005b850       ?type_case_x@?$output_processor@_WV?$string_output_adapter@_W@__crt_stdio_output@@V?$positional_parameter_base@_WV?$string_output_adapter@_W@__crt_stdio_output@@@2@@__crt_stdio_output@@AAE_NXZ 100b2850 f i libucrtd:output.obj
 0002:0005b870       ?type_case_x@?$output_processor@_WV?$string_output_adapter@_W@__crt_stdio_output@@V?$standard_base@_WV?$string_output_adapter@_W@__crt_stdio_output@@@2@@__crt_stdio_output@@AAE_NXZ 100b2870 f i libucrtd:output.obj
 0002:0005b890       ?unget@?$c_string_character_source@D@__crt_strtox@@QAEXD@Z 100b2890 f i libucrtd:output.obj
 0002:0005b960       ?unget@?$c_string_character_source@_W@__crt_strtox@@QAEX_W@Z 100b2960 f i libucrtd:output.obj
 0002:0005ba30       ?unsafe_value@?$cached@H@__crt_cached_ptd_host@@QAEHXZ 100b2a30 f i libucrtd:output.obj
 0002:0005ba50       ?unsafe_value@?$cached@K@__crt_cached_ptd_host@@QAEKXZ 100b2a50 f i libucrtd:output.obj
 0002:0005ba70       ?unset_flag@?$output_processor@DV?$stream_output_adapter@D@__crt_stdio_output@@V?$format_validation_base@DV?$stream_output_adapter@D@__crt_stdio_output@@@2@@__crt_stdio_output@@AAEXI@Z 100b2a70 f i libucrtd:output.obj
 0002:0005baa0       ?unset_flag@?$output_processor@DV?$stream_output_adapter@D@__crt_stdio_output@@V?$positional_parameter_base@DV?$stream_output_adapter@D@__crt_stdio_output@@@2@@__crt_stdio_output@@AAEXI@Z 100b2aa0 f i libucrtd:output.obj
 0002:0005bad0       ?unset_flag@?$output_processor@DV?$stream_output_adapter@D@__crt_stdio_output@@V?$standard_base@DV?$stream_output_adapter@D@__crt_stdio_output@@@2@@__crt_stdio_output@@AAEXI@Z 100b2ad0 f i libucrtd:output.obj
 0002:0005bb00       ?unset_flag@?$output_processor@DV?$string_output_adapter@D@__crt_stdio_output@@V?$format_validation_base@DV?$string_output_adapter@D@__crt_stdio_output@@@2@@__crt_stdio_output@@AAEXI@Z 100b2b00 f i libucrtd:output.obj
 0002:0005bb30       ?unset_flag@?$output_processor@DV?$string_output_adapter@D@__crt_stdio_output@@V?$positional_parameter_base@DV?$string_output_adapter@D@__crt_stdio_output@@@2@@__crt_stdio_output@@AAEXI@Z 100b2b30 f i libucrtd:output.obj
 0002:0005bb60       ?unset_flag@?$output_processor@DV?$string_output_adapter@D@__crt_stdio_output@@V?$standard_base@DV?$string_output_adapter@D@__crt_stdio_output@@@2@@__crt_stdio_output@@AAEXI@Z 100b2b60 f i libucrtd:output.obj
 0002:0005bb90       ?unset_flag@?$output_processor@_WV?$stream_output_adapter@_W@__crt_stdio_output@@V?$format_validation_base@_WV?$stream_output_adapter@_W@__crt_stdio_output@@@2@@__crt_stdio_output@@AAEXI@Z 100b2b90 f i libucrtd:output.obj
 0002:0005bbc0       ?unset_flag@?$output_processor@_WV?$stream_output_adapter@_W@__crt_stdio_output@@V?$positional_parameter_base@_WV?$stream_output_adapter@_W@__crt_stdio_output@@@2@@__crt_stdio_output@@AAEXI@Z 100b2bc0 f i libucrtd:output.obj
 0002:0005bbf0       ?unset_flag@?$output_processor@_WV?$stream_output_adapter@_W@__crt_stdio_output@@V?$standard_base@_WV?$stream_output_adapter@_W@__crt_stdio_output@@@2@@__crt_stdio_output@@AAEXI@Z 100b2bf0 f i libucrtd:output.obj
 0002:0005bc20       ?unset_flag@?$output_processor@_WV?$string_output_adapter@_W@__crt_stdio_output@@V?$format_validation_base@_WV?$string_output_adapter@_W@__crt_stdio_output@@@2@@__crt_stdio_output@@AAEXI@Z 100b2c20 f i libucrtd:output.obj
 0002:0005bc50       ?unset_flag@?$output_processor@_WV?$string_output_adapter@_W@__crt_stdio_output@@V?$positional_parameter_base@_WV?$string_output_adapter@_W@__crt_stdio_output@@@2@@__crt_stdio_output@@AAEXI@Z 100b2c50 f i libucrtd:output.obj
 0002:0005bc80       ?unset_flag@?$output_processor@_WV?$string_output_adapter@_W@__crt_stdio_output@@V?$standard_base@_WV?$string_output_adapter@_W@__crt_stdio_output@@@2@@__crt_stdio_output@@AAEXI@Z 100b2c80 f i libucrtd:output.obj
 0002:0005bcb0       ?update_field_width@?$positional_parameter_base@DV?$stream_output_adapter@D@__crt_stdio_output@@@__crt_stdio_output@@IAE_NXZ 100b2cb0 f i libucrtd:output.obj
 0002:0005bea0       ?update_field_width@?$positional_parameter_base@DV?$string_output_adapter@D@__crt_stdio_output@@@__crt_stdio_output@@IAE_NXZ 100b2ea0 f i libucrtd:output.obj
 0002:0005c090       ?update_field_width@?$positional_parameter_base@_WV?$stream_output_adapter@_W@__crt_stdio_output@@@__crt_stdio_output@@IAE_NXZ 100b3090 f i libucrtd:output.obj
 0002:0005c280       ?update_field_width@?$positional_parameter_base@_WV?$string_output_adapter@_W@__crt_stdio_output@@@__crt_stdio_output@@IAE_NXZ 100b3280 f i libucrtd:output.obj
 0002:0005c470       ?update_field_width@?$standard_base@DV?$stream_output_adapter@D@__crt_stdio_output@@@__crt_stdio_output@@IAE_NXZ 100b3470 f i libucrtd:output.obj
 0002:0005c4a0       ?update_field_width@?$standard_base@DV?$string_output_adapter@D@__crt_stdio_output@@@__crt_stdio_output@@IAE_NXZ 100b34a0 f i libucrtd:output.obj
 0002:0005c4d0       ?update_field_width@?$standard_base@_WV?$stream_output_adapter@_W@__crt_stdio_output@@@__crt_stdio_output@@IAE_NXZ 100b34d0 f i libucrtd:output.obj
 0002:0005c500       ?update_field_width@?$standard_base@_WV?$string_output_adapter@_W@__crt_stdio_output@@@__crt_stdio_output@@IAE_NXZ 100b3500 f i libucrtd:output.obj
 0002:0005c530       ?update_locale@__crt_cached_ptd_host@@AAEXXZ 100b3530 f i libucrtd:output.obj
 0002:0005c560       ?update_locale_slow@__crt_cached_ptd_host@@AAEXXZ 100b3560 f i libucrtd:output.obj
 0002:0005c610       ?update_precision@?$positional_parameter_base@DV?$stream_output_adapter@D@__crt_stdio_output@@@__crt_stdio_output@@IAE_NXZ 100b3610 f i libucrtd:output.obj
 0002:0005c800       ?update_precision@?$positional_parameter_base@DV?$string_output_adapter@D@__crt_stdio_output@@@__crt_stdio_output@@IAE_NXZ 100b3800 f i libucrtd:output.obj
 0002:0005c9f0       ?update_precision@?$positional_parameter_base@_WV?$stream_output_adapter@_W@__crt_stdio_output@@@__crt_stdio_output@@IAE_NXZ 100b39f0 f i libucrtd:output.obj
 0002:0005cbe0       ?update_precision@?$positional_parameter_base@_WV?$string_output_adapter@_W@__crt_stdio_output@@@__crt_stdio_output@@IAE_NXZ 100b3be0 f i libucrtd:output.obj
 0002:0005cdd0       ?update_precision@?$standard_base@DV?$stream_output_adapter@D@__crt_stdio_output@@@__crt_stdio_output@@IAE_NXZ 100b3dd0 f i libucrtd:output.obj
 0002:0005ce00       ?update_precision@?$standard_base@DV?$string_output_adapter@D@__crt_stdio_output@@@__crt_stdio_output@@IAE_NXZ 100b3e00 f i libucrtd:output.obj
 0002:0005ce30       ?update_precision@?$standard_base@_WV?$stream_output_adapter@_W@__crt_stdio_output@@@__crt_stdio_output@@IAE_NXZ 100b3e30 f i libucrtd:output.obj
 0002:0005ce60       ?update_precision@?$standard_base@_WV?$string_output_adapter@_W@__crt_stdio_output@@@__crt_stdio_output@@IAE_NXZ 100b3e60 f i libucrtd:output.obj
 0002:0005ce90       ?valid@?$cached@H@__crt_cached_ptd_host@@QBE_NXZ 100b3e90 f i libucrtd:output.obj
 0002:0005ceb0       ?valid@?$cached@K@__crt_cached_ptd_host@@QBE_NXZ 100b3eb0 f i libucrtd:output.obj
 0002:0005ced0       ?valid@__crt_stdio_stream@@QBE_NXZ 100b3ed0 f i libucrtd:output.obj
 0002:0005cf10       ?validate@?$c_string_character_source@D@__crt_strtox@@QBE_NXZ 100b3f10 f i libucrtd:output.obj
 0002:0005cfd0       ?validate@?$c_string_character_source@_W@__crt_strtox@@QBE_NXZ 100b3fd0 f i libucrtd:output.obj
 0002:0005d090       ?validate@?$stream_output_adapter@D@__crt_stdio_output@@QBE_NAAV__crt_cached_ptd_host@@@Z 100b4090 f i libucrtd:output.obj
 0002:0005d180       ?validate@?$stream_output_adapter@_W@__crt_stdio_output@@QBE_NAAV__crt_cached_ptd_host@@@Z 100b4180 f i libucrtd:output.obj
 0002:0005d270       ?validate@?$string_output_adapter@D@__crt_stdio_output@@QBE_NAAV__crt_cached_ptd_host@@@Z 100b4270 f i libucrtd:output.obj
 0002:0005d340       ?validate@?$string_output_adapter@_W@__crt_stdio_output@@QBE_NAAV__crt_cached_ptd_host@@@Z 100b4340 f i libucrtd:output.obj
 0002:0005d410       ?validate_and_store_parameter_data@?$positional_parameter_base@DV?$stream_output_adapter@D@__crt_stdio_output@@@__crt_stdio_output@@AAE_NAAUparameter_data@12@W4parameter_type@12@DW4length_modifier@2@@Z 100b4410 f i libucrtd:output.obj
 0002:0005d530       ?validate_and_store_parameter_data@?$positional_parameter_base@DV?$string_output_adapter@D@__crt_stdio_output@@@__crt_stdio_output@@AAE_NAAUparameter_data@12@W4parameter_type@12@DW4length_modifier@2@@Z 100b4530 f i libucrtd:output.obj
 0002:0005d650       ?validate_and_store_parameter_data@?$positional_parameter_base@_WV?$stream_output_adapter@_W@__crt_stdio_output@@@__crt_stdio_output@@AAE_NAAUparameter_data@12@W4parameter_type@12@_WW4length_modifier@2@@Z 100b4650 f i libucrtd:output.obj
 0002:0005d770       ?validate_and_store_parameter_data@?$positional_parameter_base@_WV?$string_output_adapter@_W@__crt_stdio_output@@@__crt_stdio_output@@AAE_NAAUparameter_data@12@W4parameter_type@12@_WW4length_modifier@2@@Z 100b4770 f i libucrtd:output.obj
 0002:0005d890       ?validate_and_update_state_at_beginning_of_format_character@?$positional_parameter_base@DV?$stream_output_adapter@D@__crt_stdio_output@@@__crt_stdio_output@@IAE_NXZ 100b4890 f i libucrtd:output.obj
 0002:0005db40       ?validate_and_update_state_at_beginning_of_format_character@?$positional_parameter_base@DV?$string_output_adapter@D@__crt_stdio_output@@@__crt_stdio_output@@IAE_NXZ 100b4b40 f i libucrtd:output.obj
 0002:0005ddf0       ?validate_and_update_state_at_beginning_of_format_character@?$positional_parameter_base@_WV?$stream_output_adapter@_W@__crt_stdio_output@@@__crt_stdio_output@@IAE_NXZ 100b4df0 f i libucrtd:output.obj
 0002:0005e0a0       ?validate_and_update_state_at_beginning_of_format_character@?$positional_parameter_base@_WV?$string_output_adapter@_W@__crt_stdio_output@@@__crt_stdio_output@@IAE_NXZ 100b50a0 f i libucrtd:output.obj
 0002:0005e350       ?validate_and_update_state_at_beginning_of_format_character@?$standard_base@DV?$stream_output_adapter@D@__crt_stdio_output@@@__crt_stdio_output@@IAE_NXZ 100b5350 f i libucrtd:output.obj
 0002:0005e370       ?validate_and_update_state_at_beginning_of_format_character@?$standard_base@DV?$string_output_adapter@D@__crt_stdio_output@@@__crt_stdio_output@@IAE_NXZ 100b5370 f i libucrtd:output.obj
 0002:0005e390       ?validate_and_update_state_at_beginning_of_format_character@?$standard_base@_WV?$stream_output_adapter@_W@__crt_stdio_output@@@__crt_stdio_output@@IAE_NXZ 100b5390 f i libucrtd:output.obj
 0002:0005e3b0       ?validate_and_update_state_at_beginning_of_format_character@?$standard_base@_WV?$string_output_adapter@_W@__crt_stdio_output@@@__crt_stdio_output@@IAE_NXZ 100b53b0 f i libucrtd:output.obj
 0002:0005e3d0       ?validate_and_update_state_at_end_of_format_string@?$format_validation_base@DV?$stream_output_adapter@D@__crt_stdio_output@@@__crt_stdio_output@@IAE_NXZ 100b53d0 f i libucrtd:output.obj
 0002:0005e4b0       ?validate_and_update_state_at_end_of_format_string@?$format_validation_base@DV?$string_output_adapter@D@__crt_stdio_output@@@__crt_stdio_output@@IAE_NXZ 100b54b0 f i libucrtd:output.obj
 0002:0005e590       ?validate_and_update_state_at_end_of_format_string@?$format_validation_base@_WV?$stream_output_adapter@_W@__crt_stdio_output@@@__crt_stdio_output@@IAE_NXZ 100b5590 f i libucrtd:output.obj
 0002:0005e670       ?validate_and_update_state_at_end_of_format_string@?$format_validation_base@_WV?$string_output_adapter@_W@__crt_stdio_output@@@__crt_stdio_output@@IAE_NXZ 100b5670 f i libucrtd:output.obj
 0002:0005e750       ?validate_and_update_state_at_end_of_format_string@?$positional_parameter_base@DV?$stream_output_adapter@D@__crt_stdio_output@@@__crt_stdio_output@@IAE_NXZ 100b5750 f i libucrtd:output.obj
 0002:0005e970       ?validate_and_update_state_at_end_of_format_string@?$positional_parameter_base@DV?$string_output_adapter@D@__crt_stdio_output@@@__crt_stdio_output@@IAE_NXZ 100b5970 f i libucrtd:output.obj
 0002:0005eb90       ?validate_and_update_state_at_end_of_format_string@?$positional_parameter_base@_WV?$stream_output_adapter@_W@__crt_stdio_output@@@__crt_stdio_output@@IAE_NXZ 100b5b90 f i libucrtd:output.obj
 0002:0005edb0       ?validate_and_update_state_at_end_of_format_string@?$positional_parameter_base@_WV?$string_output_adapter@_W@__crt_stdio_output@@@__crt_stdio_output@@IAE_NXZ 100b5db0 f i libucrtd:output.obj
 0002:0005efd0       ?validate_and_update_state_at_end_of_format_string@?$standard_base@DV?$stream_output_adapter@D@__crt_stdio_output@@@__crt_stdio_output@@IBE_NXZ 100b5fd0 f i libucrtd:output.obj
 0002:0005eff0       ?validate_and_update_state_at_end_of_format_string@?$standard_base@DV?$string_output_adapter@D@__crt_stdio_output@@@__crt_stdio_output@@IBE_NXZ 100b5ff0 f i libucrtd:output.obj
 0002:0005f010       ?validate_and_update_state_at_end_of_format_string@?$standard_base@_WV?$stream_output_adapter@_W@__crt_stdio_output@@@__crt_stdio_output@@IBE_NXZ 100b6010 f i libucrtd:output.obj
 0002:0005f030       ?validate_and_update_state_at_end_of_format_string@?$standard_base@_WV?$string_output_adapter@_W@__crt_stdio_output@@@__crt_stdio_output@@IBE_NXZ 100b6030 f i libucrtd:output.obj
 0002:0005f050       ?validate_state_for_type_case_a@?$positional_parameter_base@DV?$stream_output_adapter@D@__crt_stdio_output@@@__crt_stdio_output@@IAE_NXZ 100b6050 f i libucrtd:output.obj
 0002:0005f1a0       ?validate_state_for_type_case_a@?$positional_parameter_base@DV?$string_output_adapter@D@__crt_stdio_output@@@__crt_stdio_output@@IAE_NXZ 100b61a0 f i libucrtd:output.obj
 0002:0005f2f0       ?validate_state_for_type_case_a@?$positional_parameter_base@_WV?$stream_output_adapter@_W@__crt_stdio_output@@@__crt_stdio_output@@IAE_NXZ 100b62f0 f i libucrtd:output.obj
 0002:0005f440       ?validate_state_for_type_case_a@?$positional_parameter_base@_WV?$string_output_adapter@_W@__crt_stdio_output@@@__crt_stdio_output@@IAE_NXZ 100b6440 f i libucrtd:output.obj
 0002:0005f590       ?validate_state_for_type_case_a@?$standard_base@DV?$stream_output_adapter@D@__crt_stdio_output@@@__crt_stdio_output@@IBE_NXZ 100b6590 f i libucrtd:output.obj
 0002:0005f5b0       ?validate_state_for_type_case_a@?$standard_base@DV?$string_output_adapter@D@__crt_stdio_output@@@__crt_stdio_output@@IBE_NXZ 100b65b0 f i libucrtd:output.obj
 0002:0005f5d0       ?validate_state_for_type_case_a@?$standard_base@_WV?$stream_output_adapter@_W@__crt_stdio_output@@@__crt_stdio_output@@IBE_NXZ 100b65d0 f i libucrtd:output.obj
 0002:0005f5f0       ?validate_state_for_type_case_a@?$standard_base@_WV?$string_output_adapter@_W@__crt_stdio_output@@@__crt_stdio_output@@IBE_NXZ 100b65f0 f i libucrtd:output.obj
 0002:0005f610       ?validate_stream_is_ansi_if_required@?$__acrt_stdio_char_traits@D@@SA_NQAU_iobuf@@@Z 100b6610 f i libucrtd:output.obj
 0002:0005f790       ?validate_stream_is_ansi_if_required@?$__acrt_stdio_char_traits@_W@@SA_NQAU_iobuf@@@Z 100b6790 f i libucrtd:output.obj
 0002:0005f7a0       ?wide_character_to_digit@__crt_strtox@@YAH_W@Z 100b67a0 f i libucrtd:output.obj
 0002:0005fb90       ?wide_null_string@?$output_processor@DV?$stream_output_adapter@D@__crt_stdio_output@@V?$format_validation_base@DV?$stream_output_adapter@D@__crt_stdio_output@@@2@@__crt_stdio_output@@CAPA_WXZ 100b6b90 f i libucrtd:output.obj
 0002:0005fba0       ?wide_null_string@?$output_processor@DV?$stream_output_adapter@D@__crt_stdio_output@@V?$positional_parameter_base@DV?$stream_output_adapter@D@__crt_stdio_output@@@2@@__crt_stdio_output@@CAPA_WXZ 100b6ba0 f i libucrtd:output.obj
 0002:0005fbb0       ?wide_null_string@?$output_processor@DV?$stream_output_adapter@D@__crt_stdio_output@@V?$standard_base@DV?$stream_output_adapter@D@__crt_stdio_output@@@2@@__crt_stdio_output@@CAPA_WXZ 100b6bb0 f i libucrtd:output.obj
 0002:0005fbc0       ?wide_null_string@?$output_processor@DV?$string_output_adapter@D@__crt_stdio_output@@V?$format_validation_base@DV?$string_output_adapter@D@__crt_stdio_output@@@2@@__crt_stdio_output@@CAPA_WXZ 100b6bc0 f i libucrtd:output.obj
 0002:0005fbd0       ?wide_null_string@?$output_processor@DV?$string_output_adapter@D@__crt_stdio_output@@V?$positional_parameter_base@DV?$string_output_adapter@D@__crt_stdio_output@@@2@@__crt_stdio_output@@CAPA_WXZ 100b6bd0 f i libucrtd:output.obj
 0002:0005fbe0       ?wide_null_string@?$output_processor@DV?$string_output_adapter@D@__crt_stdio_output@@V?$standard_base@DV?$string_output_adapter@D@__crt_stdio_output@@@2@@__crt_stdio_output@@CAPA_WXZ 100b6be0 f i libucrtd:output.obj
 0002:0005fbf0       ?wide_null_string@?$output_processor@_WV?$stream_output_adapter@_W@__crt_stdio_output@@V?$format_validation_base@_WV?$stream_output_adapter@_W@__crt_stdio_output@@@2@@__crt_stdio_output@@CAPA_WXZ 100b6bf0 f i libucrtd:output.obj
 0002:0005fc00       ?wide_null_string@?$output_processor@_WV?$stream_output_adapter@_W@__crt_stdio_output@@V?$positional_parameter_base@_WV?$stream_output_adapter@_W@__crt_stdio_output@@@2@@__crt_stdio_output@@CAPA_WXZ 100b6c00 f i libucrtd:output.obj
 0002:0005fc10       ?wide_null_string@?$output_processor@_WV?$stream_output_adapter@_W@__crt_stdio_output@@V?$standard_base@_WV?$stream_output_adapter@_W@__crt_stdio_output@@@2@@__crt_stdio_output@@CAPA_WXZ 100b6c10 f i libucrtd:output.obj
 0002:0005fc20       ?wide_null_string@?$output_processor@_WV?$string_output_adapter@_W@__crt_stdio_output@@V?$format_validation_base@_WV?$string_output_adapter@_W@__crt_stdio_output@@@2@@__crt_stdio_output@@CAPA_WXZ 100b6c20 f i libucrtd:output.obj
 0002:0005fc30       ?wide_null_string@?$output_processor@_WV?$string_output_adapter@_W@__crt_stdio_output@@V?$positional_parameter_base@_WV?$string_output_adapter@_W@__crt_stdio_output@@@2@@__crt_stdio_output@@CAPA_WXZ 100b6c30 f i libucrtd:output.obj
 0002:0005fc40       ?wide_null_string@?$output_processor@_WV?$string_output_adapter@_W@__crt_stdio_output@@V?$standard_base@_WV?$string_output_adapter@_W@__crt_stdio_output@@@2@@__crt_stdio_output@@CAPA_WXZ 100b6c40 f i libucrtd:output.obj
 0002:0005fc50       ?write_character@?$output_adapter_common@DV?$stream_output_adapter@D@__crt_stdio_output@@@__crt_stdio_output@@QBEXDQAHAAV__crt_cached_ptd_host@@@Z 100b6c50 f i libucrtd:output.obj
 0002:0005fca0       ?write_character@?$output_adapter_common@_WV?$stream_output_adapter@_W@__crt_stdio_output@@@__crt_stdio_output@@QBEX_WQAHAAV__crt_cached_ptd_host@@@Z 100b6ca0 f i libucrtd:output.obj
 0002:0005fcf0       ?write_character@?$string_output_adapter@D@__crt_stdio_output@@QBE_NDQAHAAV__crt_cached_ptd_host@@@Z 100b6cf0 f i libucrtd:output.obj
 0002:0005fdb0       ?write_character@?$string_output_adapter@_W@__crt_stdio_output@@QBE_N_WQAHAAV__crt_cached_ptd_host@@@Z 100b6db0 f i libucrtd:output.obj
 0002:0005fe70       ?write_character_without_count_update@?$stream_output_adapter@D@__crt_stdio_output@@QBE_NDAAV__crt_cached_ptd_host@@@Z 100b6e70 f i libucrtd:output.obj
 0002:0005ff00       ?write_character_without_count_update@?$stream_output_adapter@_W@__crt_stdio_output@@QBE_N_WAAV__crt_cached_ptd_host@@@Z 100b6f00 f i libucrtd:output.obj
 0002:0005ff90       ?write_stored_string_tchar@?$output_processor@DV?$stream_output_adapter@D@__crt_stdio_output@@V?$format_validation_base@DV?$stream_output_adapter@D@__crt_stdio_output@@@2@@__crt_stdio_output@@AAE_ND@Z 100b6f90 f i libucrtd:output.obj
 0002:00060220       ?write_stored_string_tchar@?$output_processor@DV?$stream_output_adapter@D@__crt_stdio_output@@V?$positional_parameter_base@DV?$stream_output_adapter@D@__crt_stdio_output@@@2@@__crt_stdio_output@@AAE_ND@Z 100b7220 f i libucrtd:output.obj
 0002:000604b0       ?write_stored_string_tchar@?$output_processor@DV?$stream_output_adapter@D@__crt_stdio_output@@V?$standard_base@DV?$stream_output_adapter@D@__crt_stdio_output@@@2@@__crt_stdio_output@@AAE_ND@Z 100b74b0 f i libucrtd:output.obj
 0002:00060740       ?write_stored_string_tchar@?$output_processor@DV?$string_output_adapter@D@__crt_stdio_output@@V?$format_validation_base@DV?$string_output_adapter@D@__crt_stdio_output@@@2@@__crt_stdio_output@@AAE_ND@Z 100b7740 f i libucrtd:output.obj
 0002:000609d0       ?write_stored_string_tchar@?$output_processor@DV?$string_output_adapter@D@__crt_stdio_output@@V?$positional_parameter_base@DV?$string_output_adapter@D@__crt_stdio_output@@@2@@__crt_stdio_output@@AAE_ND@Z 100b79d0 f i libucrtd:output.obj
 0002:00060c60       ?write_stored_string_tchar@?$output_processor@DV?$string_output_adapter@D@__crt_stdio_output@@V?$standard_base@DV?$string_output_adapter@D@__crt_stdio_output@@@2@@__crt_stdio_output@@AAE_ND@Z 100b7c60 f i libucrtd:output.obj
 0002:00060ef0       ?write_stored_string_tchar@?$output_processor@_WV?$stream_output_adapter@_W@__crt_stdio_output@@V?$format_validation_base@_WV?$stream_output_adapter@_W@__crt_stdio_output@@@2@@__crt_stdio_output@@AAE_N_W@Z 100b7ef0 f i libucrtd:output.obj
 0002:000611b0       ?write_stored_string_tchar@?$output_processor@_WV?$stream_output_adapter@_W@__crt_stdio_output@@V?$positional_parameter_base@_WV?$stream_output_adapter@_W@__crt_stdio_output@@@2@@__crt_stdio_output@@AAE_N_W@Z 100b81b0 f i libucrtd:output.obj
 0002:00061470       ?write_stored_string_tchar@?$output_processor@_WV?$stream_output_adapter@_W@__crt_stdio_output@@V?$standard_base@_WV?$stream_output_adapter@_W@__crt_stdio_output@@@2@@__crt_stdio_output@@AAE_N_W@Z 100b8470 f i libucrtd:output.obj
 0002:00061730       ?write_stored_string_tchar@?$output_processor@_WV?$string_output_adapter@_W@__crt_stdio_output@@V?$format_validation_base@_WV?$string_output_adapter@_W@__crt_stdio_output@@@2@@__crt_stdio_output@@AAE_N_W@Z 100b8730 f i libucrtd:output.obj
 0002:000619f0       ?write_stored_string_tchar@?$output_processor@_WV?$string_output_adapter@_W@__crt_stdio_output@@V?$positional_parameter_base@_WV?$string_output_adapter@_W@__crt_stdio_output@@@2@@__crt_stdio_output@@AAE_N_W@Z 100b89f0 f i libucrtd:output.obj
 0002:00061cb0       ?write_stored_string_tchar@?$output_processor@_WV?$string_output_adapter@_W@__crt_stdio_output@@V?$standard_base@_WV?$string_output_adapter@_W@__crt_stdio_output@@@2@@__crt_stdio_output@@AAE_N_W@Z 100b8cb0 f i libucrtd:output.obj
 0002:00061f70       ?write_string@?$stream_output_adapter@D@__crt_stdio_output@@QBEXQBDHQAHAAV__crt_cached_ptd_host@@@Z 100b8f70 f i libucrtd:output.obj
 0002:00061fe0       ?write_string@?$stream_output_adapter@_W@__crt_stdio_output@@QBEXQB_WHQAHAAV__crt_cached_ptd_host@@@Z 100b8fe0 f i libucrtd:output.obj
 0002:00062050       ?write_string@?$string_output_adapter@D@__crt_stdio_output@@QBEXQBDHQAHAAV__crt_cached_ptd_host@@@Z 100b9050 f i libucrtd:output.obj
 0002:00062190       ?write_string@?$string_output_adapter@_W@__crt_stdio_output@@QBEXQB_WHQAHAAV__crt_cached_ptd_host@@@Z 100b9190 f i libucrtd:output.obj
 0002:000622e0       ?write_string_impl@?$output_adapter_common@DV?$stream_output_adapter@D@__crt_stdio_output@@@__crt_stdio_output@@IBEXQBDHQAHAAV__crt_cached_ptd_host@@@Z 100b92e0 f i libucrtd:output.obj
 0002:000623d0       ?write_string_impl@?$output_adapter_common@_WV?$stream_output_adapter@_W@__crt_stdio_output@@@__crt_stdio_output@@IBEXQB_WHQAHAAV__crt_cached_ptd_host@@@Z 100b93d0 f i libucrtd:output.obj
 0002:000624c0       ___acrt_disable_global_locale_sync 100b94c0 f i libucrtd:output.obj
 0002:000624f0       ___acrt_enable_global_locale_sync 100b94f0 f i libucrtd:output.obj
 0002:00062520       ___acrt_isleadbyte_l_noupdate 100b9520 f i libucrtd:output.obj
 0002:00062550       ___acrt_locale_changed     100b9550 f i libucrtd:output.obj
 0002:00062580       ___acrt_locale_get_ctype_array_value 100b9580 f i libucrtd:output.obj
 0002:000625b0       ___ascii_iswalpha          100b95b0 f i libucrtd:output.obj
 0002:00062600       ___ascii_toupper           100b9600 f i libucrtd:output.obj
 0002:00062630       ___ascii_towupper          100b9630 f i libucrtd:output.obj
 0002:00062650       ___stdio_common_vfprintf   100b9650 f   libucrtd:output.obj
 0002:000626b0       ___stdio_common_vfprintf_p 100b96b0 f   libucrtd:output.obj
 0002:00062710       ___stdio_common_vfprintf_s 100b9710 f   libucrtd:output.obj
 0002:00062770       ___stdio_common_vfwprintf  100b9770 f   libucrtd:output.obj
 0002:000627d0       ___stdio_common_vfwprintf_p 100b97d0 f   libucrtd:output.obj
 0002:00062830       ___stdio_common_vfwprintf_s 100b9830 f   libucrtd:output.obj
 0002:00062890       ___stdio_common_vsnprintf_s 100b9890 f   libucrtd:output.obj
 0002:00062900       ___stdio_common_vsnwprintf_s 100b9900 f   libucrtd:output.obj
 0002:00062970       ___stdio_common_vsprintf   100b9970 f   libucrtd:output.obj
 0002:000629d0       ___stdio_common_vsprintf_p 100b99d0 f   libucrtd:output.obj
 0002:00062a30       ___stdio_common_vsprintf_s 100b9a30 f   libucrtd:output.obj
 0002:00062a90       ___stdio_common_vswprintf  100b9a90 f   libucrtd:output.obj
 0002:00062af0       ___stdio_common_vswprintf_p 100b9af0 f   libucrtd:output.obj
 0002:00062b50       ___stdio_common_vswprintf_s 100b9b50 f   libucrtd:output.obj
 0002:00062bb0       __ctype_fast_check_internal 100b9bb0 f i libucrtd:output.obj
 0002:00062bd0       __isdigit_fast_internal    100b9bd0 f i libucrtd:output.obj
 0002:00062bf0       __tolower_fast_internal    100b9bf0 f i libucrtd:output.obj
 0002:00062c70       __seh_filter_dll           100b9c70 f   libucrtd:exception_filter.obj
 0002:00062ca0       __seh_filter_exe           100b9ca0 f   libucrtd:exception_filter.obj
 0002:00062f40       ??$?B$$A6GXPAXK0@Z@__crt_fast_encoded_nullptr_t@@QBEP6GXPAXK0@ZXZ 100b9f40 f i libucrtd:exit.obj
 0002:00063090       ??$__crt_fast_decode_pointer@P6GXPAXK0@Z@@YAP6GXPAXK0@ZQ6GX0K0@Z@Z 100ba090 f i libucrtd:exit.obj
 0002:000630d0       ??$__crt_fast_encode_pointer@P6GXPAXK0@Z@@YAP6GXPAXK0@ZQ6GX0K0@Z@Z 100ba0d0 f i libucrtd:exit.obj
 0002:00063110       ??$__crt_get_proc_address@P6GXI@Z@@YAP6GXI@ZQAUHINSTANCE__@@QBD@Z 100ba110 f i libucrtd:exit.obj
 0002:000631d0       ??0?$__crt_unique_handle_t@U__crt_hmodule_traits@@@@QAE@QAUHINSTANCE__@@@Z 100ba1d0 f i libucrtd:exit.obj
 0002:000631f0       ??1?$__crt_unique_handle_t@U__crt_hmodule_traits@@@@QAE@XZ 100ba1f0 f i libucrtd:exit.obj
 0002:00063430       ?__acrt_select_exit_lock@@YA?AW4__acrt_lock_id@@XZ 100ba430 f i libucrtd:exit.obj
 0002:00063440       ?__crt_fast_encode_pointer@@YA?AU__crt_fast_encoded_nullptr_t@@$$T@Z 100ba440 f i libucrtd:exit.obj
 0002:00063460       ?__crt_rotate_pointer_value@@YAIIH@Z 100ba460 f i libucrtd:exit.obj
 0002:000634a0       ?close@?$__crt_unique_handle_t@U__crt_hmodule_traits@@@@QAEXXZ 100ba4a0 f i libucrtd:exit.obj
 0002:000634e0       ?close@__crt_hmodule_traits@@SA_NPAUHINSTANCE__@@@Z 100ba4e0 f i libucrtd:exit.obj
 0002:00063670       ?get@?$__crt_unique_handle_t@U__crt_hmodule_traits@@@@QBEPAUHINSTANCE__@@XZ 100ba670 f i libucrtd:exit.obj
 0002:00063690       ?get_address_of@?$__crt_unique_handle_t@U__crt_hmodule_traits@@@@QAEPAPAUHINSTANCE__@@XZ 100ba690 f i libucrtd:exit.obj
 0002:000636b0       ?get_invalid_value@__crt_hmodule_traits@@SAPAUHINSTANCE__@@XZ 100ba6b0 f i libucrtd:exit.obj
 0002:00063890       __Exit                     100ba890 f   libucrtd:exit.obj
 0002:000638b0       ___acrt_initialize_thread_local_exit_callback 100ba8b0 f   libucrtd:exit.obj
 0002:000638d0       __c_exit                   100ba8d0 f   libucrtd:exit.obj
 0002:000638f0       __cexit                    100ba8f0 f   libucrtd:exit.obj
 0002:00063910       __exit                     100ba910 f   libucrtd:exit.obj
 0002:00063930       __is_c_termination_complete 100ba930 f   libucrtd:exit.obj
 0002:00063950       __register_thread_local_exe_atexit_callback 100ba950 f   libucrtd:exit.obj
 0002:000639a0       _exit                      100ba9a0 f   libucrtd:exit.obj
 0002:000639c0       _quick_exit                100ba9c0 f   libucrtd:exit.obj
 0002:000639e0       ??$?RE@__crt_internal_free_policy@@QBEXQBE@Z 100ba9e0 f i libucrtd:argv_parsing.obj
 0002:00063a10       ??$?RPAD@__crt_internal_free_policy@@QBEXQBQAD@Z 100baa10 f i libucrtd:argv_parsing.obj
 0002:00063a40       ??$?RPA_W@__crt_internal_free_policy@@QBEXQBQA_W@Z 100baa40 f i libucrtd:argv_parsing.obj
 0002:00064190       ??$get_module_file_name@$$TAAY0BAF@DH@?$__crt_char_traits@D@@SAK$$QA$$TAAY0BAF@D$$QAH@Z 100bb190 f i libucrtd:argv_parsing.obj
 0002:000641c0       ??$get_module_file_name@$$TAAY0BAF@_WH@?$__crt_char_traits@_W@@SAK$$QA$$TAAY0BAF@_W$$QAH@Z 100bb1c0 f i libucrtd:argv_parsing.obj
 0002:00064ad0       ??$set_program_name@PAD@?$__crt_char_traits@D@@SAX$$QAPAD@Z 100bbad0 f i libucrtd:argv_parsing.obj
 0002:00064af0       ??$set_program_name@PA_W@?$__crt_char_traits@_W@@SAX$$QAPA_W@Z 100bbaf0 f i libucrtd:argv_parsing.obj
 0002:00064b50       ??0?$__crt_unique_heap_ptr@EU__crt_internal_free_policy@@@@QAE@QAE@Z 100bbb50 f i libucrtd:argv_parsing.obj
 0002:00064b70       ??0?$__crt_unique_heap_ptr@PADU__crt_internal_free_policy@@@@QAE@QAPAD@Z 100bbb70 f i libucrtd:argv_parsing.obj
 0002:00064b90       ??0?$__crt_unique_heap_ptr@PA_WU__crt_internal_free_policy@@@@QAE@QAPA_W@Z 100bbb90 f i libucrtd:argv_parsing.obj
 0002:00064bb0       ??1?$__crt_unique_heap_ptr@EU__crt_internal_free_policy@@@@QAE@XZ 100bbbb0 f i libucrtd:argv_parsing.obj
 0002:00064bd0       ??1?$__crt_unique_heap_ptr@PADU__crt_internal_free_policy@@@@QAE@XZ 100bbbd0 f i libucrtd:argv_parsing.obj
 0002:00064bf0       ??1?$__crt_unique_heap_ptr@PA_WU__crt_internal_free_policy@@@@QAE@XZ 100bbbf0 f i libucrtd:argv_parsing.obj
 0002:00064c10       ??B?$__crt_unique_heap_ptr@EU__crt_internal_free_policy@@@@QBE_NXZ 100bbc10 f i libucrtd:argv_parsing.obj
 0002:00064cf0       ?detach@?$__crt_unique_heap_ptr@EU__crt_internal_free_policy@@@@QAEPAEXZ 100bbcf0 f i libucrtd:argv_parsing.obj
 0002:00064d20       ?detach@?$__crt_unique_heap_ptr@PADU__crt_internal_free_policy@@@@QAEPAPADXZ 100bbd20 f i libucrtd:argv_parsing.obj
 0002:00064d50       ?detach@?$__crt_unique_heap_ptr@PA_WU__crt_internal_free_policy@@@@QAEPAPA_WXZ 100bbd50 f i libucrtd:argv_parsing.obj
 0002:00064de0       ?get@?$__crt_unique_heap_ptr@EU__crt_internal_free_policy@@@@QBEPAEXZ 100bbde0 f i libucrtd:argv_parsing.obj
 0002:00064e00       ?get@?$__crt_unique_heap_ptr@PADU__crt_internal_free_policy@@@@QBEPAPADXZ 100bbe00 f i libucrtd:argv_parsing.obj
 0002:00064e20       ?get@?$__crt_unique_heap_ptr@PA_WU__crt_internal_free_policy@@@@QBEPAPA_WXZ 100bbe20 f i libucrtd:argv_parsing.obj
 0002:00064e40       ?get_address_of@?$__crt_unique_heap_ptr@PADU__crt_internal_free_policy@@@@QAEPAPAPADXZ 100bbe40 f i libucrtd:argv_parsing.obj
 0002:00064e60       ?get_address_of@?$__crt_unique_heap_ptr@PA_WU__crt_internal_free_policy@@@@QAEPAPAPA_WXZ 100bbe60 f i libucrtd:argv_parsing.obj
 0002:00064ec0       ?is_valid@?$__crt_unique_heap_ptr@EU__crt_internal_free_policy@@@@QBE_NXZ 100bbec0 f i libucrtd:argv_parsing.obj
 0002:00064f00       ?release@?$__crt_unique_heap_ptr@EU__crt_internal_free_policy@@@@QAEXXZ 100bbf00 f i libucrtd:argv_parsing.obj
 0002:00064f30       ?release@?$__crt_unique_heap_ptr@PADU__crt_internal_free_policy@@@@QAEXXZ 100bbf30 f i libucrtd:argv_parsing.obj
 0002:00064f60       ?release@?$__crt_unique_heap_ptr@PA_WU__crt_internal_free_policy@@@@QAEXXZ 100bbf60 f i libucrtd:argv_parsing.obj
 0002:00064fe0       ___acrt_allocate_buffer_for_argv 100bbfe0 f   libucrtd:argv_parsing.obj
 0002:000650d0       __configure_narrow_argv    100bc0d0 f   libucrtd:argv_parsing.obj
 0002:000650f0       __configure_wide_argv      100bc0f0 f   libucrtd:argv_parsing.obj
 0002:00065110       __set_pgmptr               100bc110 f i libucrtd:argv_parsing.obj
 0002:00065130       __set_wpgmptr              100bc130 f i libucrtd:argv_parsing.obj
 0002:00065150       ??$?R_W@__crt_internal_free_policy@@QBEXQB_W@Z 100bc150 f i libucrtd:environment_initialization.obj
 0002:00065b20       ??$get_environment_from_os@$$V@?$__crt_char_traits@D@@SAPADXZ 100bcb20 f i libucrtd:environment_initialization.obj
 0002:00065b30       ??$get_environment_from_os@$$V@?$__crt_char_traits@_W@@SAPA_WXZ 100bcb30 f i libucrtd:environment_initialization.obj
 0002:00065ea0       ??$set_variable_in_environment_nolock@PADH@?$__crt_char_traits@D@@SAH$$QAPAD$$QAH@Z 100bcea0 f i libucrtd:environment_initialization.obj
 0002:00065ed0       ??$set_variable_in_environment_nolock@PA_WH@?$__crt_char_traits@_W@@SAH$$QAPA_W$$QAH@Z 100bced0 f i libucrtd:environment_initialization.obj
 0002:00065f00       ??$tcscpy_s@PADABIAAPAD@?$__crt_char_traits@D@@SAH$$QAPADABIAAPAD@Z 100bcf00 f i libucrtd:environment_initialization.obj
 0002:00065f30       ??$tcscpy_s@PA_WABIAAPA_W@?$__crt_char_traits@_W@@SAH$$QAPA_WABIAAPA_W@Z 100bcf30 f i libucrtd:environment_initialization.obj
 0002:00065f60       ??$tcslen@AAPAD@?$__crt_char_traits@D@@SAIAAPAD@Z 100bcf60 f i libucrtd:environment_initialization.obj
 0002:00065f80       ??$tcslen@AAPA_W@?$__crt_char_traits@_W@@SAIAAPA_W@Z 100bcf80 f i libucrtd:environment_initialization.obj
 0002:00065fa0       ??$uninitialize@A6AXAAPAPAD@_E@?$dual_state_global@PAPAD@__crt_state_management@@QAEXA6AXAAPAPAD@_E@Z 100bcfa0 f i libucrtd:environment_initialization.obj
 0002:00066040       ??$uninitialize@A6AXAAPAPA_W@_E@?$dual_state_global@PAPA_W@__crt_state_management@@QAEXA6AXAAPAPA_W@_E@Z 100bd040 f i libucrtd:environment_initialization.obj
 0002:00066160       ??0?$__crt_unique_heap_ptr@_WU__crt_internal_free_policy@@@@QAE@QA_W@Z 100bd160 f i libucrtd:environment_initialization.obj
 0002:00066180       ??1?$__crt_unique_heap_ptr@_WU__crt_internal_free_policy@@@@QAE@XZ 100bd180 f i libucrtd:environment_initialization.obj
 0002:000661a0       ??B?$__crt_unique_heap_ptr@PADU__crt_internal_free_policy@@@@QBE_NXZ 100bd1a0 f i libucrtd:environment_initialization.obj
 0002:000661c0       ??B?$__crt_unique_heap_ptr@PA_WU__crt_internal_free_policy@@@@QBE_NXZ 100bd1c0 f i libucrtd:environment_initialization.obj
 0002:000661e0       ??B?$__crt_unique_heap_ptr@_WU__crt_internal_free_policy@@@@QBE_NXZ 100bd1e0 f i libucrtd:environment_initialization.obj
 0002:00066200       ?__crt_compute_required_transform_buffer_count@@YAIIQBD@Z 100bd200 f i libucrtd:environment_initialization.obj
 0002:00066230       ?__crt_compute_required_transform_buffer_count@@YAIIQB_W@Z 100bd230 f i libucrtd:environment_initialization.obj
 0002:00066260       ?__crt_transform_string@@YAIIQBDQA_WI@Z 100bd260 f i libucrtd:environment_initialization.obj
 0002:000662a0       ?__crt_transform_string@@YAIIQB_WQADI@Z 100bd2a0 f i libucrtd:environment_initialization.obj
 0002:000662e0       ?detach@?$__crt_unique_heap_ptr@DU__crt_internal_free_policy@@@@QAEPADXZ 100bd2e0 f i libucrtd:environment_initialization.obj
 0002:00066310       ?detach@?$__crt_unique_heap_ptr@_WU__crt_internal_free_policy@@@@QAEPA_WXZ 100bd310 f i libucrtd:environment_initialization.obj
 0002:00066340       ?get@?$__crt_unique_heap_ptr@_WU__crt_internal_free_policy@@@@QBEPA_WXZ 100bd340 f i libucrtd:environment_initialization.obj
 0002:00066360       ?get_current_state_index@__crt_state_management@@YAIXZ 100bd360 f i libucrtd:environment_initialization.obj
 0002:000663f0       ?initialize@?$dual_state_global@PAPAD@__crt_state_management@@QAEXQAPAD@Z 100bd3f0 f i libucrtd:environment_initialization.obj
 0002:00066440       ?initialize@?$dual_state_global@PAPA_W@__crt_state_management@@QAEXQAPA_W@Z 100bd440 f i libucrtd:environment_initialization.obj
 0002:00066490       ?is_valid@?$__crt_unique_heap_ptr@PADU__crt_internal_free_policy@@@@QBE_NXZ 100bd490 f i libucrtd:environment_initialization.obj
 0002:000664d0       ?is_valid@?$__crt_unique_heap_ptr@PA_WU__crt_internal_free_policy@@@@QBE_NXZ 100bd4d0 f i libucrtd:environment_initialization.obj
 0002:00066510       ?is_valid@?$__crt_unique_heap_ptr@_WU__crt_internal_free_policy@@@@QBE_NXZ 100bd510 f i libucrtd:environment_initialization.obj
 0002:00066570       ?release@?$__crt_unique_heap_ptr@_WU__crt_internal_free_policy@@@@QAEXXZ 100bd570 f i libucrtd:environment_initialization.obj
 0002:000665a0       ?value@?$dual_state_global@PAPAD@__crt_state_management@@QAEAAPAPADXZ 100bd5a0 f i libucrtd:environment_initialization.obj
 0002:000665c0       ?value@?$dual_state_global@PAPA_W@__crt_state_management@@QAEAAPAPA_WXZ 100bd5c0 f i libucrtd:environment_initialization.obj
 0002:000665e0       ___dcrt_get_or_create_narrow_environment_nolock 100bd5e0 f   libucrtd:environment_initialization.obj
 0002:000665f0       ___dcrt_get_or_create_wide_environment_nolock 100bd5f0 f   libucrtd:environment_initialization.obj
 0002:00066600       ___dcrt_uninitialize_environments_nolock 100bd600 f   libucrtd:environment_initialization.obj
 0002:00066660       ___p__environ              100bd660 f   libucrtd:environment_initialization.obj
 0002:00066680       ___p__wenviron             100bd680 f   libucrtd:environment_initialization.obj
 0002:000666a0       __get_initial_narrow_environment 100bd6a0 f   libucrtd:environment_initialization.obj
 0002:000666b0       __get_initial_wide_environment 100bd6b0 f   libucrtd:environment_initialization.obj
 0002:000666c0       __initialize_narrow_environment 100bd6c0 f   libucrtd:environment_initialization.obj
 0002:000666d0       __initialize_wide_environment 100bd6d0 f   libucrtd:environment_initialization.obj
 0002:000666e0       ??$?B$$A6AXXZ@__crt_fast_encoded_nullptr_t@@QBEP6AXXZXZ 100bd6e0 f i libucrtd:onexit.obj
 0002:00066700       ??$?BP6AXXZ@__crt_fast_encoded_nullptr_t@@QBEPAP6AXXZXZ 100bd700 f i libucrtd:onexit.obj
 0002:00066720       ??$?RP6AXXZ@__crt_internal_free_policy@@QBEXQBQ6AXXZ@Z 100bd720 f i libucrtd:onexit.obj
 0002:000669d0       ??$__crt_fast_decode_pointer@P6AXXZ@@YAP6AXXZQ6AXXZ@Z 100bd9d0 f i libucrtd:onexit.obj
 0002:00066a10       ??$__crt_fast_decode_pointer@PAP6AXXZ@@YAPAP6AXXZQAP6AXXZ@Z 100bda10 f i libucrtd:onexit.obj
 0002:00066a50       ??$__crt_fast_encode_pointer@P6AHXZ@@YAP6AHXZQ6AHXZ@Z 100bda50 f i libucrtd:onexit.obj
 0002:00066a90       ??$__crt_fast_encode_pointer@P6AXXZ@@YAP6AXXZQ6AXXZ@Z 100bda90 f i libucrtd:onexit.obj
 0002:00066ad0       ??$__crt_fast_encode_pointer@PAP6AXXZ@@YAPAP6AXXZQAP6AXXZ@Z 100bdad0 f i libucrtd:onexit.obj
 0002:00066c20       ??0?$__crt_unique_heap_ptr@P6AXXZU__crt_internal_free_policy@@@@QAE@QAP6AXXZ@Z 100bdc20 f i libucrtd:onexit.obj
 0002:00066c40       ??1?$__crt_unique_heap_ptr@P6AXXZU__crt_internal_free_policy@@@@QAE@XZ 100bdc40 f i libucrtd:onexit.obj
 0002:00066c60       ??1scoped_global_state_reset@__crt_state_management@@QAE@XZ 100bdc60 f i libucrtd:onexit.obj
 0002:00067210       ?detach@?$__crt_unique_heap_ptr@P6AXXZU__crt_internal_free_policy@@@@QAEPAP6AXXZXZ 100be210 f i libucrtd:onexit.obj
 0002:00067240       ?release@?$__crt_unique_heap_ptr@P6AXXZU__crt_internal_free_policy@@@@QAEXXZ 100be240 f i libucrtd:onexit.obj
 0002:00067270       __crt_at_quick_exit        100be270 f   libucrtd:onexit.obj
 0002:00067290       __crt_atexit               100be290 f   libucrtd:onexit.obj
 0002:000672b0       __execute_onexit_table     100be2b0 f   libucrtd:onexit.obj
 0002:000672f0       __initialize_onexit_table  100be2f0 f   libucrtd:onexit.obj
 0002:00067370       __register_onexit_function 100be370 f   libucrtd:onexit.obj
 0002:00067600       ??$?BX@__crt_fast_encoded_nullptr_t@@QBEPAXXZ 100be600 f i libucrtd:initialization.obj
 0002:00067620       ??$__crt_fast_encode_pointer@PAX@@YAPAXQAX@Z 100be620 f i libucrtd:initialization.obj
 0002:00067750       ?initialize@?$dual_state_global@PAU__crt_locale_data@@@__crt_state_management@@QAEXQAU__crt_locale_data@@@Z 100be750 f i libucrtd:initialization.obj
 0002:000677a0       ___acrt_initialize         100be7a0 f   libucrtd:initialization.obj
 0002:000677c0       ___acrt_thread_attach      100be7c0 f   libucrtd:initialization.obj
 0002:000677e0       ___acrt_thread_detach      100be7e0 f   libucrtd:initialization.obj
 0002:00067800       ___acrt_uninitialize       100be800 f   libucrtd:initialization.obj
 0002:00067820       ___acrt_uninitialize_critical 100be820 f   libucrtd:initialization.obj
 0002:00067880       __get_terminate            100be880 f   libucrtd:terminate.obj
 0002:000678a0       _set_terminate             100be8a0 f   libucrtd:terminate.obj
 0002:000678e0       _terminate                 100be8e0 f   libucrtd:terminate.obj
 0002:00068550       __makepath                 100bf550 f   libucrtd:makepath.obj
 0002:00068580       __makepath_s               100bf580 f   libucrtd:makepath.obj
 0002:000685b0       __wmakepath                100bf5b0 f   libucrtd:makepath.obj
 0002:000685e0       __wmakepath_s              100bf5e0 f   libucrtd:makepath.obj
 0002:0006a770       ??$tcsncpy_s@AAPADIAAPBDABI@?$__crt_char_traits@D@@SAHAAPAD$$QAIAAPBDABI@Z 100c1770 f i libucrtd:splitpath.obj
 0002:0006a7a0       ??$tcsncpy_s@AAPADIAAPBDH@?$__crt_char_traits@D@@SAHAAPAD$$QAIAAPBD$$QAH@Z 100c17a0 f i libucrtd:splitpath.obj
 0002:0006a7d0       ??$tcsncpy_s@AAPA_WIAAPB_WABI@?$__crt_char_traits@_W@@SAHAAPA_W$$QAIAAPB_WABI@Z 100c17d0 f i libucrtd:splitpath.obj
 0002:0006a800       ??$tcsncpy_s@AAPA_WIAAPB_WH@?$__crt_char_traits@_W@@SAHAAPA_W$$QAIAAPB_W$$QAH@Z 100c1800 f i libucrtd:splitpath.obj
 0002:0006aaa0       __splitpath                100c1aa0 f   libucrtd:splitpath.obj
 0002:0006aad0       __splitpath_s              100c1ad0 f   libucrtd:splitpath.obj
 0002:0006ab30       __wsplitpath               100c1b30 f   libucrtd:splitpath.obj
 0002:0006ab60       __wsplitpath_s             100c1b60 f   libucrtd:splitpath.obj
 0002:0006afa0       _wcscpy_s                  100c1fa0 f   libucrtd:wcscpy_s.obj
 0002:0006afd0       ___p__crtDbgFlag           100c1fd0 f   libucrtd:debug_heap.obj
 0002:0006aff0       ___p__crtBreakAlloc        100c1ff0 f   libucrtd:debug_heap.obj
 0002:0006b010       __CrtGetAllocHook          100c2010 f   libucrtd:debug_heap.obj
 0002:0006b030       __CrtSetAllocHook          100c2030 f   libucrtd:debug_heap.obj
 0002:0006b060       __CrtGetDumpClient         100c2060 f   libucrtd:debug_heap.obj
 0002:0006b080       __CrtSetDumpClient         100c2080 f   libucrtd:debug_heap.obj
 0002:0006b0b0       __CrtCheckMemory           100c20b0 f   libucrtd:debug_heap.obj
 0002:0006b240       __CrtDoForAllClientObjects 100c2240 f   libucrtd:debug_heap.obj
 0002:0006b3a0       __CrtDumpMemoryLeaks       100c23a0 f   libucrtd:debug_heap.obj
 0002:0006b440       __CrtIsMemoryBlock         100c2440 f   libucrtd:debug_heap.obj
 0002:0006b590       __CrtIsValidHeapPointer    100c2590 f   libucrtd:debug_heap.obj
 0002:0006b5e0       __CrtIsValidPointer        100c25e0 f   libucrtd:debug_heap.obj
 0002:0006b610       __CrtMemCheckpoint         100c2610 f   libucrtd:debug_heap.obj
 0002:0006b850       __CrtMemDifference         100c2850 f   libucrtd:debug_heap.obj
 0002:0006bac0       __CrtMemDumpAllObjectsSince 100c2ac0 f   libucrtd:debug_heap.obj
 0002:0006bb60       __CrtMemDumpStatistics     100c2b60 f   libucrtd:debug_heap.obj
 0002:0006bc90       __CrtReportBlockType       100c2c90 f   libucrtd:debug_heap.obj
 0002:0006bcc0       __CrtSetBreakAlloc         100c2cc0 f   libucrtd:debug_heap.obj
 0002:0006bcf0       __CrtSetDbgFlag            100c2cf0 f   libucrtd:debug_heap.obj
 0002:0006be70       __aligned_free_dbg         100c2e70 f   libucrtd:debug_heap.obj
 0002:0006bf20       __aligned_malloc_dbg       100c2f20 f   libucrtd:debug_heap.obj
 0002:0006bf50       __aligned_msize_dbg        100c2f50 f   libucrtd:debug_heap.obj
 0002:0006c080       __aligned_offset_malloc_dbg 100c3080 f   libucrtd:debug_heap.obj
 0002:0006c260       __aligned_offset_realloc_dbg 100c3260 f   libucrtd:debug_heap.obj
 0002:0006c570       __aligned_offset_recalloc_dbg 100c3570 f   libucrtd:debug_heap.obj
 0002:0006c630       __aligned_realloc_dbg      100c3630 f   libucrtd:debug_heap.obj
 0002:0006c660       __aligned_recalloc_dbg     100c3660 f   libucrtd:debug_heap.obj
 0002:0006c690       __calloc_dbg               100c3690 f   libucrtd:debug_heap.obj
 0002:0006c710       __expand_dbg               100c3710 f   libucrtd:debug_heap.obj
 0002:0006c850       __free_dbg                 100c3850 f   libucrtd:debug_heap.obj
 0002:0006c900       __malloc_dbg               100c3900 f   libucrtd:debug_heap.obj
 0002:0006c930       __msize_dbg                100c3930 f   libucrtd:debug_heap.obj
 0002:0006cac0       __realloc_dbg              100c3ac0 f   libucrtd:debug_heap.obj
 0002:0006cb70       __recalloc_dbg             100c3b70 f   libucrtd:debug_heap.obj
 0002:0006de70       __CrtSetDbgBlockType       100c4e70 f   libucrtd:debug_heap.obj
 0002:0006f590       ??0_LocaleUpdate@@QAE@QAU__crt_locale_pointers@@@Z 100c6590 f i libucrtd:debug_heap.obj
 0002:0006f6a0       ??1_LocaleUpdate@@QAE@XZ   100c66a0 f i libucrtd:debug_heap.obj
 0002:0006f6e0       ?GetLocaleT@_LocaleUpdate@@QAEPAU__crt_locale_pointers@@XZ 100c66e0 f i libucrtd:debug_heap.obj
 0002:0006f700       ___acrt_get_locale_data_prefix 100c6700 f i libucrtd:debug_heap.obj
 0002:0006f720       __chvalidchk_l             100c6720 f i libucrtd:debug_heap.obj
 0002:0006f750       __ischartype_l             100c6750 f i libucrtd:debug_heap.obj
 0002:0006f7f0       _strcmp                    100c67f0 f   libucrtd:strcmp.obj
 0002:0006f8a0       _strlen                    100c68a0 f   libucrtd:strlen.obj
 0002:0006f950       __set_abort_behavior       100c6950 f   libucrtd:abort.obj
 0002:0006f990       _abort                     100c6990 f   libucrtd:abort.obj
 0002:0006fa20       ??$__crt_fast_decode_pointer@P6AXPB_W00II@Z@@YAP6AXPB_W00II@ZQ6AX000II@Z@Z 100c6a20 f i libucrtd:invalid_parameter.obj
 0002:0006fa60       ??$__crt_fast_encode_pointer@P6AXPB_W00II@Z@@YAP6AXPB_W00II@ZQ6AX000II@Z@Z 100c6a60 f i libucrtd:invalid_parameter.obj
 0002:0006faa0       ??$initialize_from_array@$$BY00Q6AXPB_W00II@Z@?$dual_state_global@P6AXPB_W00II@Z@__crt_state_management@@QAAXAAY00Q6AXPB_W00II@Z@Z 100c6aa0 f i libucrtd:invalid_parameter.obj
 0002:0006fb00       ?check_synchronize_global_state_index@__crt_cached_ptd_host@@AAEIXZ 100c6b00 f i libucrtd:invalid_parameter.obj
 0002:0006fb60       ?dangerous_get_state_array@?$dual_state_global@P6AXPB_W00II@Z@__crt_state_management@@QAEPAP6AXPB_W00II@ZXZ 100c6b60 f i libucrtd:invalid_parameter.obj
 0002:0006fb80       ?get_current_global_state_index@__crt_cached_ptd_host@@QAEIXZ 100c6b80 f i libucrtd:invalid_parameter.obj
 0002:0006fba0       ?get_raw_ptd_noexit@__crt_cached_ptd_host@@QAEPAU__acrt_ptd@@XZ 100c6ba0 f i libucrtd:invalid_parameter.obj
 0002:0006fbc0       ?try_synchronize_per_thread_data@__crt_cached_ptd_host@@AAEPAU__acrt_ptd@@XZ 100c6bc0 f i libucrtd:invalid_parameter.obj
 0002:0006fbf0       ?value@?$dual_state_global@P6AXPB_W00II@Z@__crt_state_management@@QAEAAP6AXPB_W00II@ZAAV__crt_cached_ptd_host@@@Z 100c6bf0 f i libucrtd:invalid_parameter.obj
 0002:0006fc20       ?value@?$dual_state_global@P6AXPB_W00II@Z@__crt_state_management@@QAEAAP6AXPB_W00II@ZXZ 100c6c20 f i libucrtd:invalid_parameter.obj
 0002:0006fc40       ___acrt_call_reportfault   100c6c40 f   libucrtd:invalid_parameter.obj
 0002:0006fdf0       ___acrt_initialize_invalid_parameter_handler 100c6df0 f   libucrtd:invalid_parameter.obj
 0002:0006fe20       __get_invalid_parameter_handler 100c6e20 f   libucrtd:invalid_parameter.obj
 0002:0006fe50       __get_thread_local_invalid_parameter_handler 100c6e50 f   libucrtd:invalid_parameter.obj
 0002:0006fe80       __invalid_parameter        100c6e80 f   libucrtd:invalid_parameter.obj
 0002:0006fed0       __invalid_parameter_internal 100c6ed0 f   libucrtd:invalid_parameter.obj
 0002:0006ffd0       __invalid_parameter_noinfo 100c6fd0 f   libucrtd:invalid_parameter.obj
 0002:0006fff0       __invalid_parameter_noinfo_noreturn 100c6ff0 f   libucrtd:invalid_parameter.obj
 0002:00070030       __invoke_watson            100c7030 f   libucrtd:invalid_parameter.obj
 0002:00070080       __set_invalid_parameter_handler 100c7080 f   libucrtd:invalid_parameter.obj
 0002:000700e0       __set_thread_local_invalid_parameter_handler 100c70e0 f   libucrtd:invalid_parameter.obj
 0002:00070120       ??$is_overflow_condition@_K@__crt_strtox@@YA_NI_K@Z 100c7120 f i libucrtd:atox.obj
 0002:000701d0       ??$make_c_string_character_source@D$$T@__crt_strtox@@YA?AV?$c_string_character_source@D@0@QBD$$T@Z 100c71d0 f i libucrtd:atox.obj
 0002:000701f0       ??$make_c_string_character_source@_W$$T@__crt_strtox@@YA?AV?$c_string_character_source@_W@0@QB_W$$T@Z 100c71f0 f i libucrtd:atox.obj
 0002:00070210       ??$parse_integer@KV?$c_string_character_source@D@__crt_strtox@@$00@__crt_strtox@@YAKAAV__crt_cached_ptd_host@@V?$c_string_character_source@D@0@H_N@Z 100c7210 f i libucrtd:atox.obj
 0002:00070650       ??$parse_integer@KV?$c_string_character_source@_W@__crt_strtox@@$00@__crt_strtox@@YAKAAV__crt_cached_ptd_host@@V?$c_string_character_source@_W@0@H_N@Z 100c7650 f i libucrtd:atox.obj
 0002:00070a90       ??$parse_integer@_KV?$c_string_character_source@D@__crt_strtox@@$00@__crt_strtox@@YA_KAAV__crt_cached_ptd_host@@V?$c_string_character_source@D@0@H_N@Z 100c7a90 f i libucrtd:atox.obj
 0002:00070f60       ??$parse_integer@_KV?$c_string_character_source@_W@__crt_strtox@@$00@__crt_strtox@@YA_KAAV__crt_cached_ptd_host@@V?$c_string_character_source@_W@0@H_N@Z 100c7f60 f i libucrtd:atox.obj
 0002:00071440       ??$parse_integer_from_string@JD$$T@__crt_strtox@@YAJQBD$$THQAU__crt_locale_pointers@@@Z 100c8440 f i libucrtd:atox.obj
 0002:000714b0       ??$parse_integer_from_string@J_W$$T@__crt_strtox@@YAJQB_W$$THQAU__crt_locale_pointers@@@Z 100c84b0 f i libucrtd:atox.obj
 0002:00071520       ??$parse_integer_from_string@_JD$$T@__crt_strtox@@YA_JQBD$$THQAU__crt_locale_pointers@@@Z 100c8520 f i libucrtd:atox.obj
 0002:00071590       ??$parse_integer_from_string@_J_W$$T@__crt_strtox@@YA_JQB_W$$THQAU__crt_locale_pointers@@@Z 100c8590 f i libucrtd:atox.obj
 0002:00071600       ?is_space@__crt_strtox@@YA_NDQAU__crt_locale_pointers@@@Z 100c8600 f i libucrtd:atox.obj
 0002:00071650       ?is_space@__crt_strtox@@YA_N_WPAU__crt_locale_pointers@@@Z 100c8650 f i libucrtd:atox.obj
 0002:00071690       ?maximum_signed_value@__crt_strtox@@YA_J_K@Z 100c8690 f i libucrtd:atox.obj
 0002:000716b0       ?minimum_signed_value@__crt_strtox@@YA_J_K@Z 100c86b0 f i libucrtd:atox.obj
 0002:000716d0       __atoi64                   100c86d0 f   libucrtd:atox.obj
 0002:000716f0       __atoi64_l                 100c86f0 f   libucrtd:atox.obj
 0002:00071720       __atoi_l                   100c8720 f   libucrtd:atox.obj
 0002:00071750       __atol_l                   100c8750 f   libucrtd:atox.obj
 0002:00071780       __atoll_l                  100c8780 f   libucrtd:atox.obj
 0002:000717b0       __wtoi                     100c87b0 f   libucrtd:atox.obj
 0002:000717d0       __wtoi64                   100c87d0 f   libucrtd:atox.obj
 0002:000717f0       __wtoi64_l                 100c87f0 f   libucrtd:atox.obj
 0002:00071820       __wtoi_l                   100c8820 f   libucrtd:atox.obj
 0002:00071850       __wtol                     100c8850 f   libucrtd:atox.obj
 0002:00071870       __wtol_l                   100c8870 f   libucrtd:atox.obj
 0002:000718a0       __wtoll                    100c88a0 f   libucrtd:atox.obj
 0002:000718c0       __wtoll_l                  100c88c0 f   libucrtd:atox.obj
 0002:000718f0       _atoi                      100c88f0 f   libucrtd:atox.obj
 0002:00071910       _atol                      100c8910 f   libucrtd:atox.obj
 0002:00071930       _atoll                     100c8930 f   libucrtd:atox.obj
 0002:00071950       _strncmp                   100c8950 f   libucrtd:strncmp.obj
 0002:000719e6       @_guard_check_icall@4      100c89e6 f i libucrtd:checkcfg.obj
 0002:000719f0       _wcsncmp                   100c89f0 f   libucrtd:wcsncmp.obj
 0002:00071a60       _free                      100c8a60 f   libucrtd:free.obj
 0002:00071a80       _malloc                    100c8a80 f   libucrtd:malloc.obj
 0002:00071aa0       __CrtGetReportHook         100c8aa0 f   libucrtd:dbgrptt.obj
 0002:00071ab0       __CrtSetReportFile         100c8ab0 f   libucrtd:dbgrptt.obj
 0002:00071be0       __CrtSetReportHook         100c8be0 f   libucrtd:dbgrptt.obj
 0002:00071c10       __CrtSetReportMode         100c8c10 f   libucrtd:dbgrptt.obj
 0002:00071da0       __VCrtDbgReportA           100c8da0 f   libucrtd:dbgrptt.obj
 0002:000728a0       __VCrtDbgReportW           100c98a0 f   libucrtd:dbgrptt.obj
 0002:00073540       __snprintf_s               100ca540 f i libucrtd:dbgrptt.obj
 0002:00073590       __vsnprintf_s              100ca590 f i libucrtd:dbgrptt.obj
 0002:000735c0       __vsnprintf_s_l            100ca5c0 f i libucrtd:dbgrptt.obj
 0002:00073770       ?get_doserrno@__crt_cached_ptd_host@@QAE@XZ 100ca770 f i libucrtd:errno.obj
 0002:00073790       ?set@?$cached@K@__crt_cached_ptd_host@@QAEKK@Z 100ca790 f i libucrtd:errno.obj
 0002:000737c0       ___acrt_errno_from_os_error 100ca7c0 f   libucrtd:errno.obj
 0002:00073890       ___acrt_errno_map_os_error 100ca890 f   libucrtd:errno.obj
 0002:000738d0       ___acrt_errno_map_os_error_ptd 100ca8d0 f   libucrtd:errno.obj
 0002:00073930       ___doserrno                100ca930 f   libucrtd:errno.obj
 0002:00073960       __errno                    100ca960 f   libucrtd:errno.obj
 0002:00073990       __get_doserrno             100ca990 f   libucrtd:errno.obj
 0002:00073a40       __get_errno                100caa40 f   libucrtd:errno.obj
 0002:00073af0       __set_doserrno             100caaf0 f   libucrtd:errno.obj
 0002:00073b30       __set_errno                100cab30 f   libucrtd:errno.obj
 0002:00073b70       ??$__acrt_convert_wcs_mbs_cp@_WDV<lambda_0fec1a7b3f42a53036604e18c2d5e07e>@@U__crt_win32_buffer_no_resizing@@@@YAHQB_WAAV?$__crt_win32_buffer@DU__crt_win32_buffer_no_resizing@@@@ABV<lambda_0fec1a7b3f42a53036604e18c2d5e07e>@@I@Z 100cab70 f i libucrtd:getmodulefilenamea.obj
 0002:00073d00       ??$__acrt_wcs_to_mbs_cp@U__crt_win32_buffer_no_resizing@@@@YAHQB_WAAV?$__crt_win32_buffer@DU__crt_win32_buffer_no_resizing@@@@I@Z 100cad00 f i libucrtd:getmodulefilenamea.obj
 0002:00073d30       ??0?$__crt_win32_buffer@DU__crt_win32_buffer_no_resizing@@@@QAE@QADI@Z 100cad30 f i libucrtd:getmodulefilenamea.obj
 0002:00073d90       ??1?$__crt_win32_buffer@DU__crt_win32_buffer_no_resizing@@@@QAE@XZ 100cad90 f i libucrtd:getmodulefilenamea.obj
 0002:00073df0       ??R<lambda_0fec1a7b3f42a53036604e18c2d5e07e>@@QBE@IQB_WQADI@Z 100cadf0 f i libucrtd:getmodulefilenamea.obj
 0002:00073e30       ?__acrt_get_utf8_acp_compatibility_codepage@@YAIXZ 100cae30 f i libucrtd:getmodulefilenamea.obj
 0002:00073ee0       ?_deallocate@?$__crt_win32_buffer@DU__crt_win32_buffer_no_resizing@@@@AAEXXZ 100caee0 f i libucrtd:getmodulefilenamea.obj
 0002:00073f40       ?allocate@?$__crt_win32_buffer@DU__crt_win32_buffer_no_resizing@@@@QAEHI@Z 100caf40 f i libucrtd:getmodulefilenamea.obj
 0002:00073fc0       ?allocate@__crt_win32_buffer_no_resizing@@SAHQAPAXIABV__crt_win32_buffer_empty_debug_info@@@Z 100cafc0 f i libucrtd:getmodulefilenamea.obj
 0002:00073fe0       ?capacity@?$__crt_win32_buffer@DU__crt_win32_buffer_no_resizing@@@@QBEIXZ 100cafe0 f i libucrtd:getmodulefilenamea.obj
 0002:00074000       ?data@?$__crt_win32_buffer@DU__crt_win32_buffer_no_resizing@@@@QAEPADXZ 100cb000 f i libucrtd:getmodulefilenamea.obj
 0002:00074020       ?deallocate@__crt_win32_buffer_no_resizing@@SAXQAXABV__crt_win32_buffer_empty_debug_info@@@Z 100cb020 f i libucrtd:getmodulefilenamea.obj
 0002:00074030       ?debug_info@?$__crt_win32_buffer@DU__crt_win32_buffer_no_resizing@@@@QBEABV__crt_win32_buffer_empty_debug_info@@XZ 100cb030 f i libucrtd:getmodulefilenamea.obj
 0002:00074050       ?set_to_nullptr@?$__crt_win32_buffer@DU__crt_win32_buffer_no_resizing@@@@QAEXXZ 100cb050 f i libucrtd:getmodulefilenamea.obj
 0002:00074090       ?size@?$__crt_win32_buffer@DU__crt_win32_buffer_no_resizing@@@@QAEXI@Z 100cb090 f i libucrtd:getmodulefilenamea.obj
 0002:000740b0       ?size@?$__crt_win32_buffer@DU__crt_win32_buffer_no_resizing@@@@QBEIXZ 100cb0b0 f i libucrtd:getmodulefilenamea.obj
 0002:000740d0       ___acrt_GetModuleFileNameA 100cb0d0 f   libucrtd:getmodulefilenamea.obj
 0002:00074480       ??$message_box@$$TABQBDABQBDK@?$__crt_char_traits@D@@SAH$$QA$$TABQBD1$$QAK@Z 100cb480 f i libucrtd:crtmbox.obj
 0002:000744b0       ??$message_box@$$TABQB_WABQB_WK@?$__crt_char_traits@_W@@SAH$$QA$$TABQB_W1$$QAK@Z 100cb4b0 f i libucrtd:crtmbox.obj
 0002:000744e0       ??$message_box@PAUHWND__@@ABQBDABQBDABI@?$__crt_char_traits@D@@SAH$$QAPAUHWND__@@ABQBD1ABI@Z 100cb4e0 f i libucrtd:crtmbox.obj
 0002:00074510       ??$message_box@PAUHWND__@@ABQB_WABQB_WABI@?$__crt_char_traits@_W@@SAH$$QAPAUHWND__@@ABQB_W1ABI@Z 100cb510 f i libucrtd:crtmbox.obj
 0002:00074540       ??$output_debug_string@ABQBD@?$__crt_char_traits@D@@SAXABQBD@Z 100cb540 f i libucrtd:crtmbox.obj
 0002:00074560       ??$output_debug_string@ABQB_W@?$__crt_char_traits@_W@@SAXABQB_W@Z 100cb560 f i libucrtd:crtmbox.obj
 0002:00074580       ___acrt_show_narrow_message_box 100cb580 f   libucrtd:crtmbox.obj
 0002:000745b0       ___acrt_show_wide_message_box 100cb5b0 f   libucrtd:crtmbox.obj
 0002:000745e0       ___acrt_initialize_locks   100cb5e0 f   libucrtd:locks.obj
 0002:00074660       ___acrt_lock               100cb660 f   libucrtd:locks.obj
 0002:00074680       ___acrt_uninitialize_locks 100cb680 f   libucrtd:locks.obj
 0002:000746e0       ___acrt_unlock             100cb6e0 f   libucrtd:locks.obj
 0002:00074700       __lock_locales             100cb700 f   libucrtd:locks.obj
 0002:00074720       __unlock_locales           100cb720 f   libucrtd:locks.obj
 0002:00074740       ??$?B$$A6AXH@Z@__crt_fast_encoded_nullptr_t@@QBEP6AXH@ZXZ 100cb740 f i libucrtd:signal.obj
 0002:000748a0       ??$__crt_fast_decode_pointer@P6AXH@Z@@YAP6AXH@ZQ6AXH@Z@Z 100cb8a0 f i libucrtd:signal.obj
 0002:000748e0       ??$__crt_fast_encode_pointer@P6AXH@Z@@YAP6AXH@ZQ6AXH@Z@Z 100cb8e0 f i libucrtd:signal.obj
 0002:00074c60       ?initialize@?$dual_state_global@P6AXH@Z@__crt_state_management@@QAEXQ6AXH@Z@Z 100cbc60 f i libucrtd:signal.obj
 0002:00074e00       ?value@?$dual_state_global@P6AXH@Z@__crt_state_management@@QAEAAP6AXH@ZXZ 100cbe00 f i libucrtd:signal.obj
 0002:00074e20       ___acrt_get_sigabrt_handler 100cbe20 f   libucrtd:signal.obj
 0002:00074e50       ___acrt_initialize_signal_handlers 100cbe50 f   libucrtd:signal.obj
 0002:00074ea0       ___fpecode                 100cbea0 f   libucrtd:signal.obj
 0002:00074ec0       ___pxcptinfoptrs           100cbec0 f   libucrtd:signal.obj
 0002:00074ee0       _raise                     100cbee0 f   libucrtd:signal.obj
 0002:000753b0       _signal                    100cc3b0 f   libucrtd:signal.obj
 0002:000756e0       __CrtGetDebugFillThreshold 100cc6e0 f   libucrtd:debug_fill_threshold.obj
 0002:000756f0       __CrtSetDebugFillThreshold 100cc6f0 f   libucrtd:debug_fill_threshold.obj
 0002:00075720       ?value@?$dual_state_global@PAU__crt_locale_data@@@__crt_state_management@@QAEAAPAU__crt_locale_data@@XZ 100cc720 f i libucrtd:locale_update.obj
 0002:00075740       ?value@?$dual_state_global@PAU__crt_multibyte_data@@@__crt_state_management@@QAEAAPAU__crt_multibyte_data@@XZ 100cc740 f i libucrtd:locale_update.obj
 0002:00075760       ?value_explicit@?$dual_state_global@PAU__crt_locale_data@@@__crt_state_management@@QAEAAPAU__crt_locale_data@@I@Z 100cc760 f i libucrtd:locale_update.obj
 0002:00075780       ?value_explicit@?$dual_state_global@PAU__crt_multibyte_data@@@__crt_state_management@@QAEAAPAU__crt_multibyte_data@@I@Z 100cc780 f i libucrtd:locale_update.obj
 0002:000757a0       ___acrt_should_sync_with_global_locale 100cc7a0 f i libucrtd:locale_update.obj
 0002:000757e0       ___acrt_update_locale_info 100cc7e0 f   libucrtd:locale_update.obj
 0002:00075830       ___acrt_update_locale_info_explicit 100cc830 f   libucrtd:locale_update.obj
 0002:00075880       ___acrt_update_multibyte_info 100cc880 f   libucrtd:locale_update.obj
 0002:000758d0       ___acrt_update_multibyte_info_explicit 100cc8d0 f   libucrtd:locale_update.obj
 0002:00075920       ?__acrt_fp_classify@@YA?AW4__acrt_fp_class@@ABN@Z 100cc920 f i libucrtd:cvt.obj
 0002:00075a80       ?__acrt_fp_is_negative@@YA_NABN@Z 100cca80 f i libucrtd:cvt.obj
 0002:00077100       ?strrchr@@YAPADQADH@Z      100ce100 f i libucrtd:cvt.obj
 0002:00077120       ___acrt_fp_format          100ce120 f   libucrtd:cvt.obj
 0002:000776c0       ?value_or@?$cached@H@__crt_cached_ptd_host@@QBEHH@Z 100ce6c0 f i libucrtd:wctomb.obj
 0002:000776f0       __wctomb_internal          100ce6f0 f   libucrtd:wctomb.obj
 0002:00077b50       __wctomb_l                 100ceb50 f   libucrtd:wctomb.obj
 0002:00077bf0       __wctomb_s_l               100cebf0 f   libucrtd:wctomb.obj
 0002:00077c50       _wctomb                    100cec50 f   libucrtd:wctomb.obj
 0002:00077ce0       _wctomb_s                  100cece0 f   libucrtd:wctomb.obj
 0002:00077d40       __isleadbyte_fast_internal 100ced40 f i libucrtd:mbtowc.obj
 0002:00077d70       __mbtowc_internal          100ced70 f   libucrtd:mbtowc.obj
 0002:000780a0       __mbtowc_l                 100cf0a0 f   libucrtd:mbtowc.obj
 0002:000780f0       _mbtowc                    100cf0f0 f   libucrtd:mbtowc.obj
 0002:00078140       ?__mblen_utf8@__crt_mbstring@@YAHPBD@Z 100cf140 f   libucrtd:mbrtoc32.obj
 0002:00078200       ?__mbrtoc32_utf8@__crt_mbstring@@YAIPA_UPBDIPAU_Mbstatet@@AAV__crt_cached_ptd_host@@@Z 100cf200 f   libucrtd:mbrtoc32.obj
 0002:00078570       _mbrtoc32                  100cf570 f   libucrtd:mbrtoc32.obj
 0002:000785c0       ?__c16rtomb_utf8@__crt_mbstring@@YAIPAD_SPAU_Mbstatet@@AAV__crt_cached_ptd_host@@@Z 100cf5c0 f   libucrtd:c16rtomb.obj
 0002:00078840       _c16rtomb                  100cf840 f   libucrtd:c16rtomb.obj
 0002:00078910       ?__mbrtowc_utf8@__crt_mbstring@@YAIPA_WPBDIPAU_Mbstatet@@AAV__crt_cached_ptd_host@@@Z 100cf910 f   libucrtd:mbrtowc.obj
 0002:00078980       ?__mbsrtowcs_utf8@__crt_mbstring@@YAIPA_WPAPBDIPAU_Mbstatet@@AAV__crt_cached_ptd_host@@@Z 100cf980 f   libucrtd:mbrtowc.obj
 0002:00079830       _btowc                     100d0830 f   libucrtd:mbrtowc.obj
 0002:000798e0       _mbrlen                    100d08e0 f   libucrtd:mbrtowc.obj
 0002:00079960       _mbrtowc                   100d0960 f   libucrtd:mbrtowc.obj
 0002:00079a30       _mbsrtowcs                 100d0a30 f   libucrtd:mbrtowc.obj
 0002:00079a80       _mbsrtowcs_s               100d0a80 f   libucrtd:mbrtowc.obj
 0002:00079ae0       ?lowio_handle@__crt_stdio_stream@@QBEHXZ 100d0ae0 f i libucrtd:fileno.obj
 0002:00079b10       __fileno                   100d0b10 f   libucrtd:fileno.obj
 0002:00079be0       ??$?RPAU__crt_stdio_stream_data@@@__crt_internal_free_policy@@QBEXQBQAU__crt_stdio_stream_data@@@Z 100d0be0 f i libucrtd:_file.obj
 0002:00079c10       ??0?$__crt_unique_heap_ptr@PAU__crt_stdio_stream_data@@U__crt_internal_free_policy@@@@QAE@QAPAU__crt_stdio_stream_data@@@Z 100d0c10 f i libucrtd:_file.obj
 0002:00079c30       ??1?$__crt_unique_heap_ptr@PAU__crt_stdio_stream_data@@U__crt_internal_free_policy@@@@QAE@XZ 100d0c30 f i libucrtd:_file.obj
 0002:00079c50       ?detach@?$__crt_unique_heap_ptr@PAU__crt_stdio_stream_data@@U__crt_internal_free_policy@@@@QAEPAPAU__crt_stdio_stream_data@@XZ 100d0c50 f i libucrtd:_file.obj
 0002:00079c80       ?release@?$__crt_unique_heap_ptr@PAU__crt_stdio_stream_data@@U__crt_internal_free_policy@@@@QAEXXZ 100d0c80 f i libucrtd:_file.obj
 0002:00079cb0       ___acrt_initialize_stdio   100d0cb0 f   libucrtd:_file.obj
 0002:00079e80       ___acrt_iob_func           100d0e80 f   libucrtd:_file.obj
 0002:00079ea0       ___acrt_uninitialize_stdio 100d0ea0 f   libucrtd:_file.obj
 0002:00079f40       __get_stream_buffer_pointers 100d0f40 f   libucrtd:_file.obj
 0002:0007a050       __lock_file                100d1050 f   libucrtd:_file.obj
 0002:0007a080       __unlock_file              100d1080 f   libucrtd:_file.obj
 0002:0007a0b0       __get_printf_count_output  100d10b0 f   libucrtd:printf_count_output.obj
 0002:0007a0f0       __set_printf_count_output  100d10f0 f   libucrtd:printf_count_output.obj
 0002:0007a370       __fputwc_nolock            100d1370 f   libucrtd:fputwc.obj
 0002:0007a3c0       __fputwc_nolock_internal   100d13c0 f   libucrtd:fputwc.obj
 0002:0007a650       __fputwchar                100d1650 f   libucrtd:fputwc.obj
 0002:0007a680       __putwc_nolock             100d1680 f   libucrtd:fputwc.obj
 0002:0007a6a0       _fputwc                    100d16a0 f   libucrtd:fputwc.obj
 0002:0007a6f0       _putwc                     100d16f0 f   libucrtd:fputwc.obj
 0002:0007a710       _putwchar                  100d1710 f   libucrtd:fputwc.obj
 0002:0007aa20       __fputc_nolock             100d1a20 f   libucrtd:fputc.obj
 0002:0007aa70       __fputc_nolock_internal    100d1a70 f   libucrtd:fputc.obj
 0002:0007ab20       __fputchar                 100d1b20 f   libucrtd:fputc.obj
 0002:0007ab50       __putc_nolock              100d1b50 f   libucrtd:fputc.obj
 0002:0007ab70       _fputc                     100d1b70 f   libucrtd:fputc.obj
 0002:0007abc0       _putc                      100d1bc0 f   libucrtd:fputc.obj
 0002:0007abe0       _putchar                   100d1be0 f   libucrtd:fputc.obj
 0002:0007ac00       ?has_any_buffer@__crt_stdio_stream@@QBE_NXZ 100d1c00 f i libucrtd:_sftbuf.obj
 0002:0007ac20       ?has_any_of@__crt_stdio_stream@@QBE_NJ@Z 100d1c20 f i libucrtd:_sftbuf.obj
 0002:0007ac60       ?has_temporary_buffer@__crt_stdio_stream@@QBE_NXZ 100d1c60 f i libucrtd:_sftbuf.obj
 0002:0007ac80       ?set_flags@__crt_stdio_stream@@QBE_NJ@Z 100d1c80 f i libucrtd:_sftbuf.obj
 0002:0007ace0       ?unset_flags@__crt_stdio_stream@@QBE_NJ@Z 100d1ce0 f i libucrtd:_sftbuf.obj
 0002:0007ad40       ___acrt_should_use_temporary_buffer 100d1d40 f   libucrtd:_sftbuf.obj
 0002:0007ada0       ___acrt_stdio_begin_temporary_buffering_nolock 100d1da0 f   libucrtd:_sftbuf.obj
 0002:0007afe0       ___acrt_stdio_end_temporary_buffering_nolock 100d1fe0 f   libucrtd:_sftbuf.obj
 0002:0007b080       ??$?RU__acrt_ptd@@@__crt_internal_free_policy@@QBEXQBU__acrt_ptd@@@Z 100d2080 f i libucrtd:per_thread_data.obj
 0002:0007b570       ??$internal_get_ptd_head@P6GPAXK@Z@@YAPAU__acrt_ptd@@P6GPAXK@Z@Z 100d2570 f i libucrtd:per_thread_data.obj
 0002:0007b5c0       ??$try_get_ptd_head@P6GPAXK@Z@@YAPAU__acrt_ptd@@P6GPAXK@Z@Z 100d25c0 f i libucrtd:per_thread_data.obj
 0002:0007b870       ??0?$__crt_unique_heap_ptr@U__acrt_ptd@@U__crt_internal_free_policy@@@@QAE@QAU__acrt_ptd@@@Z 100d2870 f i libucrtd:per_thread_data.obj
 0002:0007b890       ??1?$__crt_unique_heap_ptr@U__acrt_ptd@@U__crt_internal_free_policy@@@@QAE@XZ 100d2890 f i libucrtd:per_thread_data.obj
 0002:0007b8b0       ??B?$__crt_unique_heap_ptr@U__acrt_ptd@@U__crt_internal_free_policy@@@@QBE_NXZ 100d28b0 f i libucrtd:per_thread_data.obj
 0002:0007bcb0       ?dangerous_get_state_array@?$dual_state_global@PAU__crt_locale_data@@@__crt_state_management@@QAEPAPAU__crt_locale_data@@XZ 100d2cb0 f i libucrtd:per_thread_data.obj
 0002:0007bed0       ?detach@?$__crt_unique_heap_ptr@U__acrt_ptd@@U__crt_internal_free_policy@@@@QAEPAU__acrt_ptd@@XZ 100d2ed0 f i libucrtd:per_thread_data.obj
 0002:0007bf00       ?get@?$__crt_unique_heap_ptr@U__acrt_ptd@@U__crt_internal_free_policy@@@@QBEPAU__acrt_ptd@@XZ 100d2f00 f i libucrtd:per_thread_data.obj
 0002:0007bf20       ?get_current_state_index2@__crt_state_management@@YAIXZ 100d2f20 f i libucrtd:per_thread_data.obj
 0002:0007bf30       ?internal_get_ptd_head_slow@@YAPAU__acrt_ptd@@XZ 100d2f30 f   libucrtd:per_thread_data.obj
 0002:0007c160       ?is_valid@?$__crt_unique_heap_ptr@U__acrt_ptd@@U__crt_internal_free_policy@@@@QBE_NXZ 100d3160 f i libucrtd:per_thread_data.obj
 0002:0007c1a0       ?release@?$__crt_unique_heap_ptr@U__acrt_ptd@@U__crt_internal_free_policy@@@@QAEXXZ 100d31a0 f i libucrtd:per_thread_data.obj
 0002:0007c270       ___acrt_freeptd            100d3270 f   libucrtd:per_thread_data.obj
 0002:0007c2c0       ___acrt_getptd             100d32c0 f   libucrtd:per_thread_data.obj
 0002:0007c2f0       ___acrt_getptd_head        100d32f0 f   libucrtd:per_thread_data.obj
 0002:0007c330       ___acrt_getptd_noexit      100d3330 f   libucrtd:per_thread_data.obj
 0002:0007c370       ___acrt_getptd_noexit_explicit 100d3370 f   libucrtd:per_thread_data.obj
 0002:0007c390       ___acrt_initialize_ptd     100d3390 f   libucrtd:per_thread_data.obj
 0002:0007c3f0       ___acrt_uninitialize_ptd   100d33f0 f   libucrtd:per_thread_data.obj
 0002:0007c420       ___threadhandle            100d3420 f   libucrtd:per_thread_data.obj
 0002:0007c430       ___threadid                100d3430 f   libucrtd:per_thread_data.obj
 0002:0007c450       ??$?RU__crt_locale_data@@@__crt_internal_free_policy@@QBEXQBU__crt_locale_data@@@Z 100d3450 f i libucrtd:wsetlocale.obj
 0002:0007c480       ??$?RU__crt_locale_pointers@@@__crt_internal_free_policy@@QBEXQBU__crt_locale_pointers@@@Z 100d3480 f i libucrtd:wsetlocale.obj
 0002:0007c4b0       ??$?RU__crt_multibyte_data@@@__crt_internal_free_policy@@QBEXQBU__crt_multibyte_data@@@Z 100d34b0 f i libucrtd:wsetlocale.obj
 0002:0007cd80       ??0?$__crt_unique_heap_ptr@U__crt_locale_data@@U__crt_internal_free_policy@@@@QAE@QAU__crt_locale_data@@@Z 100d3d80 f i libucrtd:wsetlocale.obj
 0002:0007cda0       ??0?$__crt_unique_heap_ptr@U__crt_locale_pointers@@U__crt_internal_free_policy@@@@QAE@QAU__crt_locale_pointers@@@Z 100d3da0 f i libucrtd:wsetlocale.obj
 0002:0007cdc0       ??0?$__crt_unique_heap_ptr@U__crt_multibyte_data@@U__crt_internal_free_policy@@@@QAE@QAU__crt_multibyte_data@@@Z 100d3dc0 f i libucrtd:wsetlocale.obj
 0002:0007cde0       ??0_expandlocale_locale_name_cache@@QAE@QA_WIQAU__crt_qualified_locale_data@@@Z 100d3de0 f i libucrtd:wsetlocale.obj
 0002:0007ce70       ??1?$__crt_unique_heap_ptr@U__crt_locale_data@@U__crt_internal_free_policy@@@@QAE@XZ 100d3e70 f i libucrtd:wsetlocale.obj
 0002:0007ce90       ??1?$__crt_unique_heap_ptr@U__crt_locale_pointers@@U__crt_internal_free_policy@@@@QAE@XZ 100d3e90 f i libucrtd:wsetlocale.obj
 0002:0007ceb0       ??1?$__crt_unique_heap_ptr@U__crt_multibyte_data@@U__crt_internal_free_policy@@@@QAE@XZ 100d3eb0 f i libucrtd:wsetlocale.obj
 0002:0007ced0       ??1_expandlocale_locale_name_cache@@QAE@XZ 100d3ed0 f i libucrtd:wsetlocale.obj
 0002:0007cf50       ??B?$__crt_unique_heap_ptr@U__crt_locale_data@@U__crt_internal_free_policy@@@@QBE_NXZ 100d3f50 f i libucrtd:wsetlocale.obj
 0002:0007cf70       ??B?$__crt_unique_heap_ptr@U__crt_locale_pointers@@U__crt_internal_free_policy@@@@QBE_NXZ 100d3f70 f i libucrtd:wsetlocale.obj
 0002:0007cf90       ??B?$__crt_unique_heap_ptr@U__crt_multibyte_data@@U__crt_internal_free_policy@@@@QBE_NXZ 100d3f90 f i libucrtd:wsetlocale.obj
 0002:0007d4a0       ?commit_locale_name@_expandlocale_locale_name_cache@@QAEXQB_WI@Z 100d44a0 f i libucrtd:wsetlocale.obj
 0002:0007d520       ?commit_locale_name_cache_already_updated@_expandlocale_locale_name_cache@@QAEXQB_WI@Z 100d4520 f i libucrtd:wsetlocale.obj
 0002:0007d590       ?detach@?$__crt_unique_heap_ptr@U__crt_locale_data@@U__crt_internal_free_policy@@@@QAEPAU__crt_locale_data@@XZ 100d4590 f i libucrtd:wsetlocale.obj
 0002:0007d5c0       ?detach@?$__crt_unique_heap_ptr@U__crt_locale_pointers@@U__crt_internal_free_policy@@@@QAEPAU__crt_locale_pointers@@XZ 100d45c0 f i libucrtd:wsetlocale.obj
 0002:0007d5f0       ?detach@?$__crt_unique_heap_ptr@U__crt_multibyte_data@@U__crt_internal_free_policy@@@@QAEPAU__crt_multibyte_data@@XZ 100d45f0 f i libucrtd:wsetlocale.obj
 0002:0007d620       ?get@?$__crt_unique_heap_ptr@U__crt_locale_data@@U__crt_internal_free_policy@@@@QBEPAU__crt_locale_data@@XZ 100d4620 f i libucrtd:wsetlocale.obj
 0002:0007d640       ?get@?$__crt_unique_heap_ptr@U__crt_locale_pointers@@U__crt_internal_free_policy@@@@QBEPAU__crt_locale_pointers@@XZ 100d4640 f i libucrtd:wsetlocale.obj
 0002:0007d660       ?get@?$__crt_unique_heap_ptr@U__crt_multibyte_data@@U__crt_internal_free_policy@@@@QBEPAU__crt_multibyte_data@@XZ 100d4660 f i libucrtd:wsetlocale.obj
 0002:0007d680       ?is_valid@?$__crt_unique_heap_ptr@U__crt_locale_data@@U__crt_internal_free_policy@@@@QBE_NXZ 100d4680 f i libucrtd:wsetlocale.obj
 0002:0007d6c0       ?is_valid@?$__crt_unique_heap_ptr@U__crt_locale_pointers@@U__crt_internal_free_policy@@@@QBE_NXZ 100d46c0 f i libucrtd:wsetlocale.obj
 0002:0007d700       ?is_valid@?$__crt_unique_heap_ptr@U__crt_multibyte_data@@U__crt_internal_free_policy@@@@QBE_NXZ 100d4700 f i libucrtd:wsetlocale.obj
 0002:0007d740       ?release@?$__crt_unique_heap_ptr@U__crt_locale_data@@U__crt_internal_free_policy@@@@QAEXXZ 100d4740 f i libucrtd:wsetlocale.obj
 0002:0007d770       ?release@?$__crt_unique_heap_ptr@U__crt_locale_pointers@@U__crt_internal_free_policy@@@@QAEXXZ 100d4770 f i libucrtd:wsetlocale.obj
 0002:0007d7a0       ?release@?$__crt_unique_heap_ptr@U__crt_multibyte_data@@U__crt_internal_free_policy@@@@QAEXXZ 100d47a0 f i libucrtd:wsetlocale.obj
 0002:0007d7d0       ___acrt_copy_locale_name   100d47d0 f   libucrtd:wsetlocale.obj
 0002:0007d8a0       ___acrt_set_locale_changed 100d48a0 f   libucrtd:wsetlocale.obj
 0002:0007d8c0       ___acrt_uninitialize_locale 100d48c0 f   libucrtd:wsetlocale.obj
 0002:0007d8f0       ___ascii_tolower           100d48f0 f i libucrtd:wsetlocale.obj
 0002:0007d920       ___ascii_towlower          100d4920 f i libucrtd:wsetlocale.obj
 0002:0007d940       ___lc_lctowcs              100d4940 f   libucrtd:wsetlocale.obj
 0002:0007da20       ___lc_wcstolc              100d4a20 f   libucrtd:wsetlocale.obj
 0002:0007dce0       __configthreadlocale       100d4ce0 f   libucrtd:wsetlocale.obj
 0002:0007deb0       __create_locale            100d4eb0 f   libucrtd:wsetlocale.obj
 0002:0007e670       __free_locale              100d5670 f   libucrtd:wsetlocale.obj
 0002:0007e7f0       __get_current_locale       100d57f0 f   libucrtd:wsetlocale.obj
 0002:0007e900       __wcreate_locale           100d5900 f   libucrtd:wsetlocale.obj
 0002:0007ebe0       __wcscats                  100d5be0 f   libucrtd:wsetlocale.obj
 0002:0007ec80       __wsetlocale               100d5c80 f   libucrtd:wsetlocale.obj
 0002:000809c0       ___p___mb_cur_max          100d79c0 f   libucrtd:nlsdata.obj
 0002:00080d70       ___acrt_initialize_lowio   100d7d70 f   libucrtd:ioinit.obj
 0002:00080e30       ___acrt_uninitialize_lowio 100d7e30 f   libucrtd:ioinit.obj
 0002:00080ea0       ___acrt_app_verifier_enabled 100d7ea0 f   libucrtd:peb_access.obj
 0002:00080ee0       ___acrt_is_secure_process  100d7ee0 f   libucrtd:peb_access.obj
 0002:00081320       ___acrt_get_begin_thread_init_policy 100d8320 f   libucrtd:win_policies.obj
 0002:00081340       ___acrt_get_developer_information_policy 100d8340 f   libucrtd:win_policies.obj
 0002:00081360       ___acrt_get_process_end_policy 100d8360 f   libucrtd:win_policies.obj
 0002:00081380       ___acrt_get_windowing_model_policy 100d8380 f   libucrtd:win_policies.obj
 0002:000813e0       ??$__acrt_convert_wcs_mbs_cp@D_WV<lambda_62f6974d9771e494a5ea317cc32e971c>@@U__crt_win32_buffer_internal_dynamic_resizing@@@@YAHQBDAAV?$__crt_win32_buffer@_WU__crt_win32_buffer_internal_dynamic_resizing@@@@ABV<lambda_62f6974d9771e494a5ea317cc32e971c>@@I@Z 100d83e0 f i libucrtd:argv_wildcards.obj
 0002:00081580       ??$__acrt_convert_wcs_mbs_cp@_WDV<lambda_28bda7af82a03b66c1cb3803a755f95d>@@U__crt_win32_buffer_internal_dynamic_resizing@@@@YAHQB_WAAV?$__crt_win32_buffer@DU__crt_win32_buffer_internal_dynamic_resizing@@@@ABV<lambda_28bda7af82a03b66c1cb3803a755f95d>@@I@Z 100d8580 f i libucrtd:argv_wildcards.obj
 0002:00081710       ??$__acrt_mbs_to_wcs_cp@U__crt_win32_buffer_internal_dynamic_resizing@@@@YAHQBDAAV?$__crt_win32_buffer@_WU__crt_win32_buffer_internal_dynamic_resizing@@@@I@Z 100d8710 f i libucrtd:argv_wildcards.obj
 0002:00081740       ??$__acrt_wcs_to_mbs_cp@U__crt_win32_buffer_internal_dynamic_resizing@@@@YAHQB_WAAV?$__crt_win32_buffer@DU__crt_win32_buffer_internal_dynamic_resizing@@@@I@Z 100d8740 f i libucrtd:argv_wildcards.obj
 0002:00082af0       ??$tcsncpy_s@AAPADIAAPADABI@?$__crt_char_traits@D@@SAHAAPAD$$QAI0ABI@Z 100d9af0 f i libucrtd:argv_wildcards.obj
 0002:00082b20       ??$tcsncpy_s@AAPA_WIAAPA_WABI@?$__crt_char_traits@_W@@SAHAAPA_W$$QAI0ABI@Z 100d9b20 f i libucrtd:argv_wildcards.obj
 0002:00082b50       ??$tcsncpy_s@PADABIABQBDABI@?$__crt_char_traits@D@@SAH$$QAPADABIABQBD1@Z 100d9b50 f i libucrtd:argv_wildcards.obj
 0002:00082b80       ??$tcsncpy_s@PADIABQBDABI@?$__crt_char_traits@D@@SAH$$QAPAD$$QAIABQBDABI@Z 100d9b80 f i libucrtd:argv_wildcards.obj
 0002:00082bb0       ??$tcsncpy_s@PA_WABIABQB_WABI@?$__crt_char_traits@_W@@SAH$$QAPA_WABIABQB_W1@Z 100d9bb0 f i libucrtd:argv_wildcards.obj
 0002:00082be0       ??$tcsncpy_s@PA_WIABQB_WABI@?$__crt_char_traits@_W@@SAH$$QAPA_W$$QAIABQB_WABI@Z 100d9be0 f i libucrtd:argv_wildcards.obj
 0002:00082c10       ??$tcspbrk@AAPADAAY02$$CBD@?$__crt_char_traits@D@@SAPADAAPADAAY02$$CBD@Z 100d9c10 f i libucrtd:argv_wildcards.obj
 0002:00082c70       ??$tcspbrk@AAPA_WAAY02$$CB_W@?$__crt_char_traits@_W@@SAPA_WAAPA_WAAY02$$CB_W@Z 100d9c70 f i libucrtd:argv_wildcards.obj
 0002:00082cd0       ??0?$__crt_unique_handle_t@U__crt_findfile_traits@@@@QAE@QAX@Z 100d9cd0 f i libucrtd:argv_wildcards.obj
 0002:00082cf0       ??0?$__crt_win32_buffer@DU__crt_win32_buffer_internal_dynamic_resizing@@@@QAE@XZ 100d9cf0 f i libucrtd:argv_wildcards.obj
 0002:00082d50       ??0?$__crt_win32_buffer@_WU__crt_win32_buffer_internal_dynamic_resizing@@@@QAE@XZ 100d9d50 f i libucrtd:argv_wildcards.obj
 0002:00082e30       ??1?$__crt_unique_handle_t@U__crt_findfile_traits@@@@QAE@XZ 100d9e30 f i libucrtd:argv_wildcards.obj
 0002:00082e50       ??1?$__crt_win32_buffer@DU__crt_win32_buffer_internal_dynamic_resizing@@@@QAE@XZ 100d9e50 f i libucrtd:argv_wildcards.obj
 0002:00082eb0       ??1?$__crt_win32_buffer@_WU__crt_win32_buffer_internal_dynamic_resizing@@@@QAE@XZ 100d9eb0 f i libucrtd:argv_wildcards.obj
 0002:00083030       ??R<lambda_28bda7af82a03b66c1cb3803a755f95d>@@QBE@IQB_WQADI@Z 100da030 f i libucrtd:argv_wildcards.obj
 0002:000830c0       ??R<lambda_62f6974d9771e494a5ea317cc32e971c>@@QBE@IQBDQA_WI@Z 100da0c0 f i libucrtd:argv_wildcards.obj
 0002:000831d0       ?_deallocate@?$__crt_win32_buffer@DU__crt_win32_buffer_internal_dynamic_resizing@@@@AAEXXZ 100da1d0 f i libucrtd:argv_wildcards.obj
 0002:00083230       ?_deallocate@?$__crt_win32_buffer@_WU__crt_win32_buffer_internal_dynamic_resizing@@@@AAEXXZ 100da230 f i libucrtd:argv_wildcards.obj
 0002:00083290       ?allocate@?$__crt_win32_buffer@DU__crt_win32_buffer_internal_dynamic_resizing@@@@QAEHI@Z 100da290 f i libucrtd:argv_wildcards.obj
 0002:00083310       ?allocate@?$__crt_win32_buffer@_WU__crt_win32_buffer_internal_dynamic_resizing@@@@QAEHI@Z 100da310 f i libucrtd:argv_wildcards.obj
 0002:000833a0       ?allocate@__crt_win32_buffer_internal_dynamic_resizing@@SAHQAPAXIABV__crt_win32_buffer_empty_debug_info@@@Z 100da3a0 f i libucrtd:argv_wildcards.obj
 0002:00083510       ?capacity@?$__crt_win32_buffer@DU__crt_win32_buffer_internal_dynamic_resizing@@@@QBEIXZ 100da510 f i libucrtd:argv_wildcards.obj
 0002:00083530       ?capacity@?$__crt_win32_buffer@_WU__crt_win32_buffer_internal_dynamic_resizing@@@@QBEIXZ 100da530 f i libucrtd:argv_wildcards.obj
 0002:00083550       ?close@?$__crt_unique_handle_t@U__crt_findfile_traits@@@@QAEXXZ 100da550 f i libucrtd:argv_wildcards.obj
 0002:00083590       ?close@__crt_findfile_traits@@SA_NPAX@Z 100da590 f i libucrtd:argv_wildcards.obj
 0002:000835d0       ?data@?$__crt_win32_buffer@DU__crt_win32_buffer_internal_dynamic_resizing@@@@QAEPADXZ 100da5d0 f i libucrtd:argv_wildcards.obj
 0002:000835f0       ?data@?$__crt_win32_buffer@_WU__crt_win32_buffer_internal_dynamic_resizing@@@@QAEPA_WXZ 100da5f0 f i libucrtd:argv_wildcards.obj
 0002:00083610       ?deallocate@__crt_win32_buffer_internal_dynamic_resizing@@SAXQAXABV__crt_win32_buffer_empty_debug_info@@@Z 100da610 f i libucrtd:argv_wildcards.obj
 0002:00083630       ?debug_info@?$__crt_win32_buffer@DU__crt_win32_buffer_internal_dynamic_resizing@@@@QBEABV__crt_win32_buffer_empty_debug_info@@XZ 100da630 f i libucrtd:argv_wildcards.obj
 0002:00083650       ?debug_info@?$__crt_win32_buffer@_WU__crt_win32_buffer_internal_dynamic_resizing@@@@QBEABV__crt_win32_buffer_empty_debug_info@@XZ 100da650 f i libucrtd:argv_wildcards.obj
 0002:00083a10       ?get@?$__crt_unique_handle_t@U__crt_findfile_traits@@@@QBEPAXXZ 100daa10 f i libucrtd:argv_wildcards.obj
 0002:00083a90       ?get_invalid_value@__crt_findfile_traits@@SAPAXXZ 100daa90 f i libucrtd:argv_wildcards.obj
 0002:00083b30       ?set_to_nullptr@?$__crt_win32_buffer@DU__crt_win32_buffer_internal_dynamic_resizing@@@@QAEXXZ 100dab30 f i libucrtd:argv_wildcards.obj
 0002:00083b70       ?set_to_nullptr@?$__crt_win32_buffer@_WU__crt_win32_buffer_internal_dynamic_resizing@@@@QAEXXZ 100dab70 f i libucrtd:argv_wildcards.obj
 0002:00083bb0       ?size@?$__crt_win32_buffer@DU__crt_win32_buffer_internal_dynamic_resizing@@@@QAEXI@Z 100dabb0 f i libucrtd:argv_wildcards.obj
 0002:00083bd0       ?size@?$__crt_win32_buffer@_WU__crt_win32_buffer_internal_dynamic_resizing@@@@QAEXI@Z 100dabd0 f i libucrtd:argv_wildcards.obj
 0002:00083c50       ?strpbrk@@YAPADQADQBD@Z    100dac50 f i libucrtd:argv_wildcards.obj
 0002:00083c70       ?wcspbrk@@YAPA_WPA_WPB_W@Z 100dac70 f i libucrtd:argv_wildcards.obj
 0002:00083c90       ___acrt_expand_narrow_argv_wildcards 100dac90 f   libucrtd:argv_wildcards.obj
 0002:00083cb0       ___acrt_expand_wide_argv_wildcards 100dacb0 f   libucrtd:argv_wildcards.obj
 0002:00083e00       ??$initialize_from_array@$$BY10BAA@E@?$dual_state_global@PAE@__crt_state_management@@QAAXAAY10BAA@E@Z 100dae00 f i libucrtd:mbctype.obj
 0002:00083e60       ??$initialize_from_array@$$BY10BAB@E@?$dual_state_global@PAE@__crt_state_management@@QAAXAAY10BAB@E@Z 100dae60 f i libucrtd:mbctype.obj
 0002:000841a0       ?dangerous_get_state_array@?$dual_state_global@PAE@__crt_state_management@@QAEPAPAEXZ 100db1a0 f i libucrtd:mbctype.obj
 0002:000841c0       ?dangerous_get_state_array@?$dual_state_global@PAU__crt_multibyte_data@@@__crt_state_management@@QAEPAPAU__crt_multibyte_data@@XZ 100db1c0 f i libucrtd:mbctype.obj
 0002:000842d0       ?initialize@?$dual_state_global@PAU__crt_multibyte_data@@@__crt_state_management@@QAEXQAU__crt_multibyte_data@@@Z 100db2d0 f i libucrtd:mbctype.obj
 0002:00084c70       ?value@?$dual_state_global@PAE@__crt_state_management@@QAEAAPAEXZ 100dbc70 f i libucrtd:mbctype.obj
 0002:00084c90       ___acrt_initialize_multibyte 100dbc90 f   libucrtd:mbctype.obj
 0002:00084d60       ___acrt_update_thread_multibyte_data 100dbd60 f   libucrtd:mbctype.obj
 0002:00084da0       ___p__mbcasemap            100dbda0 f   libucrtd:mbctype.obj
 0002:00084dc0       ___p__mbctype              100dbdc0 f   libucrtd:mbctype.obj
 0002:00084de0       __getmbcp                  100dbde0 f   libucrtd:mbctype.obj
 0002:00084e70       __setmbcp                  100dbe70 f   libucrtd:mbctype.obj
 0002:00084ec0       __setmbcp_nolock           100dbec0 f   libucrtd:mbctype.obj
 0002:000855d0       __ismbbalnum               100dc5d0 f   libucrtd:ismbbyte.obj
 0002:00085600       __ismbbalnum_l             100dc600 f   libucrtd:ismbbyte.obj
 0002:00085630       __ismbbalpha               100dc630 f   libucrtd:ismbbyte.obj
 0002:00085660       __ismbbalpha_l             100dc660 f   libucrtd:ismbbyte.obj
 0002:00085690       __ismbbblank               100dc690 f   libucrtd:ismbbyte.obj
 0002:000856d0       __ismbbblank_l             100dc6d0 f   libucrtd:ismbbyte.obj
 0002:00085710       __ismbbgraph               100dc710 f   libucrtd:ismbbyte.obj
 0002:00085740       __ismbbgraph_l             100dc740 f   libucrtd:ismbbyte.obj
 0002:00085770       __ismbbkalnum              100dc770 f   libucrtd:ismbbyte.obj
 0002:00085790       __ismbbkalnum_l            100dc790 f   libucrtd:ismbbyte.obj
 0002:000857c0       __ismbbkana                100dc7c0 f   libucrtd:ismbbyte.obj
 0002:000857e0       __ismbbkana_l              100dc7e0 f   libucrtd:ismbbyte.obj
 0002:00085870       __ismbbkprint              100dc870 f   libucrtd:ismbbyte.obj
 0002:00085890       __ismbbkprint_l            100dc890 f   libucrtd:ismbbyte.obj
 0002:000858c0       __ismbbkpunct              100dc8c0 f   libucrtd:ismbbyte.obj
 0002:000858e0       __ismbbkpunct_l            100dc8e0 f   libucrtd:ismbbyte.obj
 0002:00085910       __ismbblead                100dc910 f   libucrtd:ismbbyte.obj
 0002:00085930       __ismbblead_l              100dc930 f   libucrtd:ismbbyte.obj
 0002:00085960       __ismbbprint               100dc960 f   libucrtd:ismbbyte.obj
 0002:00085990       __ismbbprint_l             100dc990 f   libucrtd:ismbbyte.obj
 0002:000859c0       __ismbbpunct               100dc9c0 f   libucrtd:ismbbyte.obj
 0002:000859e0       __ismbbpunct_l             100dc9e0 f   libucrtd:ismbbyte.obj
 0002:00085a10       __ismbbtrail               100dca10 f   libucrtd:ismbbyte.obj
 0002:00085a30       __ismbbtrail_l             100dca30 f   libucrtd:ismbbyte.obj
 0002:00085a60       ___acrt_initialize_command_line 100dca60 f   libucrtd:argv_data.obj
 0002:00085a90       ___acrt_uninitialize_command_line 100dca90 f   libucrtd:argv_data.obj
 0002:00085aa0       ___p___argc                100dcaa0 f   libucrtd:argv_data.obj
 0002:00085ab0       ___p___argv                100dcab0 f   libucrtd:argv_data.obj
 0002:00085ac0       ___p___wargv               100dcac0 f   libucrtd:argv_data.obj
 0002:00085ad0       ___p__acmdln               100dcad0 f   libucrtd:argv_data.obj
 0002:00085ae0       ___p__pgmptr               100dcae0 f   libucrtd:argv_data.obj
 0002:00085af0       ___p__wcmdln               100dcaf0 f   libucrtd:argv_data.obj
 0002:00085b00       ___p__wpgmptr              100dcb00 f   libucrtd:argv_data.obj
 0002:00085b10       __get_pgmptr               100dcb10 f   libucrtd:argv_data.obj
 0002:00085c70       __get_wpgmptr              100dcc70 f   libucrtd:argv_data.obj
 0002:00085f10       ___acrt_MultiByteToWideChar 100dcf10 f   libucrtd:multibytetowidechar.obj
 0002:000860b0       ___acrt_WideCharToMultiByte 100dd0b0 f   libucrtd:widechartomultibyte.obj
 0002:00086320       ___dcrt_get_narrow_environment_from_os 100dd320 f   libucrtd:get_environment_from_os.obj
 0002:000864f0       ___dcrt_get_wide_environment_from_os 100dd4f0 f   libucrtd:get_environment_from_os.obj
 0002:00087b30       ??$get_or_create_environment_nolock@$$V@?$__crt_char_traits@D@@SAPAPADXZ 100deb30 f i libucrtd:setenv.obj
 0002:00087b40       ??$get_or_create_environment_nolock@$$V@?$__crt_char_traits@_W@@SAPAPA_WXZ 100deb40 f i libucrtd:setenv.obj
 0002:00087b50       ??$set_environment_variable@ABQADQAD@?$__crt_char_traits@D@@SAHABQAD$$QBQAD@Z 100deb50 f i libucrtd:setenv.obj
 0002:00087b80       ??$set_environment_variable@ABQA_WQA_W@?$__crt_char_traits@_W@@SAHABQA_W$$QBQA_W@Z 100deb80 f i libucrtd:setenv.obj
 0002:00087ba0       ??$tcschr@ABQADD@?$__crt_char_traits@D@@SAPADABQAD$$QAD@Z 100deba0 f i libucrtd:setenv.obj
 0002:00087c00       ??$tcschr@ABQA_WD@?$__crt_char_traits@_W@@SAPA_WABQA_W$$QAD@Z 100dec00 f i libucrtd:setenv.obj
 0002:00087c70       ??$tcscpy_s@AAPADABIAAPAD@?$__crt_char_traits@D@@SAHAAPADABI0@Z 100dec70 f i libucrtd:setenv.obj
 0002:00087ca0       ??$tcscpy_s@AAPA_WABIAAPA_W@?$__crt_char_traits@_W@@SAHAAPA_WABI0@Z 100deca0 f i libucrtd:setenv.obj
 0002:00087cd0       ??$tcscpy_s@ABQADABIABQAD@?$__crt_char_traits@D@@SAHABQADABI0@Z 100decd0 f i libucrtd:setenv.obj
 0002:00087d00       ??$tcscpy_s@ABQA_WABIABQA_W@?$__crt_char_traits@_W@@SAHABQA_WABI0@Z 100ded00 f i libucrtd:setenv.obj
 0002:00087d30       ??$tcslen@ABQAD@?$__crt_char_traits@D@@SAIABQAD@Z 100ded30 f i libucrtd:setenv.obj
 0002:00087d50       ??$tcslen@ABQA_W@?$__crt_char_traits@_W@@SAIABQA_W@Z 100ded50 f i libucrtd:setenv.obj
 0002:00087d70       ??$tcsnicoll@ABQBDAAPADABI@?$__crt_char_traits@D@@SAHABQBDAAPADABI@Z 100ded70 f i libucrtd:setenv.obj
 0002:00087da0       ??$tcsnicoll@ABQB_WAAPA_WABI@?$__crt_char_traits@_W@@SAHABQB_WAAPA_WABI@Z 100deda0 f i libucrtd:setenv.obj
 0002:00087dd0       ??$tcsnlen@PADH@?$__crt_char_traits@D@@SAI$$QAPAD$$QAH@Z 100dedd0 f i libucrtd:setenv.obj
 0002:00087e00       ??$tcsnlen@PA_WH@?$__crt_char_traits@_W@@SAI$$QAPA_W$$QAH@Z 100dee00 f i libucrtd:setenv.obj
 0002:00087ed0       ?strchr@@YAPADQADH@Z       100deed0 f i libucrtd:setenv.obj
 0002:00087ef0       ?wcschr@@YAPA_WPA_W_W@Z    100deef0 f i libucrtd:setenv.obj
 0002:00087f10       ___dcrt_set_variable_in_narrow_environment_nolock 100def10 f   libucrtd:setenv.obj
 0002:00087f30       ___dcrt_set_variable_in_wide_environment_nolock 100def30 f   libucrtd:setenv.obj
 0002:00088220       ?ReadPointerNoFence@@YAPAXPDSAX@Z 100df220 f i libucrtd:winapi_thunks.obj
 0002:00088e00       _GetCurrentThreadEffectiveToken 100dfe00 f i libucrtd:winapi_thunks.obj
 0002:00088e10       ___acrt_AppPolicyGetProcessTerminationMethodInternal@4 100dfe10 f   libucrtd:winapi_thunks.obj
 0002:00088e70       ___acrt_AppPolicyGetShowDeveloperDiagnosticInternal@4 100dfe70 f   libucrtd:winapi_thunks.obj
 0002:00088ed0       ___acrt_AppPolicyGetThreadInitializationTypeInternal@4 100dfed0 f   libucrtd:winapi_thunks.obj
 0002:00088f30       ___acrt_AppPolicyGetWindowingModelInternal@4 100dff30 f   libucrtd:winapi_thunks.obj
 0002:00088f90       ___acrt_AreFileApisANSI@0  100dff90 f   libucrtd:winapi_thunks.obj
 0002:00088fd0       ___acrt_CompareStringEx@36 100dffd0 f   libucrtd:winapi_thunks.obj
 0002:00089090       ___acrt_EnumSystemLocalesEx@16 100e0090 f   libucrtd:winapi_thunks.obj
 0002:00089110       ___acrt_FlsAlloc@4         100e0110 f   libucrtd:winapi_thunks.obj
 0002:00089130       ___acrt_FlsFree@4          100e0130 f   libucrtd:winapi_thunks.obj
 0002:00089150       ___acrt_FlsGetValue2@4     100e0150 f   libucrtd:winapi_thunks.obj
 0002:00089180       ___acrt_FlsGetValue@4      100e0180 f   libucrtd:winapi_thunks.obj
 0002:000891a0       ___acrt_FlsSetValue@8      100e01a0 f   libucrtd:winapi_thunks.obj
 0002:000891c0       ___acrt_GetDateFormatEx@28 100e01c0 f   libucrtd:winapi_thunks.obj
 0002:00089260       ___acrt_GetEnabledXStateFeatures@0 100e0260 f   libucrtd:winapi_thunks.obj
 0002:000892a0       ___acrt_GetFileInformationByName@16 100e02a0 f   libucrtd:winapi_thunks.obj
 0002:00089300       ___acrt_GetLocaleInfoEx@16 100e0300 f   libucrtd:winapi_thunks.obj
 0002:00089380       ___acrt_GetSystemTimePreciseAsFileTime@4 100e0380 f   libucrtd:winapi_thunks.obj
 0002:000893e0       ___acrt_GetTempPath2W@8    100e03e0 f   libucrtd:winapi_thunks.obj
 0002:00089440       ___acrt_GetTimeFormatEx@24 100e0440 f   libucrtd:winapi_thunks.obj
 0002:000894e0       ___acrt_GetUserDefaultLocaleName@8 100e04e0 f   libucrtd:winapi_thunks.obj
 0002:00089550       ___acrt_GetXStateFeaturesMask@8 100e0550 f   libucrtd:winapi_thunks.obj
 0002:000895b0       ___acrt_InitializeCriticalSectionEx@12 100e05b0 f   libucrtd:winapi_thunks.obj
 0002:000895e0       ___acrt_IsThreadAFiber@0   100e05e0 f   libucrtd:winapi_thunks.obj
 0002:000895f0       ___acrt_IsValidLocaleName@4 100e05f0 f   libucrtd:winapi_thunks.obj
 0002:00089660       ___acrt_LCIDToLocaleName@16 100e0660 f   libucrtd:winapi_thunks.obj
 0002:000896d0       ___acrt_LCMapStringEx@36   100e06d0 f   libucrtd:winapi_thunks.obj
 0002:00089770       ___acrt_LocaleNameToLCID@8 100e0770 f   libucrtd:winapi_thunks.obj
 0002:000897d0       ___acrt_LocateXStateFeature@12 100e07d0 f   libucrtd:winapi_thunks.obj
 0002:00089830       ___acrt_MessageBoxA@16     100e0830 f   libucrtd:winapi_thunks.obj
 0002:00089890       ___acrt_MessageBoxW@16     100e0890 f   libucrtd:winapi_thunks.obj
 0002:000898f0       ___acrt_RoInitialize@4     100e08f0 f   libucrtd:winapi_thunks.obj
 0002:00089940       ___acrt_RoUninitialize@0   100e0940 f   libucrtd:winapi_thunks.obj
 0002:00089980       ___acrt_RtlGenRandom@8     100e0980 f   libucrtd:winapi_thunks.obj
 0002:000899e0       ___acrt_SetThreadStackGuarantee@4 100e09e0 f   libucrtd:winapi_thunks.obj
 0002:00089a30       ___acrt_can_show_message_box 100e0a30 f   libucrtd:winapi_thunks.obj
 0002:00089a70       ___acrt_can_use_vista_locale_apis 100e0a70 f   libucrtd:winapi_thunks.obj
 0002:00089aa0       ___acrt_can_use_xstate_apis 100e0aa0 f   libucrtd:winapi_thunks.obj
 0002:00089ad0       ___acrt_eagerly_load_locale_apis 100e0ad0 f   libucrtd:winapi_thunks.obj
 0002:00089b20       ___acrt_get_parent_window  100e0b20 f   libucrtd:winapi_thunks.obj
 0002:00089bb0       ___acrt_initialize_winapi_thunks 100e0bb0 f   libucrtd:winapi_thunks.obj
 0002:00089c00       ___acrt_is_interactive     100e0c00 f   libucrtd:winapi_thunks.obj
 0002:00089ce0       ___acrt_tls2_supported     100e0ce0 f   libucrtd:winapi_thunks.obj
 0002:00089d10       ___acrt_uninitialize_winapi_thunks 100e0d10 f   libucrtd:winapi_thunks.obj
 0002:00089da0       __get_heap_handle          100e0da0 f   libucrtd:heap_handle.obj
 0002:00089de0       ___acrt_initialize_heap    100e0de0 f   libucrtd:heap_handle.obj
 0002:00089e10       ___acrt_uninitialize_heap  100e0e10 f   libucrtd:heap_handle.obj
 0002:00089e30       ___acrt_getheap            100e0e30 f   libucrtd:heap_handle.obj
 0002:00089ea0       ___acrt_execute_initializers 100e0ea0 f   libucrtd:shared_initialization.obj
 0002:00089f90       ___acrt_execute_uninitializers 100e0f90 f   libucrtd:shared_initialization.obj
 0002:0008a010       __callnewh                 100e1010 f   libucrtd:new_handler.obj
 0002:0008a060       ___acrt_initialize_new_handler 100e1060 f   libucrtd:new_handler.obj
 0002:0008a080       __query_new_handler        100e1080 f   libucrtd:new_handler.obj
 0002:0008a120       __set_new_handler          100e1120 f   libucrtd:new_handler.obj
 0002:0008a1e0       ?_set_new_handler@@YAP6AHI@ZH@Z 100e11e0 f   libucrtd:new_handler.obj
 0002:0008a2c0       ??$?B$$A6AHI@Z@__crt_fast_encoded_nullptr_t@@QBEP6AHI@ZXZ 100e12c0 f i libucrtd:new_handler.obj
 0002:0008a2e0       ??$__crt_fast_decode_pointer@P6AHI@Z@@YAP6AHI@ZQ6AHI@Z@Z 100e12e0 f i libucrtd:new_handler.obj
 0002:0008a320       ??$__crt_fast_encode_pointer@P6AHI@Z@@YAP6AHI@ZQ6AHI@Z@Z 100e1320 f i libucrtd:new_handler.obj
 0002:0008a360       ?initialize@?$dual_state_global@P6AHI@Z@__crt_state_management@@QAEXQ6AHI@Z@Z 100e1360 f i libucrtd:new_handler.obj
 0002:0008a3b0       ?value@?$dual_state_global@P6AHI@Z@__crt_state_management@@QAEAAP6AHI@ZXZ 100e13b0 f i libucrtd:new_handler.obj
 0002:0008a3d0       ??$__crt_fast_decode_pointer@P6AHPAU_exception@@@Z@@YAP6AHPAU_exception@@@ZQ6AH0@Z@Z 100e13d0 f i libucrtd:matherr.obj
 0002:0008a410       ??$__crt_fast_encode_pointer@P6AHPAU_exception@@@Z@@YAP6AHPAU_exception@@@ZQ6AH0@Z@Z 100e1410 f i libucrtd:matherr.obj
 0002:0008a450       ?initialize@?$dual_state_global@P6AHPAU_exception@@@Z@__crt_state_management@@QAEXQ6AHPAU_exception@@@Z@Z 100e1450 f i libucrtd:matherr.obj
 0002:0008a4a0       ?value@?$dual_state_global@P6AHPAU_exception@@@Z@__crt_state_management@@QAEAAP6AHPAU_exception@@@ZXZ 100e14a0 f i libucrtd:matherr.obj
 0002:0008a4c0       ___acrt_has_user_matherr   100e14c0 f   libucrtd:matherr.obj
 0002:0008a510       ___acrt_initialize_user_matherr 100e1510 f   libucrtd:matherr.obj
 0002:0008a530       ___acrt_invoke_user_matherr 100e1530 f   libucrtd:matherr.obj
 0002:0008a590       ___setusermatherr          100e1590 f   libucrtd:matherr.obj
 0002:0008a5d0       __mbsdec                   100e15d0 f   libucrtd:mbsdec.obj
 0002:0008a5f0       __mbsdec_l                 100e15f0 f   libucrtd:mbsdec.obj
 0002:0008ad40       _wcsncpy_s                 100e1d40 f   libucrtd:wcsncpy_s.obj
 0002:0008b290       _strncpy_s                 100e2290 f   libucrtd:strncpy_s.obj
 0002:0008b2c0       __chvalidator              100e22c0 f   libucrtd:isctype.obj
 0002:0008b320       __chvalidator_l            100e2320 f   libucrtd:isctype.obj
 0002:0008b3c0       __isctype                  100e23c0 f   libucrtd:isctype.obj
 0002:0008b410       __isctype_l                100e2410 f   libucrtd:isctype.obj
 0002:0008b600       __free_base                100e2600 f   libucrtd:free_base.obj
 0002:0008b680       __realloc_base             100e2680 f   libucrtd:realloc_base.obj
 0002:0008b740       __expand                   100e2740 f   libucrtd:expand.obj
 0002:0008b770       __expand_base              100e2770 f   libucrtd:expand.obj
 0002:0008b980       __query_new_mode           100e2980 f   libucrtd:new_mode.obj
 0002:0008b9a0       __set_new_mode             100e29a0 f   libucrtd:new_mode.obj
 0002:0008ba70       ?value@?$dual_state_global@J@__crt_state_management@@QAEAAJXZ 100e2a70 f i libucrtd:new_mode.obj
 0002:0008ba90       __CrtDefaultAllocHook      100e2a90 f   libucrtd:debug_heap_hook.obj
 0002:0008bcb0       ___acrt_report_runtime_error 100e2cb0 f   libucrtd:report_runtime_error.obj
 0002:0008bf20       __query_app_type           100e2f20 f   libucrtd:report_runtime_error.obj
 0002:0008bf30       __set_app_type             100e2f30 f   libucrtd:report_runtime_error.obj
 0002:0008bf50       __iswctype_l               100e2f50 f   libucrtd:iswctype.obj
 0002:0008bf70       _iswctype                  100e2f70 f   libucrtd:iswctype.obj
 0002:0008d530       __i64toa                   100e4530 f   libucrtd:xtoa.obj
 0002:0008d5a0       __i64toa_s                 100e45a0 f   libucrtd:xtoa.obj
 0002:0008d610       __i64tow                   100e4610 f   libucrtd:xtoa.obj
 0002:0008d680       __i64tow_s                 100e4680 f   libucrtd:xtoa.obj
 0002:0008d6f0       __itoa                     100e46f0 f   libucrtd:xtoa.obj
 0002:0008d750       __itoa_s                   100e4750 f   libucrtd:xtoa.obj
 0002:0008d7b0       __itow                     100e47b0 f   libucrtd:xtoa.obj
 0002:0008d810       __itow_s                   100e4810 f   libucrtd:xtoa.obj
 0002:0008d870       __ltoa                     100e4870 f   libucrtd:xtoa.obj
 0002:0008d8d0       __ltoa_s                   100e48d0 f   libucrtd:xtoa.obj
 0002:0008d930       __ltow                     100e4930 f   libucrtd:xtoa.obj
 0002:0008d990       __ltow_s                   100e4990 f   libucrtd:xtoa.obj
 0002:0008d9f0       __ui64toa                  100e49f0 f   libucrtd:xtoa.obj
 0002:0008da20       __ui64toa_s                100e4a20 f   libucrtd:xtoa.obj
 0002:0008da50       __ui64tow                  100e4a50 f   libucrtd:xtoa.obj
 0002:0008da80       __ui64tow_s                100e4a80 f   libucrtd:xtoa.obj
 0002:0008dab0       __ultoa                    100e4ab0 f   libucrtd:xtoa.obj
 0002:0008dae0       __ultoa_s                  100e4ae0 f   libucrtd:xtoa.obj
 0002:0008db10       __ultow                    100e4b10 f   libucrtd:xtoa.obj
 0002:0008db40       __ultow_s                  100e4b40 f   libucrtd:xtoa.obj
 0002:0008e460       __mbstowcs_l               100e5460 f   libucrtd:mbstowcs.obj
 0002:0008e4b0       __mbstowcs_s_l             100e54b0 f   libucrtd:mbstowcs.obj
 0002:0008e510       _mbstowcs                  100e5510 f   libucrtd:mbstowcs.obj
 0002:0008e560       _mbstowcs_s                100e5560 f   libucrtd:mbstowcs.obj
 0002:0008f090       __wcstombs_l               100e6090 f   libucrtd:wcstombs.obj
 0002:0008f0e0       __wcstombs_s_l             100e60e0 f   libucrtd:wcstombs.obj
 0002:0008f140       _wcstombs                  100e6140 f   libucrtd:wcstombs.obj
 0002:0008f190       _wcstombs_s                100e6190 f   libucrtd:wcstombs.obj
 0002:0008f720       _wcscat_s                  100e6720 f   libucrtd:wcscat_s.obj
 0002:0008f750       ___acrt_OutputDebugStringA@4 100e6750 f   libucrtd:outputdebugstringa.obj
 0002:0008f800       ___acrt_add_locale_ref     100e6800 f   libucrtd:locale_refcounting.obj
 0002:0008f950       ___acrt_free_locale        100e6950 f   libucrtd:locale_refcounting.obj
 0002:0008fcd0       ___acrt_locale_add_lc_time_reference 100e6cd0 f   libucrtd:locale_refcounting.obj
 0002:0008fd10       ___acrt_locale_free_lc_time_if_unreferenced 100e6d10 f   libucrtd:locale_refcounting.obj
 0002:0008fd70       ___acrt_locale_release_lc_time_reference 100e6d70 f   libucrtd:locale_refcounting.obj
 0002:0008fdb0       ___acrt_release_locale_ref 100e6db0 f   libucrtd:locale_refcounting.obj
 0002:0008ff00       ___acrt_update_thread_locale_data 100e6f00 f   libucrtd:locale_refcounting.obj
 0002:00090010       __updatetlocinfoEx_nolock  100e7010 f   libucrtd:locale_refcounting.obj
 0002:00090290       ___acrt_fp_strflt_to_string 100e7290 f   libucrtd:_fptostr.obj
 0002:00090f10       ??0big_integer@__crt_strtox@@QAE@ABU01@@Z 100e7f10 f i libucrtd:cfout.obj
 0002:00090f60       ??0big_integer@__crt_strtox@@QAE@XZ 100e7f60 f i libucrtd:cfout.obj
 0002:000910d0       ??4big_integer@__crt_strtox@@QAEAAU01@ABU01@@Z 100e80d0 f i libucrtd:cfout.obj
 0002:00091120       ??8__crt_strtox@@YA_NABUbig_integer@0@0@Z 100e8120 f i libucrtd:cfout.obj
 0002:00091190       ??9__crt_strtox@@YA_NABUbig_integer@0@0@Z 100e8190 f i libucrtd:cfout.obj
 0002:000911e0       ?add_carry@__crt_strtox@@YAIAAIII@Z 100e81e0 f i libucrtd:cfout.obj
 0002:00091230       ?add_multiply_carry@__crt_strtox@@YAIAAIIII@Z 100e8230 f i libucrtd:cfout.obj
 0002:00091280       ?bit_scan_reverse@__crt_strtox@@YAII@Z 100e8280 f i libucrtd:cfout.obj
 0002:000912c0       ?count_sequential_high_zeroes@__crt_strtox@@YAII@Z 100e82c0 f i libucrtd:cfout.obj
 0002:00091310       ?divide@__crt_strtox@@YA_KAAUbig_integer@1@ABU21@@Z 100e8310 f i libucrtd:cfout.obj
 0002:00092000       ?is_zero@__crt_strtox@@YA_NABUbig_integer@1@@Z 100e9000 f i libucrtd:cfout.obj
 0002:00092030       ?make_big_integer@__crt_strtox@@YA?AUbig_integer@1@_K@Z 100e9030 f i libucrtd:cfout.obj
 0002:00092100       ?make_big_integer_power_of_two@__crt_strtox@@YA?AUbig_integer@1@I@Z 100e9100 f i libucrtd:cfout.obj
 0002:000921e0       ?multiply@__crt_strtox@@YA_NAAUbig_integer@1@ABU21@@Z 100e91e0 f i libucrtd:cfout.obj
 0002:00092640       ?multiply@__crt_strtox@@YA_NAAUbig_integer@1@I@Z 100e9640 f i libucrtd:cfout.obj
 0002:00092740       ?multiply_64_32@__crt_strtox@@YA_K_KI@Z 100e9740 f i libucrtd:cfout.obj
 0002:00092760       ?multiply_by_power_of_ten@__crt_strtox@@YA_NAAUbig_integer@1@I@Z 100e9760 f i libucrtd:cfout.obj
 0002:00092960       ?multiply_core@__crt_strtox@@YAIQAIII@Z 100e9960 f i libucrtd:cfout.obj
 0002:000929e0       ?shift_left@__crt_strtox@@YA_NAAUbig_integer@1@I@Z 100e99e0 f i libucrtd:cfout.obj
 0002:00092d80       ___acrt_fltout             100e9d80 f   libucrtd:cfout.obj
 0002:000932b0       ___fpe_flt_rounds          100ea2b0 f   libucrtd:fegetround.obj
 0002:00093330       _fegetround                100ea330 f   libucrtd:fegetround.obj
 0002:00093350       ??$?RG@__crt_internal_free_policy@@QBEXQBG@Z 100ea350 f i libucrtd:initctype.obj
 0002:00093380       ??$?RJ@__crt_internal_free_policy@@QBEXQBJ@Z 100ea380 f i libucrtd:initctype.obj
 0002:000933b0       ??0?$__crt_unique_heap_ptr@GU__crt_internal_free_policy@@@@QAE@QAG@Z 100ea3b0 f i libucrtd:initctype.obj
 0002:000933d0       ??0?$__crt_unique_heap_ptr@JU__crt_internal_free_policy@@@@QAE@QAJ@Z 100ea3d0 f i libucrtd:initctype.obj
 0002:000933f0       ??1?$__crt_unique_heap_ptr@GU__crt_internal_free_policy@@@@QAE@XZ 100ea3f0 f i libucrtd:initctype.obj
 0002:00093410       ??1?$__crt_unique_heap_ptr@JU__crt_internal_free_policy@@@@QAE@XZ 100ea410 f i libucrtd:initctype.obj
 0002:00093430       ?detach@?$__crt_unique_heap_ptr@GU__crt_internal_free_policy@@@@QAEPAGXZ 100ea430 f i libucrtd:initctype.obj
 0002:00093460       ?detach@?$__crt_unique_heap_ptr@JU__crt_internal_free_policy@@@@QAEPAJXZ 100ea460 f i libucrtd:initctype.obj
 0002:00093490       ?release@?$__crt_unique_heap_ptr@GU__crt_internal_free_policy@@@@QAEXXZ 100ea490 f i libucrtd:initctype.obj
 0002:000934c0       ?release@?$__crt_unique_heap_ptr@JU__crt_internal_free_policy@@@@QAEXXZ 100ea4c0 f i libucrtd:initctype.obj
 0002:000934f0       ____lc_codepage_func       100ea4f0 f   libucrtd:initctype.obj
 0002:00093530       ____lc_collate_cp_func     100ea530 f   libucrtd:initctype.obj
 0002:00093570       ____lc_locale_name_func    100ea570 f   libucrtd:initctype.obj
 0002:000935c0       ____mb_cur_max_func        100ea5c0 f   libucrtd:initctype.obj
 0002:00093600       ____mb_cur_max_l_func      100ea600 f   libucrtd:initctype.obj
 0002:00093640       ___acrt_locale_initialize_ctype 100ea640 f   libucrtd:initctype.obj
 0002:00093fa0       ?__c32rtomb_utf8@__crt_mbstring@@YAIPAD_UPAU_Mbstatet@@AAV__crt_cached_ptd_host@@@Z 100eafa0 f   libucrtd:c32rtomb.obj
 0002:00094200       _c32rtomb                  100eb200 f   libucrtd:c32rtomb.obj
 0002:00094250       ?reset_and_return@__crt_mbstring@@YAIIPAU_Mbstatet@@@Z 100eb250 f   libucrtd:common_utf8.obj
 0002:00094280       ?return_illegal_sequence@__crt_mbstring@@YAIPAU_Mbstatet@@AAV__crt_cached_ptd_host@@@Z 100eb280 f   libucrtd:common_utf8.obj
 0002:000942d0       ??0__crt_stdio_stream@@QAE@QAU__crt_stdio_stream_data@@@Z 100eb2d0 f i libucrtd:closeall.obj
 0002:000942f0       ?is_in_use@__crt_stdio_stream@@QBE_NXZ 100eb2f0 f i libucrtd:closeall.obj
 0002:00094330       __fcloseall                100eb330 f   libucrtd:closeall.obj
 0002:00094d10       ?__acrt_stdio_reset_buffer@@YAXV__crt_stdio_stream@@@Z 100ebd10 f i libucrtd:fflush.obj
 0002:00094f40       ?has_all_of@__crt_stdio_stream@@QBE_NJ@Z 100ebf40 f i libucrtd:fflush.obj
 0002:00095040       ___acrt_stdio_flush_nolock 100ec040 f   libucrtd:fflush.obj
 0002:00095150       __fflush_nolock            100ec150 f   libucrtd:fflush.obj
 0002:000951a0       __flushall                 100ec1a0 f   libucrtd:fflush.obj
 0002:000951c0       _fflush                    100ec1c0 f   libucrtd:fflush.obj
 0002:00095260       ?has_crt_buffer@__crt_stdio_stream@@QBE_NXZ 100ec260 f i libucrtd:_freebuf.obj
 0002:00095280       ___acrt_stdio_free_buffer_nolock 100ec280 f   libucrtd:_freebuf.obj
 0002:00095c90       ?has_big_buffer@__crt_stdio_stream@@QBE_NXZ 100ecc90 f i libucrtd:_flsbuf.obj
 0002:00095dc0       ___acrt_stdio_flush_and_write_narrow_nolock 100ecdc0 f   libucrtd:_flsbuf.obj
 0002:00095e00       ___acrt_stdio_flush_and_write_wide_nolock 100ece00 f   libucrtd:_flsbuf.obj
 0002:00095e40       __isatty                   100ece40 f   libucrtd:isatty.obj
 0002:00095f40       ??$?RUlconv@@@__crt_internal_free_policy@@QBEXQBUlconv@@@Z 100ecf40 f i libucrtd:initmon.obj
 0002:00095f70       ??0?$__crt_unique_heap_ptr@Ulconv@@U__crt_internal_free_policy@@@@QAE@QAUlconv@@@Z 100ecf70 f i libucrtd:initmon.obj
 0002:00095f90       ??1?$__crt_unique_heap_ptr@Ulconv@@U__crt_internal_free_policy@@@@QAE@XZ 100ecf90 f i libucrtd:initmon.obj
 0002:00095fb0       ?detach@?$__crt_unique_heap_ptr@Ulconv@@U__crt_internal_free_policy@@@@QAEPAUlconv@@XZ 100ecfb0 f i libucrtd:initmon.obj
 0002:00095fe0       ?release@?$__crt_unique_heap_ptr@Ulconv@@U__crt_internal_free_policy@@@@QAEXXZ 100ecfe0 f i libucrtd:initmon.obj
 0002:00096010       ___acrt_locale_free_monetary 100ed010 f   libucrtd:initmon.obj
 0002:00096220       ___acrt_locale_initialize_monetary 100ed220 f   libucrtd:initmon.obj
 0002:00096a70       ___acrt_locale_free_numeric 100eda70 f   libucrtd:initnum.obj
 0002:00096b50       ___acrt_locale_initialize_numeric 100edb50 f   libucrtd:initnum.obj
 0002:000970b0       ??$?RU__crt_lc_time_data@@@__crt_internal_free_policy@@QBEXQBU__crt_lc_time_data@@@Z 100ee0b0 f i libucrtd:inittime.obj
 0002:000971a0       ??0?$__crt_unique_heap_ptr@U__crt_lc_time_data@@U__crt_internal_free_policy@@@@QAE@QAU__crt_lc_time_data@@@Z 100ee1a0 f i libucrtd:inittime.obj
 0002:000971c0       ??1?$__crt_unique_heap_ptr@U__crt_lc_time_data@@U__crt_internal_free_policy@@@@QAE@XZ 100ee1c0 f i libucrtd:inittime.obj
 0002:000971e0       ??B?$__crt_unique_heap_ptr@U__crt_lc_time_data@@U__crt_internal_free_policy@@@@QBE_NXZ 100ee1e0 f i libucrtd:inittime.obj
 0002:00097200       ?detach@?$__crt_unique_heap_ptr@U__crt_lc_time_data@@U__crt_internal_free_policy@@@@QAEPAU__crt_lc_time_data@@XZ 100ee200 f i libucrtd:inittime.obj
 0002:00097280       ?get@?$__crt_unique_heap_ptr@U__crt_lc_time_data@@U__crt_internal_free_policy@@@@QBEPAU__crt_lc_time_data@@XZ 100ee280 f i libucrtd:inittime.obj
 0002:00097870       ?is_valid@?$__crt_unique_heap_ptr@U__crt_lc_time_data@@U__crt_internal_free_policy@@@@QBE_NXZ 100ee870 f i libucrtd:inittime.obj
 0002:000978b0       ?release@?$__crt_unique_heap_ptr@U__crt_lc_time_data@@U__crt_internal_free_policy@@@@QAEXXZ 100ee8b0 f i libucrtd:inittime.obj
 0002:000978e0       ___acrt_locale_free_time   100ee8e0 f   libucrtd:inittime.obj
 0002:00097a80       ___acrt_locale_initialize_time 100eea80 f   libucrtd:inittime.obj
 0002:00097b10       ___pctype_func             100eeb10 f   libucrtd:ctype.obj
 0002:00097b50       ___pwctype_func            100eeb50 f   libucrtd:ctype.obj
 0002:00098170       _wcsncat_s                 100ef170 f   libucrtd:wcsncat_s.obj
 0002:000981a0       _wcscmp                    100ef1a0 f   libucrtd:wcscmpc.obj
 0002:00098240       _wcscspn                   100ef240 f   libucrtd:wcscspn.obj
 0002:000982b0       _wcspbrk                   100ef2b0 f   libucrtd:wcspbrk.obj
 0002:00098310       ??0?$__crt_scoped_stack_ptr@_W@@QAE@U?$__crt_scoped_stack_ptr_tag@_W@@@Z 100ef310 f i libucrtd:getstringtypea.obj
 0002:00098330       ??0?$__crt_scoped_stack_ptr_tag@_W@@QAE@QA_W@Z 100ef330 f i libucrtd:getstringtypea.obj
 0002:00098350       ??1?$__crt_scoped_stack_ptr@_W@@QAE@XZ 100ef350 f i libucrtd:getstringtypea.obj
 0002:00098380       ?get@?$__crt_scoped_stack_ptr@_W@@QBEPA_WXZ 100ef380 f i libucrtd:getstringtypea.obj
 0002:000983a0       __MallocaComputeSize       100ef3a0 f i libucrtd:getstringtypea.obj
 0002:000983e0       __MarkAllocaS              100ef3e0 f i libucrtd:getstringtypea.obj
 0002:00098410       ___acrt_GetStringTypeA     100ef410 f   libucrtd:getstringtypea.obj
 0002:00098640       __freea_crt                100ef640 f i libucrtd:getstringtypea.obj
 0002:000994f0       ___acrt_get_qualified_locale 100f04f0 f   libucrtd:get_qualified_locale.obj
 0002:0009a920       ___acrt_get_qualified_locale_downlevel 100f1920 f   libucrtd:getqloc_downlevel.obj
 0002:0009ac80       _localeconv                100f1c80 f   libucrtd:localeconv.obj
 0002:0009acd0       ??$?RU__crt_lowio_handle_data@@@__crt_internal_free_policy@@QBEXQBU__crt_lowio_handle_data@@@Z 100f1cd0 f i libucrtd:osfinfo.obj
 0002:0009ad00       ??0?$__crt_unique_heap_ptr@U__crt_lowio_handle_data@@U__crt_internal_free_policy@@@@QAE@QAU__crt_lowio_handle_data@@@Z 100f1d00 f i libucrtd:osfinfo.obj
 0002:0009ad20       ??1?$__crt_unique_heap_ptr@U__crt_lowio_handle_data@@U__crt_internal_free_policy@@@@QAE@XZ 100f1d20 f i libucrtd:osfinfo.obj
 0002:0009ad40       ??B?$__crt_unique_heap_ptr@U__crt_lowio_handle_data@@U__crt_internal_free_policy@@@@QBE_NXZ 100f1d40 f i libucrtd:osfinfo.obj
 0002:0009ad60       ?detach@?$__crt_unique_heap_ptr@U__crt_lowio_handle_data@@U__crt_internal_free_policy@@@@QAEPAU__crt_lowio_handle_data@@XZ 100f1d60 f i libucrtd:osfinfo.obj
 0002:0009ad90       ?get@?$__crt_unique_heap_ptr@U__crt_lowio_handle_data@@U__crt_internal_free_policy@@@@QBEPAU__crt_lowio_handle_data@@XZ 100f1d90 f i libucrtd:osfinfo.obj
 0002:0009adb0       ?is_valid@?$__crt_unique_heap_ptr@U__crt_lowio_handle_data@@U__crt_internal_free_policy@@@@QBE_NXZ 100f1db0 f i libucrtd:osfinfo.obj
 0002:0009adf0       ?release@?$__crt_unique_heap_ptr@U__crt_lowio_handle_data@@U__crt_internal_free_policy@@@@QAEXXZ 100f1df0 f i libucrtd:osfinfo.obj
 0002:0009ae20       ___acrt_lowio_create_handle_array 100f1e20 f   libucrtd:osfinfo.obj
 0002:0009afd0       ___acrt_lowio_destroy_handle_array 100f1fd0 f   libucrtd:osfinfo.obj
 0002:0009b040       ___acrt_lowio_ensure_fh_exists 100f2040 f   libucrtd:osfinfo.obj
 0002:0009b1f0       ___acrt_lowio_lock_fh      100f21f0 f   libucrtd:osfinfo.obj
 0002:0009b220       ___acrt_lowio_set_os_handle 100f2220 f   libucrtd:osfinfo.obj
 0002:0009b330       ___acrt_lowio_unlock_fh    100f2330 f   libucrtd:osfinfo.obj
 0002:0009b360       __alloc_osfhnd             100f2360 f   libucrtd:osfinfo.obj
 0002:0009b5b0       __free_osfhnd              100f25b0 f   libucrtd:osfinfo.obj
 0002:0009b6d0       __get_osfhandle            100f26d0 f   libucrtd:osfinfo.obj
 0002:0009b8b0       __open_osfhandle           100f28b0 f   libucrtd:osfinfo.obj
 0002:0009bc90       _qsort                     100f2c90 f   libucrtd:qsort.obj
 0002:0009c450       _strpbrk                   100f3450 f   libucrtd:strpbrk.obj
 0002:0009c4a0       ??B?$__crt_scoped_stack_ptr@_W@@QBE_NXZ 100f34a0 f i libucrtd:lcmapstringa.obj
 0002:0009c9b0       ___acrt_LCMapStringA       100f39b0 f   libucrtd:lcmapstringa.obj
 0002:0009ca60       __wcsnicoll                100f3a60 f   libucrtd:wcsnicol.obj
 0002:0009cc90       __wcsnicoll_l              100f3c90 f   libucrtd:wcsnicol.obj
 0002:0009cf70       __strnicoll                100f3f70 f   libucrtd:strnicol.obj
 0002:0009cfd0       __strnicoll_l              100f3fd0 f   libucrtd:strnicol.obj
 0002:0009d340       ___acrt_SetEnvironmentVariableA 100f4340 f   libucrtd:setenvironmentvariablea.obj
 0002:0009d570       ___acrt_DownlevelLCIDToLocaleName 100f4570 f   libucrtd:lcidtoname_downlevel.obj
 0002:0009d670       ___acrt_DownlevelLocaleNameToLCID 100f4670 f   libucrtd:lcidtoname_downlevel.obj
 0002:0009d6c0       __malloc_base              100f46c0 f   libucrtd:malloc_base.obj
 0002:0009d770       __set_error_mode           100f4770 f   libucrtd:set_error_mode.obj
 0002:0009d870       ___acrt_GetStringTypeW     100f4870 f   libucrtd:getstringtypew.obj
 0002:0009d8a0       ?__wcsrtombs_utf8@__crt_mbstring@@YAIPADPAPB_WIPAU_Mbstatet@@AAV__crt_cached_ptd_host@@@Z 100f48a0 f   libucrtd:wcrtomb.obj
 0002:0009e2d0       _wcrtomb                   100f52d0 f   libucrtd:wcrtomb.obj
 0002:0009e340       _wcrtomb_s                 100f5340 f   libucrtd:wcrtomb.obj
 0002:0009e3a0       _wcsrtombs                 100f53a0 f   libucrtd:wcrtomb.obj
 0002:0009e3f0       _wcsrtombs_s               100f53f0 f   libucrtd:wcrtomb.obj
 0002:0009e8f0       _wctob                     100f58f0 f   libucrtd:wcrtomb.obj
 0002:0009e9e0       _log10                     100f59e0 f   libucrtd:log10.obj
 0002:0009ea40       __ceil_no_sse41            100f5a40 f   libucrtd:ceil_pentium4.obj
 0002:0009ea80       _ceil                      100f5a80 f   libucrtd:ceil_pentium4.obj
 0002:0009eaa0       __ceil_pentium4            100f5aa0 f   libucrtd:ceil_pentium4.obj
 0002:0009ebd0       __controlfp_s              100f5bd0 f   libucrtd:contrlfp.obj
 0002:0009ecf0       _fegetenv                  100f5cf0 f   libucrtd:fegetenv.obj
 0002:0009ed20       _fesetenv                  100f5d20 f   libucrtd:fesetenv.obj
 0002:0009eda0       _feholdexcept              100f5da0 f   libucrtd:feholdexcept.obj
 0002:0009ee20       ??$__acrt_fenv_shift_bits@W4__acrt_fenv_abstract_control@@@@YA?AW4__acrt_fenv_abstract_control@@W40@0I@Z 100f5e20 f i libucrtd:_fenvutils.obj
 0002:0009ee50       ??$__acrt_fenv_shift_bits@W4__acrt_fenv_abstract_status@@@@YA?AW4__acrt_fenv_abstract_status@@W40@0I@Z 100f5e50 f i libucrtd:_fenvutils.obj
 0002:0009ee80       ??$__acrt_fenv_translate_bit@W4__acrt_fenv_abstract_control@@W4__acrt_fenv_machine_sse_control@@@@YA?AW4__acrt_fenv_abstract_control@@W4__acrt_fenv_machine_sse_control@@0W40@1@Z 100f5e80 f i libucrtd:_fenvutils.obj
 0002:0009eed0       ??$__acrt_fenv_translate_bit@W4__acrt_fenv_abstract_control@@W4__acrt_fenv_machine_x87_control@@@@YA?AW4__acrt_fenv_abstract_control@@W4__acrt_fenv_machine_x87_control@@0W40@1@Z 100f5ed0 f i libucrtd:_fenvutils.obj
 0002:0009ef20       ??$__acrt_fenv_translate_bit@W4__acrt_fenv_abstract_status@@W4__acrt_fenv_machine_sse_status@@@@YA?AW4__acrt_fenv_abstract_status@@W4__acrt_fenv_machine_sse_status@@0W40@1@Z 100f5f20 f i libucrtd:_fenvutils.obj
 0002:0009ef70       ??$__acrt_fenv_translate_bit@W4__acrt_fenv_abstract_status@@W4__acrt_fenv_machine_x87_status@@@@YA?AW4__acrt_fenv_abstract_status@@W4__acrt_fenv_machine_x87_status@@0W40@1@Z 100f5f70 f i libucrtd:_fenvutils.obj
 0002:0009efc0       ??$__acrt_fenv_translate_bit@W4__acrt_fenv_machine_sse_control@@W4__acrt_fenv_abstract_control@@@@YA?AW4__acrt_fenv_machine_sse_control@@W4__acrt_fenv_abstract_control@@0W40@1@Z 100f5fc0 f i libucrtd:_fenvutils.obj
 0002:0009f010       ??$__acrt_fenv_translate_bit@W4__acrt_fenv_machine_sse_status@@W4__acrt_fenv_abstract_status@@@@YA?AW4__acrt_fenv_machine_sse_status@@W4__acrt_fenv_abstract_status@@0W40@1@Z 100f6010 f i libucrtd:_fenvutils.obj
 0002:0009f060       ??$__acrt_fenv_translate_bit@W4__acrt_fenv_machine_x87_control@@W4__acrt_fenv_abstract_control@@@@YA?AW4__acrt_fenv_machine_x87_control@@W4__acrt_fenv_abstract_control@@0W40@1@Z 100f6060 f i libucrtd:_fenvutils.obj
 0002:0009f0b0       ??$__acrt_fenv_translate_bit@W4__acrt_fenv_machine_x87_status@@W4__acrt_fenv_abstract_status@@@@YA?AW4__acrt_fenv_machine_x87_status@@W4__acrt_fenv_abstract_status@@0W40@1@Z 100f60b0 f i libucrtd:_fenvutils.obj
 0002:0009f100       ??$__acrt_fenv_unshift_bits@W4__acrt_fenv_abstract_control@@@@YA?AW4__acrt_fenv_abstract_control@@W40@0I@Z 100f6100 f i libucrtd:_fenvutils.obj
 0002:0009f130       ??$__acrt_fenv_unshift_bits@W4__acrt_fenv_abstract_status@@@@YA?AW4__acrt_fenv_abstract_status@@W40@0I@Z 100f6130 f i libucrtd:_fenvutils.obj
 0002:0009fdf0       ??I@YA?AW4__acrt_fenv_abstract_control@@W40@0@Z 100f6df0 f i libucrtd:_fenvutils.obj
 0002:0009fe00       ??I@YA?AW4__acrt_fenv_abstract_status@@W40@0@Z 100f6e00 f i libucrtd:_fenvutils.obj
 0002:0009fe10       ??I@YA?AW4__acrt_fenv_machine_sse_control@@W40@0@Z 100f6e10 f i libucrtd:_fenvutils.obj
 0002:0009fe30       ??I@YA?AW4__acrt_fenv_machine_sse_status@@W40@0@Z 100f6e30 f i libucrtd:_fenvutils.obj
 0002:0009fe40       ??I@YA?AW4__acrt_fenv_machine_x87_control@@W40@0@Z 100f6e40 f i libucrtd:_fenvutils.obj
 0002:0009fe60       ??I@YA?AW4__acrt_fenv_machine_x87_status@@W40@0@Z 100f6e60 f i libucrtd:_fenvutils.obj
 0002:0009fe70       ??U@YA?AW4__acrt_fenv_abstract_control@@W40@0@Z 100f6e70 f i libucrtd:_fenvutils.obj
 0002:0009fe80       ??U@YA?AW4__acrt_fenv_abstract_status@@W40@0@Z 100f6e80 f i libucrtd:_fenvutils.obj
 0002:0009fe90       ??U@YA?AW4__acrt_fenv_machine_sse_control@@W40@0@Z 100f6e90 f i libucrtd:_fenvutils.obj
 0002:0009feb0       ??U@YA?AW4__acrt_fenv_machine_x87_control@@W40@0@Z 100f6eb0 f i libucrtd:_fenvutils.obj
 0002:0009fed0       ??_5@YAAAW4__acrt_fenv_abstract_control@@AAW40@W40@@Z 100f6ed0 f i libucrtd:_fenvutils.obj
 0002:0009fef0       ??_5@YAAAW4__acrt_fenv_abstract_status@@AAW40@W40@@Z 100f6ef0 f i libucrtd:_fenvutils.obj
 0002:0009ff10       ??_5@YAAAW4__acrt_fenv_machine_sse_control@@AAW40@W40@@Z 100f6f10 f i libucrtd:_fenvutils.obj
 0002:0009ff40       ??_5@YAAAW4__acrt_fenv_machine_sse_status@@AAW40@W40@@Z 100f6f40 f i libucrtd:_fenvutils.obj
 0002:0009ff60       ??_5@YAAAW4__acrt_fenv_machine_x87_control@@AAW40@W40@@Z 100f6f60 f i libucrtd:_fenvutils.obj
 0002:0009ff90       ??_5@YAAAW4__acrt_fenv_machine_x87_status@@AAW40@W40@@Z 100f6f90 f i libucrtd:_fenvutils.obj
 0002:0009ffb0       ?__acrt_fenv_shift_abstract_sse_control@@YA?AW4__acrt_fenv_abstract_control@@W41@@Z 100f6fb0 f i libucrtd:_fenvutils.obj
 0002:000a0010       ?__acrt_fenv_shift_abstract_sse_status@@YA?AW4__acrt_fenv_abstract_status@@W41@@Z 100f7010 f i libucrtd:_fenvutils.obj
 0002:000a0030       ?__acrt_fenv_shift_abstract_x87_control@@YA?AW4__acrt_fenv_abstract_control@@W41@@Z 100f7030 f i libucrtd:_fenvutils.obj
 0002:000a0090       ?__acrt_fenv_shift_abstract_x87_status@@YA?AW4__acrt_fenv_abstract_status@@W41@@Z 100f7090 f i libucrtd:_fenvutils.obj
 0002:000a00b0       ?__acrt_fenv_unshift_abstract_sse_control@@YA?AW4__acrt_fenv_abstract_control@@W41@@Z 100f70b0 f i libucrtd:_fenvutils.obj
 0002:000a0110       ?__acrt_fenv_unshift_abstract_sse_status@@YA?AW4__acrt_fenv_abstract_status@@W41@@Z 100f7110 f i libucrtd:_fenvutils.obj
 0002:000a0130       ?__acrt_fenv_unshift_abstract_x87_control@@YA?AW4__acrt_fenv_abstract_control@@W41@@Z 100f7130 f i libucrtd:_fenvutils.obj
 0002:000a0190       ?__acrt_fenv_unshift_abstract_x87_status@@YA?AW4__acrt_fenv_abstract_status@@W41@@Z 100f7190 f i libucrtd:_fenvutils.obj
 0002:000a0880       ___acrt_fenv_expand_round_control 100f7880 f   libucrtd:_fenvutils.obj
 0002:000a08e0       ___acrt_fenv_get_common_round_control 100f78e0 f   libucrtd:_fenvutils.obj
 0002:000a0950       ___acrt_fenv_get_control   100f7950 f   libucrtd:_fenvutils.obj
 0002:000a0a00       ___acrt_fenv_get_fp_status_word_from_exception_mask 100f7a00 f   libucrtd:_fenvutils.obj
 0002:000a0a60       ___acrt_fenv_get_status    100f7a60 f   libucrtd:_fenvutils.obj
 0002:000a0b00       ___acrt_fenv_set_control   100f7b00 f   libucrtd:_fenvutils.obj
 0002:000a0b50       ___acrt_fenv_set_status    100f7b50 f   libucrtd:_fenvutils.obj
 0002:000a0d70       ___acrt_GetLocaleInfoA     100f7d70 f   libucrtd:getlocaleinfoa.obj
 0002:000a1570       __fclose_nolock            100f8570 f   libucrtd:fclose.obj
 0002:000a15c0       _fclose                    100f85c0 f   libucrtd:fclose.obj
 0002:000a1900       __commit                   100f8900 f   libucrtd:commit.obj
 0002:000a3170       __utf8_no_of_trailbytes    100fa170 f i libucrtd:write.obj
 0002:000a3190       __write                    100fa190 f   libucrtd:write.obj
 0002:000a31e0       __write_internal           100fa1e0 f   libucrtd:write.obj
 0002:000a3530       __write_nolock             100fa530 f   libucrtd:write.obj
 0002:000a45a0       __lseek                    100fb5a0 f   libucrtd:lseek.obj
 0002:000a45f0       __lseek_internal           100fb5f0 f   libucrtd:lseek.obj
 0002:000a4620       __lseek_nolock             100fb620 f   libucrtd:lseek.obj
 0002:000a4670       __lseek_nolock_internal    100fb670 f   libucrtd:lseek.obj
 0002:000a46a0       __lseeki64                 100fb6a0 f   libucrtd:lseek.obj
 0002:000a4700       __lseeki64_internal        100fb700 f   libucrtd:lseek.obj
 0002:000a4730       __lseeki64_nolock          100fb730 f   libucrtd:lseek.obj
 0002:000a4790       __lseeki64_nolock_internal 100fb790 f   libucrtd:lseek.obj
 0002:000a47c0       ___acrt_stdio_allocate_buffer_nolock 100fb7c0 f   libucrtd:_getbuf.obj
 0002:000a4930       ___ascii_wcsicmp           100fb930 f   libucrtd:wcsicmp.obj
 0002:000a49e0       __towlower_fast_internal   100fb9e0 f i libucrtd:wcsicmp.obj
 0002:000a4a30       __towlower_internal        100fba30 f i libucrtd:wcsicmp.obj
 0002:000a4a80       __wcsicmp                  100fba80 f   libucrtd:wcsicmp.obj
 0002:000a4c00       __wcsicmp_l                100fbc00 f   libucrtd:wcsicmp.obj
 0002:000a4e80       ___ascii_wcsnicmp          100fbe80 f   libucrtd:wcsnicmp.obj
 0002:000a4f30       __wcsnicmp                 100fbf30 f   libucrtd:wcsnicmp.obj
 0002:000a50c0       __wcsnicmp_l               100fc0c0 f   libucrtd:wcsnicmp.obj
 0002:000a5360       ___strncnt                 100fc360 f   libucrtd:strncnt.obj
 0002:000a53c0       ___acrt_CompareStringW     100fc3c0 f   libucrtd:comparestringw.obj
 0002:000a5490       __strnicmp                 100fc490 f   libucrtd:strnicmp.obj
 0002:000a56c0       __strnicmp_l               100fc6c0 f   libucrtd:strnicmp.obj
 0002:000a5f80       ___acrt_CompareStringA     100fcf80 f   libucrtd:comparestringa.obj
 0002:000a5ff0       ___acrt_initialize_sse2    100fcff0 f   libucrtd:mathfcns.obj
 0002:000a6010       __set_SSE2_enable          100fd010 f   libucrtd:mathfcns.obj
 0002:000a6070       __CIlog10                  100fd070 f   libucrtd:log10_impl.obj
 0002:000a60ab       __CIlog10_default          100fd0ab f   libucrtd:log10_impl.obj
 0002:000a60bf       __log10_default            100fd0bf     libucrtd:log10_impl.obj
 0002:000a61d0       __CIlog10_pentium4         100fd1d0 f   libucrtd:log10_pentium4.obj
 0002:000a61e8       __log10_pentium4           100fd1e8     libucrtd:log10_pentium4.obj
 0002:000a6510       ___libm_error_support      100fd510 f   libucrtd:libm_error.obj
 0002:000a6d60       ___libm_setusermatherr     100fdd60 f   libucrtd:libm_error.obj
 0002:000a6da0       __ceil_default             100fdda0 f   libucrtd:ceil.obj
 0002:000a71e0       ___control87_2             100fe1e0 f   libucrtd:ieee87.obj
 0002:000a7350       ___fpreset_sse2            100fe350 f   libucrtd:ieee87.obj
 0002:000a77a0       __clearfp                  100fe7a0 f   libucrtd:ieee87.obj
 0002:000a7800       __control87                100fe800 f   libucrtd:ieee87.obj
 0002:000a78e0       __controlfp                100fe8e0 f   libucrtd:ieee87.obj
 0002:000a7910       __fpreset                  100fe910 f   libucrtd:ieee87.obj
 0002:000a7b40       __set_controlfp            100feb40 f   libucrtd:ieee87.obj
 0002:000a7bf0       __statusfp                 100febf0 f   libucrtd:ieee87.obj
 0002:000a7c50       __statusfp2                100fec50 f   libucrtd:ieee87.obj
 0002:000a8080       __close                    100ff080 f   libucrtd:close.obj
 0002:000a80d0       __close_internal           100ff0d0 f   libucrtd:close.obj
 0002:000a8310       __close_nolock             100ff310 f   libucrtd:close.obj
 0002:000a8360       __close_nolock_internal    100ff360 f   libucrtd:close.obj
 0002:000a83e0       ??$?RU__crt_stdio_stream_data@@@__crt_internal_free_policy@@QBEXQBU__crt_stdio_stream_data@@@Z 100ff3e0 f i libucrtd:stream.obj
 0002:000a8410       ??0?$__crt_unique_heap_ptr@U__crt_stdio_stream_data@@U__crt_internal_free_policy@@@@QAE@QAU__crt_stdio_stream_data@@@Z 100ff410 f i libucrtd:stream.obj
 0002:000a8430       ??0__crt_stdio_stream@@QAE@XZ 100ff430 f i libucrtd:stream.obj
 0002:000a8450       ??1?$__crt_unique_heap_ptr@U__crt_stdio_stream_data@@U__crt_internal_free_policy@@@@QAE@XZ 100ff450 f i libucrtd:stream.obj
 0002:000a8470       ?__acrt_stdio_allocate_stream@@YA?AV__crt_stdio_stream@@XZ 100ff470 f   libucrtd:stream.obj
 0002:000a85a0       ?__acrt_stdio_free_stream@@YAXV__crt_stdio_stream@@@Z 100ff5a0 f   libucrtd:stream.obj
 0002:000a8640       ?deallocate@__crt_stdio_stream@@QAEXXZ 100ff640 f i libucrtd:stream.obj
 0002:000a8660       ?detach@?$__crt_unique_heap_ptr@U__crt_stdio_stream_data@@U__crt_internal_free_policy@@@@QAEPAU__crt_stdio_stream_data@@XZ 100ff660 f i libucrtd:stream.obj
 0002:000a8820       ?lock@__crt_stdio_stream@@QBEXXZ 100ff820 f i libucrtd:stream.obj
 0002:000a8850       ?release@?$__crt_unique_heap_ptr@U__crt_stdio_stream_data@@U__crt_internal_free_policy@@@@QAEXXZ 100ff850 f i libucrtd:stream.obj
 0002:000a8880       ?try_allocate@__crt_stdio_stream@@QAE_NXZ 100ff880 f i libucrtd:stream.obj
 0002:000a88e0       ?unlock@__crt_stdio_stream@@QBEXXZ 100ff8e0 f i libucrtd:stream.obj
 0002:000a8b60       __putwch                   100ffb60 f   libucrtd:putwch.obj
 0002:000a8b90       __putwch_nolock            100ffb90 f   libucrtd:putwch.obj
 0002:000a8be0       __putwch_nolock_internal   100ffbe0 f   libucrtd:putwch.obj
 0002:000a98d0       __read                     101008d0 f   libucrtd:read.obj
 0002:000a9c70       __read_nolock              10100c70 f   libucrtd:read.obj
 0002:000aa8a0       __towlower_l               101018a0 f   libucrtd:towlower.obj
 0002:000aaa30       _towlower                  10101a30 f   libucrtd:towlower.obj
 0002:000aaa50       ___ascii_strnicmp          10101a50 f   libucrtd:_strnicm.obj
 0002:000aaaf0       __fFEXP                    10101af0 f   libucrtd:87tran.obj
 0002:000aab47       __rtinfpopse               10101b47     libucrtd:87tran.obj
 0002:000aab49       __rtinfnpopse              10101b49     libucrtd:87tran.obj
 0002:000aab59       __fFLN                     10101b59     libucrtd:87tran.obj
 0002:000aac0e       __rtinfpop                 10101c0e     libucrtd:87tran.obj
 0002:000aac10       __rtinfnpop                10101c10     libucrtd:87tran.obj
 0002:000aac20       __rtforexpinf              10101c20 f   libucrtd:87tran.obj
 0002:000aac2d       __ffexpm1                  10101c2d     libucrtd:87tran.obj
 0002:000aad60       __trandisp1                10101d60 f   libucrtd:87disp.obj
 0002:000aadd5       __trandisp2                10101dd5 f   libucrtd:87disp.obj
 0002:000aae6f       __rttospopde               10101e6f     libucrtd:87disp.obj
 0002:000aae74       __rttospop                 10101e74     libucrtd:87disp.obj
 0002:000aae80       __rtnospop                 10101e80 f   libucrtd:87disp.obj
 0002:000aae90       __rttosnpop                10101e90 f   libucrtd:87disp.obj
 0002:000aae91       __rtnospopde               10101e91     libucrtd:87disp.obj
 0002:000aae98       __rtzeropop                10101e98     libucrtd:87disp.obj
 0002:000aae9a       __rtzeronpop               10101e9a     libucrtd:87disp.obj
 0002:000aaea0       __rtzerospop               10101ea0 f   libucrtd:87disp.obj
 0002:000aaead       __rtonepop                 10101ead     libucrtd:87disp.obj
 0002:000aaeb0       __rtonenpop                10101eb0 f   libucrtd:87disp.obj
 0002:000aaec0       __tosnan1                  10101ec0 f   libucrtd:87disp.obj
 0002:000aaef0       __nosnan2                  10101ef0 f   libucrtd:87disp.obj
 0002:000aaf00       __tosnan2                  10101f00 f   libucrtd:87disp.obj
 0002:000aaf30       __nan2                     10101f30 f   libucrtd:87disp.obj
 0002:000aaf70       __rtindfpop                10101f70 f   libucrtd:87disp.obj
 0002:000aaf72       __rtindfnpop               10101f72     libucrtd:87disp.obj
 0002:000aaf83       __rttosnpopde              10101f83     libucrtd:87disp.obj
 0002:000aaf90       __rtatan2inf               10101f90 f   libucrtd:87disp.obj
 0002:000aafad       __rtchsifneg               10101fad     libucrtd:87disp.obj
 0002:000ab050       ___setfflag                10102050 f   libucrtd:fp_flags.obj
 0002:000ab080       __twoToTOS                 10102080 f   libucrtd:common.obj
 0002:000ab095       __load_CW                  10102095 f   libucrtd:common.obj
 0002:000ab0ac       __convertTOStoQNaN         101020ac f   libucrtd:common.obj
 0002:000ab0c5       __fload_withFB             101020c5 f   libucrtd:common.obj
 0002:000ab108       __checkTOS_withFB          10102108 f   libucrtd:common.obj
 0002:000ab11e       __fast_exit                1010211e f   libucrtd:common.obj
 0002:000ab12b       __math_exit                1010212b f   libucrtd:common.obj
 0002:000ab155       __check_overflow_exit      10102155 f   libucrtd:common.obj
 0002:000ab169       __check_range_exit         10102169 f   libucrtd:common.obj
 0002:000ab270       __startTwoArgErrorHandling 10102270 f   libucrtd:genexcep.obj
 0002:000ab287       __startOneArgErrorHandling 10102287 f   libucrtd:genexcep.obj
 0002:000ab2e0       __frnd                     101022e0 f   libucrtd:frnd.obj
 0002:000ab430       ?should_round_up@__crt_strtox@@YA_N_N000@Z 10102430 f i libucrtd:fpexcept.obj
 0002:000ab560       __errcode                  10102560 f   libucrtd:fpexcept.obj
 0002:000ab5f0       __except1                  101025f0 f   libucrtd:fpexcept.obj
 0002:000ab740       __except2                  10102740 f   libucrtd:fpexcept.obj
 0002:000ab8b0       __fperrraise               101028b0 f   libucrtd:fpexcept.obj
 0002:000ab950       __handle_exc               10102950 f   libucrtd:fpexcept.obj
 0002:000abe70       __handle_qnan2             10102e70 f   libucrtd:fpexcept.obj
 0002:000abea0       __raise_exc                10102ea0 f   libucrtd:fpexcept.obj
 0002:000abee0       __raise_exc_ex             10102ee0 f   libucrtd:fpexcept.obj
 0002:000ac5d0       __raise_excf               101035d0 f   libucrtd:fpexcept.obj
 0002:000ac610       __set_errno_from_matherr   10103610 f   libucrtd:fpexcept.obj
 0002:000ac660       __umatherr                 10103660 f   libucrtd:fpexcept.obj
 0002:000ac730       __decomp                   10103730 f i libucrtd:frexp.obj
 0002:000ac9a0       __set_exp                  101039a0 f i libucrtd:frexp.obj
 0002:000aca20       __sptype                   10103a20 f i libucrtd:frexp.obj
 0002:000acb60       _frexp                     10103b60 f   libucrtd:frexp.obj
 0002:000acd70       ___clrfp_sse2              10103d70 f   libucrtd:fpctrl.obj
 0002:000acdc0       ___ctrlfp_sse2             10103dc0 f   libucrtd:fpctrl.obj
 0002:000ace30       ___fclrf_sse2              10103e30 f   libucrtd:fpctrl.obj
 0002:000ace60       ___get_fpsr_sse2           10103e60 f   libucrtd:fpctrl.obj
 0002:000ace90       ___set_fpsr_sse2           10103e90 f   libucrtd:fpctrl.obj
 0002:000acfa0       ___set_statfp_sse2         10103fa0 f   libucrtd:fpctrl.obj
 0002:000acfe0       ___statfp_sse2             10103fe0 f   libucrtd:fpctrl.obj
 0002:000ad020       __clrfp                    10104020 f   libucrtd:fpctrl.obj
 0002:000ad040       __ctrlfp                   10104040 f   libucrtd:fpctrl.obj
 0002:000ad080       __set_statfp               10104080 f   libucrtd:fpctrl.obj
 0002:000ad100       __statfp                   10104100 f   libucrtd:fpctrl.obj
 0002:000ad260       ___dcrt_lowio_ensure_console_output_initialized 10104260 f   libucrtd:initcon.obj
 0002:000ad290       ___dcrt_terminate_console_output 10104290 f   libucrtd:initcon.obj
 0002:000ad2c0       ___dcrt_write_console      101042c0 f   libucrtd:initcon.obj
 0002:000ad300       ___acrt_LCMapStringW       10104300 f   libucrtd:lcmapstringw.obj
 0002:000ad380       __d_inttype                10104380 f   libucrtd:powhlp.obj
 0002:000ad450       __powhlp                   10104450 f   libucrtd:powhlp.obj
 0002:000ad6f0       __87except                 101046f0 f   libucrtd:87except.obj
 0002:000ad970       ??_4@YAAAW4__acrt_fenv_abstract_status@@AAW40@W40@@Z 10104970 f i libucrtd:fegetexceptflag.obj
 0002:000ad990       _fegetexceptflag           10104990 f   libucrtd:fegetexceptflag.obj
 0002:000ad9f0       ??S@YA?AW4__acrt_fenv_abstract_status@@W40@@Z 101049f0 f i libucrtd:fesetexceptflag.obj
 0002:000ada00       _fesetexceptflag           10104a00 f   libucrtd:fesetexceptflag.obj
 0002:000adb00       __chgsign                  10104b00 f   libucrtd:ieeemisc.obj
 0002:000adb50       __chgsignf                 10104b50 f   libucrtd:ieeemisc.obj
 0002:000adbb0       __copysign                 10104bb0 f   libucrtd:ieeemisc.obj
 0002:000adc00       __copysignf                10104c00 f   libucrtd:ieeemisc.obj
 0002:000adc60       __finite                   10104c60 f   libucrtd:ieeemisc.obj
 0002:000adcb0       __fpclass                  10104cb0 f   libucrtd:ieeemisc.obj
 0002:000ade30       __isnan                    10104e30 f   libucrtd:ieeemisc.obj
 0002:000adf00       __logb                     10104f00 f   libucrtd:ieeemisc.obj
 0002:000ae0c0       __nextafter                101050c0 f   libucrtd:ieeemisc.obj
 0002:000ae100       __scalb                    10105100 f   libucrtd:ieeemisc.obj
 0002:000ae130       _fetestexcept              10105130 f   libucrtd:fetestexcept.obj
 0002:000ae190       _ldexp                     10105190 f   libucrtd:ldexp.obj
 0002:000ae640       _nextafter                 10105640 f   libucrtd:nextafter.obj
 0002:000ae6b0       _nexttoward                101056b0 f   libucrtd:nexttoward.obj
 0002:000ae940       __d_int                    10105940 f i libucrtd:_test.obj
 0002:000aeb00       __dtest                    10105b00 f i libucrtd:_test.obj
 0002:000aeb30       __dtest_inline             10105b30 f i libucrtd:_test.obj
 0002:000aec20       __fd_int                   10105c20 f i libucrtd:_test.obj
 0002:000aed50       __fdtest                   10105d50 f i libucrtd:_test.obj
 0002:000aed80       __fdtest_inline            10105d80 f i libucrtd:_test.obj
 0002:000aee20       __ld_int                   10105e20 f i libucrtd:_test.obj
 0002:000aee40       __ldtest                   10105e40 f i libucrtd:_test.obj
 0002:000aee70       __ldtest_inline            10105e70 f i libucrtd:_test.obj
 0002:000aeeec       _GetCurrentThreadId@0      10105eec f   kernel32:KERNEL32.dll
 0002:000aeef2       _IsDebuggerPresent@0       10105ef2 f   kernel32:KERNEL32.dll
 0002:000aeef8       _RaiseException@16         10105ef8 f   kernel32:KERNEL32.dll
 0002:000aeefe       _MultiByteToWideChar@24    10105efe f   kernel32:KERNEL32.dll
 0002:000aef04       _WideCharToMultiByte@32    10105f04 f   kernel32:KERNEL32.dll
 0002:000aef0a       _QueryPerformanceCounter@4 10105f0a f   kernel32:KERNEL32.dll
 0002:000aef10       _GetCurrentProcessId@0     10105f10 f   kernel32:KERNEL32.dll
 0002:000aef16       _GetSystemTimeAsFileTime@4 10105f16 f   kernel32:KERNEL32.dll
 0002:000aef1c       _InitializeSListHead@4     10105f1c f   kernel32:KERNEL32.dll
 0002:000aef22       _UnhandledExceptionFilter@4 10105f22 f   kernel32:KERNEL32.dll
 0002:000aef28       _SetUnhandledExceptionFilter@4 10105f28 f   kernel32:KERNEL32.dll
 0002:000aef2e       _GetStartupInfoW@4         10105f2e f   kernel32:KERNEL32.dll
 0002:000aef34       _IsProcessorFeaturePresent@4 10105f34 f   kernel32:KERNEL32.dll
 0002:000aef3a       _GetModuleHandleW@4        10105f3a f   kernel32:KERNEL32.dll
 0002:000aef40       _GetLastError@0            10105f40 f   kernel32:KERNEL32.dll
 0002:000aef46       _HeapAlloc@12              10105f46 f   kernel32:KERNEL32.dll
 0002:000aef4c       _HeapFree@12               10105f4c f   kernel32:KERNEL32.dll
 0002:000aef52       _GetProcessHeap@0          10105f52 f   kernel32:KERNEL32.dll
 0002:000aef58       _VirtualQuery@12           10105f58 f   kernel32:KERNEL32.dll
 0002:000aef5e       _FreeLibrary@4             10105f5e f   kernel32:KERNEL32.dll
 0002:000aef64       _GetProcAddress@8          10105f64 f   kernel32:KERNEL32.dll
 0002:000aef6a       _GetCurrentProcess@0       10105f6a f   kernel32:KERNEL32.dll
 0002:000aef70       _TerminateProcess@8        10105f70 f   kernel32:KERNEL32.dll
 0002:000aef76       _InterlockedPushEntrySList@8 10105f76 f   kernel32:KERNEL32.dll
 0002:000aef7c       _InterlockedFlushSList@4   10105f7c f   kernel32:KERNEL32.dll
 0002:000aef82       _GetModuleFileNameW@12     10105f82 f   kernel32:KERNEL32.dll
 0002:000aef88       _LoadLibraryExW@12         10105f88 f   kernel32:KERNEL32.dll
 0002:000aef8e       _RtlUnwind@16              10105f8e f   kernel32:KERNEL32.dll
 0002:000aef94       _SetLastError@4            10105f94 f   kernel32:KERNEL32.dll
 0002:000aef9a       _EnterCriticalSection@4    10105f9a f   kernel32:KERNEL32.dll
 0002:000aefa0       _LeaveCriticalSection@4    10105fa0 f   kernel32:KERNEL32.dll
 0002:000aefa6       _DeleteCriticalSection@4   10105fa6 f   kernel32:KERNEL32.dll
 0002:000aefac       _InitializeCriticalSectionAndSpinCount@8 10105fac f   kernel32:KERNEL32.dll
 0002:000aefb2       _TlsAlloc@0                10105fb2 f   kernel32:KERNEL32.dll
 0002:000aefb8       _TlsGetValue@4             10105fb8 f   kernel32:KERNEL32.dll
 0002:000aefbe       _TlsSetValue@8             10105fbe f   kernel32:KERNEL32.dll
 0002:000aefc4       _TlsFree@4                 10105fc4 f   kernel32:KERNEL32.dll
 0002:000aefca       _EncodePointer@4           10105fca f   kernel32:KERNEL32.dll
 0002:000aefd0       _GetModuleHandleExW@12     10105fd0 f   kernel32:KERNEL32.dll
 0002:000aefd6       _ExitProcess@4             10105fd6 f   kernel32:KERNEL32.dll
 0002:000aefdc       _HeapValidate@12           10105fdc f   kernel32:KERNEL32.dll
 0002:000aefe2       _GetSystemInfo@4           10105fe2 f   kernel32:KERNEL32.dll
 0002:000aefe8       _GetStdHandle@4            10105fe8 f   kernel32:KERNEL32.dll
 0002:000aefee       _GetFileType@4             10105fee f   kernel32:KERNEL32.dll
 0002:000aeff4       _WriteFile@20              10105ff4 f   kernel32:KERNEL32.dll
 0002:000aeffa       _OutputDebugStringW@4      10105ffa f   kernel32:KERNEL32.dll
 0002:000af000       _WriteConsoleW@20          10106000 f   kernel32:KERNEL32.dll
 0002:000af006       _SetConsoleCtrlHandler@8   10106006 f   kernel32:KERNEL32.dll
 0002:000af00c       _GetCurrentThread@0        1010600c f   kernel32:KERNEL32.dll
 0002:000af012       _FindClose@4               10106012 f   kernel32:KERNEL32.dll
 0002:000af018       _FindFirstFileExW@24       10106018 f   kernel32:KERNEL32.dll
 0002:000af01e       _FindNextFileW@8           1010601e f   kernel32:KERNEL32.dll
 0002:000af024       _IsValidCodePage@4         10106024 f   kernel32:KERNEL32.dll
 0002:000af02a       _GetACP@0                  1010602a f   kernel32:KERNEL32.dll
 0002:000af030       _GetOEMCP@0                10106030 f   kernel32:KERNEL32.dll
 0002:000af036       _GetCPInfo@8               10106036 f   kernel32:KERNEL32.dll
 0002:000af03c       _GetCommandLineA@0         1010603c f   kernel32:KERNEL32.dll
 0002:000af042       _GetCommandLineW@0         10106042 f   kernel32:KERNEL32.dll
 0002:000af048       _GetEnvironmentStringsW@0  10106048 f   kernel32:KERNEL32.dll
 0002:000af04e       _FreeEnvironmentStringsW@4 1010604e f   kernel32:KERNEL32.dll
 0002:000af054       _SetEnvironmentVariableW@8 10106054 f   kernel32:KERNEL32.dll
 0002:000af05a       _GetTempPathW@8            1010605a f   kernel32:KERNEL32.dll
 0002:000af060       _FlsAlloc@4                10106060 f   kernel32:KERNEL32.dll
 0002:000af066       _FlsGetValue@4             10106066 f   kernel32:KERNEL32.dll
 0002:000af06c       _FlsSetValue@8             1010606c f   kernel32:KERNEL32.dll
 0002:000af072       _FlsFree@4                 10106072 f   kernel32:KERNEL32.dll
 0002:000af078       _IsThreadAFiber@0          10106078 f   kernel32:KERNEL32.dll
 0002:000af07e       _InitializeCriticalSectionEx@12 1010607e f   kernel32:KERNEL32.dll
 0002:000af084       _VirtualProtect@16         10106084 f   kernel32:KERNEL32.dll
 0002:000af08a       _GetDateFormatW@24         1010608a f   kernel32:KERNEL32.dll
 0002:000af090       _GetTimeFormatW@24         10106090 f   kernel32:KERNEL32.dll
 0002:000af096       _CompareStringW@24         10106096 f   kernel32:KERNEL32.dll
 0002:000af09c       _LCMapStringW@24           1010609c f   kernel32:KERNEL32.dll
 0002:000af0a2       _GetLocaleInfoW@16         101060a2 f   kernel32:KERNEL32.dll
 0002:000af0a8       _IsValidLocale@8           101060a8 f   kernel32:KERNEL32.dll
 0002:000af0ae       _GetUserDefaultLCID@0      101060ae f   kernel32:KERNEL32.dll
 0002:000af0b4       _EnumSystemLocalesW@8      101060b4 f   kernel32:KERNEL32.dll
 0002:000af0ba       _HeapReAlloc@16            101060ba f   kernel32:KERNEL32.dll
 0002:000af0c0       _HeapSize@12               101060c0 f   kernel32:KERNEL32.dll
 0002:000af0c6       _HeapQueryInformation@20   101060c6 f   kernel32:KERNEL32.dll
 0002:000af0cc       _GetFileSizeEx@8           101060cc f   kernel32:KERNEL32.dll
 0002:000af0d2       _SetFilePointerEx@20       101060d2 f   kernel32:KERNEL32.dll
 0002:000af0d8       _GetStringTypeW@16         101060d8 f   kernel32:KERNEL32.dll
 0002:000af0de       _SetStdHandle@8            101060de f   kernel32:KERNEL32.dll
 0002:000af0e4       _FlushFileBuffers@4        101060e4 f   kernel32:KERNEL32.dll
 0002:000af0ea       _GetConsoleOutputCP@0      101060ea f   kernel32:KERNEL32.dll
 0002:000af0f0       _GetConsoleMode@8          101060f0 f   kernel32:KERNEL32.dll
 0002:000af0f6       _DecodePointer@4           101060f6 f   kernel32:KERNEL32.dll
 0002:000af0fc       _CloseHandle@4             101060fc f   kernel32:KERNEL32.dll
 0002:000af102       _ReadFile@20               10106102 f   kernel32:KERNEL32.dll
 0002:000af108       _ReadConsoleW@20           10106108 f   kernel32:KERNEL32.dll
 0002:000af10e       _CreateFileW@28            1010610e f   kernel32:KERNEL32.dll
 0002:000af120       __FindPESection            10106120 f   LIBCMTD:pesect.obj
 0002:000af1b0       __IsNonwritableInCurrentImage 101061b0 f   LIBCMTD:pesect.obj
 0002:000af330       __ValidateImageBase        10106330 f   LIBCMTD:pesect.obj
 0002:000af3b0       ??1type_info@@UAE@XZ       101063b0 f   LIBCMTD:std_type_info_static.obj
 0002:000af3d0       ??_Etype_info@@UAEPAXI@Z   101063d0 f i LIBCMTD:std_type_info_static.obj
 0002:000af3d0       ??_Gtype_info@@UAEPAXI@Z   101063d0 f i LIBCMTD:std_type_info_static.obj
 0002:000af410       __allshl                   10106410 f   LIBCMTD:llshl.obj
 0002:000af440       __aulldiv                  10106440 f   LIBCMTD:ulldiv.obj
 0002:000af4d0       __aullrem                  101064d0 f   LIBCMTD:ullrem.obj
 0002:000af570       ??3@YAXPAXI@Z              10106570 f   LIBCMTD:delete_scalar_size.obj
 0002:000af590       __alloca_probe             10106590 f   LIBCMTD:chkstk.obj
 0002:000af590       __chkstk                   10106590 f   LIBCMTD:chkstk.obj
 0002:000af5d0       __allmul                   101065d0 f   LIBCMTD:llmul.obj
 0002:000af620       __alldiv                   10106620 f   LIBCMTD:lldiv.obj
 0002:000af700       __allrem                   10106700 f   LIBCMTD:llrem.obj
 0002:000af7e0       __aullshr                  101067e0 f   LIBCMTD:ullshr.obj
 0002:000af810       __alloca_probe_16          10106810 f   LIBCMTD:alloca16.obj
 0002:000af826       __alloca_probe_8           10106826     LIBCMTD:alloca16.obj
 0002:000af850       __ftol2_sse_excpt          10106850 f   LIBCMTD:ftol2.obj
 0002:000af860       __ftol2_sse                10106860 f   LIBCMTD:ftol2.obj
 0002:000af870       __ftoi2                    10106870 f   LIBCMTD:ftol2.obj
 0002:000af910       __ftoui2                   10106910 f   LIBCMTD:ftol2.obj
 0002:000af9e0       __ftol2                    101069e0 f   LIBCMTD:ftol2.obj
 0002:000afac0       __ftoul2                   10106ac0 f   LIBCMTD:ftol2.obj
 0002:000afbb0       __ftoul2_legacy            10106bb0 f   LIBCMTD:ftol2.obj
 0002:000afbd0       __initialize_default_precision 10106bd0 f   LIBCMTD:default_precision.obj
 0002:000afc00       ??3@YAXPAX@Z               10106c00 f   LIBCMTD:delete_scalar.obj
 0002:000afc20       _strrchr                   10106c20 f   libvcruntimed:strrchr.obj
 0002:000affc0       _memcmp                    10106fc0 f   libvcruntimed:memcmp.obj
 0002:000b0ac0       _strchr                    10107ac0 f   libvcruntimed:strchr.obj
 0002:000b0b2e       ___from_strstr_to_strchr   10107b2e     libvcruntimed:strchr.obj
 0002:000b0c40       _wcschr                    10107c40 f   libvcruntimed:wcschr.obj
 0002:000b0e00       __filter_x86_sse2_floating_point_exception 10107e00 f   LIBCMTD:x86_exception_filter.obj
 0002:000b0e00       __filter_x86_sse2_floating_point_exception_default 10107e00 f   LIBCMTD:x86_exception_filter.obj
 0003:00000000       ___xc_a                    1010f000     LIBCMTD:initializers.obj
 0003:00000104       ___xc_z                    1010f104     LIBCMTD:initializers.obj
 0003:00000208       ___xi_a                    1010f208     LIBCMTD:initializers.obj
 0003:0000030c       ___acrt_stdio_initializer  1010f30c     libucrtd:stdio_initializer.obj
 0003:00000310       ___acrt_multibyte_initializer 1010f310     libucrtd:multibyte_initializer.obj
 0003:00000314       ___acrt_tran_sse2_initializer 1010f314     libucrtd:sse2_initializer.obj
 0003:0000041c       ___xi_z                    1010f41c     LIBCMTD:initializers.obj
 0003:00000520       ___xp_a                    1010f520     LIBCMTD:initializers.obj
 0003:00000624       ___acrt_locale_terminator  1010f624     libucrtd:locale_initializer.obj
 0003:00000628       ___dcrt_console_output_terminator 1010f628     libucrtd:console_output_initializer.obj
 0003:00000730       ___acrt_stdio_terminator   1010f730     libucrtd:stdio_initializer.obj
 0003:00000834       ___xp_z                    1010f834     LIBCMTD:initializers.obj
 0003:00000938       ___xt_a                    1010f938     LIBCMTD:initializers.obj
 0003:00000a3c       ___xt_z                    1010fa3c     LIBCMTD:initializers.obj
 0003:00000b40       __pDefaultRawDllMain       1010fb40     LIBCMTD:dll_dllmain.obj
 0003:00000b40       __pRawDllMain              1010fb40     LIBCMTD:dll_dllmain.obj
 0003:00000c00       ??_C@_0NN@JMPELKLB@The?5value?5of?5ESP?5was?5not?5proper@ 1010fc00     LIBCMTD:error.obj
 0003:00000d10       ??_C@_0BBN@ELNNILBE@A?5cast?5to?5a?5smaller?5data?5type?5h@ 1010fd10     LIBCMTD:error.obj
 0003:00000e68       ??_C@_0BN@BPOGFMJL@Stack?5memory?5was?5corrupted?$AN?6@ 1010fe68     LIBCMTD:error.obj
 0003:00000e8c       ??_C@_0DG@DAJCDLPN@A?5local?5variable?5was?5used?5befor@ 1010fe8c     LIBCMTD:error.obj
 0003:00000ecc       ??_C@_0CM@JMIDGKLA@Stack?5memory?5around?5_alloca?5was@ 1010fecc     LIBCMTD:error.obj
 0003:00000f00       ??_C@_0BO@CHIONIOI@Unknown?5Runtime?5Check?5Error?$AN?6@ 1010ff00     LIBCMTD:error.obj
 0003:00000f28       ??_C@_1GM@CNOOJIHC@?$AAR?$AAu?$AAn?$AAt?$AAi?$AAm?$AAe?$AA?5?$AAC?$AAh?$AAe?$AAc?$AAk?$AA?5?$AAE@ 1010ff28     LIBCMTD:error.obj
 0003:00000fb0       ??_C@_1EA@NFKNIFJP@?$AAR?$AAu?$AAn?$AA?9?$AAT?$AAi?$AAm?$AAe?$AA?5?$AAC?$AAh?$AAe?$AAc?$AAk?$AA?5@ 1010ffb0     LIBCMTD:error.obj
 0003:00000ffc       ??_C@_0BB@PFFGGCJP@Unknown?5Filename@ 1010fffc     LIBCMTD:error.obj
 0003:00001010       ??_C@_0BE@GNBOBNCK@Unknown?5Module?5Name@ 10110010     LIBCMTD:error.obj
 0003:00001028       ??_C@_0CA@IODNCDPG@Run?9Time?5Check?5Failure?5?$CD?$CFd?5?9?5?$CFs@ 10110028     LIBCMTD:error.obj
 0003:00001050       ??_C@_0CG@IAFNJNEE@Stack?5corrupted?5near?5unknown?5va@ 10110050     LIBCMTD:error.obj
 0003:00001080       ??_C@_05MKKEDADM@?$CF?42X?5@ 10110080     LIBCMTD:error.obj
 0003:00001088       ??_C@_0EJ@LJKNEOLN@Stack?5area?5around?5_alloca?5memor@ 10110088     LIBCMTD:error.obj
 0003:000010e0       ??_C@_01EEMJAFIK@?6@       101100e0     LIBCMTD:error.obj
 0003:000010e4       ??_C@_02LLMPMKNF@?$DO?5@   101100e4     LIBCMTD:error.obj
 0003:000010e8       ??_C@_08OMAHNMHJ@?6Data?3?5?$DM@ 101100e8     LIBCMTD:error.obj
 0003:000010f4       ??_C@_0CK@DKGBICFE@?6Allocation?5number?5within?5this?5@ 101100f4     LIBCMTD:error.obj
 0003:00001128       ??_C@_07DFDJCKFN@?6Size?3?5@ 10110128     LIBCMTD:error.obj
 0003:00001134       ??_C@_0N@MHFFIMFG@?6Address?3?50x@ 10110134     LIBCMTD:error.obj
 0003:00001148       ??_C@_0EI@CLEPFNGI@Stack?5area?5around?5_alloca?5memor@ 10110148     LIBCMTD:error.obj
 0003:000011a0       ??_C@_0BK@ODNDAGKB@?$CFs?$CFs?$CFp?$CFs?$CFzd?$CFs?$CFd?$CFs?$CFs?$CFs?$CFs?$CFs@ 101101a0     LIBCMTD:error.obj
 0003:000011c0       ??_C@_0DE@OHJBPMBP@A?5variable?5is?5being?5used?5withou@ 101101c0     LIBCMTD:error.obj
 0003:00001218       ??_C@_0BJ@HEGAHDFO@Stack?5pointer?5corruption@ 10110218     LIBCMTD:userapi.obj
 0003:00001238       ??_C@_0CK@FEGOIOPB@Cast?5to?5smaller?5type?5causing?5lo@ 10110238     LIBCMTD:userapi.obj
 0003:0000126c       ??_C@_0BI@CIGMDCBH@Stack?5memory?5corruption@ 1011026c     LIBCMTD:userapi.obj
 0003:00001288       ??_C@_0CK@CNLNOEPB@Local?5variable?5used?5before?5init@ 10110288     LIBCMTD:userapi.obj
 0003:000012bc       ??_C@_0BP@OGBCLIBO@Stack?5around?5_alloca?5corrupted@ 101102bc     LIBCMTD:userapi.obj
 0003:00001340       ??_C@_1EI@MLPKHBGE@?$AAa?$AAp?$AAi?$AA?9?$AAm?$AAs?$AA?9?$AAw?$AAi?$AAn?$AA?9?$AAc?$AAo?$AAr?$AAe@ 10110340     LIBCMTD:pdblkup.obj
 0003:00001398       ??_C@_1BK@JHLNAEJL@?$AAa?$AAd?$AAv?$AAa?$AAp?$AAi?$AA3?$AA2?$AA?4?$AAd?$AAl?$AAl@ 10110398     LIBCMTD:pdblkup.obj
 0003:000013b8       ??_C@_0O@COHOBMLB@RegOpenKeyExW@ 101103b8     LIBCMTD:pdblkup.obj
 0003:000013c8       ??_C@_0BB@GLNAEDBD@RegQueryValueExW@ 101103c8     LIBCMTD:pdblkup.obj
 0003:000013dc       ??_C@_0M@HLOHPNFA@RegCloseKey@ 101103dc     LIBCMTD:pdblkup.obj
 0003:000013f0       ??_C@_1HE@EBEAGLFB@?$AAS?$AAO?$AAF?$AAT?$AAW?$AAA?$AAR?$AAE?$AA?2?$AAW?$AAo?$AAw?$AA6?$AA4?$AA3@ 101103f0     LIBCMTD:pdblkup.obj
 0003:0000147c       ??_C@_1BG@EABPBLLF@?$AAP?$AAr?$AAo?$AAd?$AAu?$AAc?$AAt?$AAD?$AAi?$AAr@ 1011047c     LIBCMTD:pdblkup.obj
 0003:000014bc       ??_C@_1BC@JINFINNJ@?$AAM?$AAS?$AAP?$AAD?$AAB?$AA1?$AA4?$AA0@ 101104bc     LIBCMTD:pdblkup.obj
 0003:000014d4       ??_C@_0BB@KCIACLNC@PDBOpenValidate5@ 101104d4     LIBCMTD:pdblkup.obj
 0003:000014e8       ??_C@_01KDCPPGHE@r@        101104e8     LIBCMTD:pdblkup.obj
 0003:000014f8       ??_C@_0EC@CDJPIOJK@D?3?2a?2_work?21?2s?2src?2vctools?2crt?2@ 101104f8     libvcruntimed:std_type_info.obj
 0003:00001548       __pDestructExceptionObject 10110548     libvcruntimed:ehhelpers.obj
 0003:0000198c       ??_C@_08EHJDFFNH@__based?$CI@ 1011098c     libvcruntimed:undname.obj
 0003:00001998       ??_C@_07KOLFKCDI@__cdecl@  10110998     libvcruntimed:undname.obj
 0003:000019a4       ??_C@_08GHMPAG@__pascal@   101109a4     libvcruntimed:undname.obj
 0003:000019b0       ??_C@_09IFJBGAPI@__stdcall@ 101109b0     libvcruntimed:undname.obj
 0003:000019bc       ??_C@_0L@NPHFGOKO@__thiscall@ 101109bc     libvcruntimed:undname.obj
 0003:000019cc       ??_C@_0L@JMKHOMEK@__fastcall@ 101109cc     libvcruntimed:undname.obj
 0003:000019dc       ??_C@_0N@BCKKPABJ@__vectorcall@ 101109dc     libvcruntimed:undname.obj
 0003:000019ec       ??_C@_09HIJEGCPM@__clrcall@ 101109ec     libvcruntimed:undname.obj
 0003:000019f8       ??_C@_06GHPCKEAG@__eabi@   101109f8     libvcruntimed:undname.obj
 0003:00001a00       ??_C@_09IOPIDJLG@__swift_1@ 10110a00     libvcruntimed:undname.obj
 0003:00001a0c       ??_C@_09KFNFGKHF@__swift_2@ 10110a0c     libvcruntimed:undname.obj
 0003:00001a18       ??_C@_09LMMOFLDE@__swift_3@ 10110a18     libvcruntimed:undname.obj
 0003:00001a24       ??_C@_07JOMMBBKO@__ptr64@  10110a24     libvcruntimed:undname.obj
 0003:00001a30       ??_C@_0L@PILCLIHE@__restrict@ 10110a30     libvcruntimed:undname.obj
 0003:00001a40       ??_C@_0M@GFIIJFMG@__unaligned@ 10110a40     libvcruntimed:undname.obj
 0003:00001a50       ??_C@_09DHDLOLLB@restrict?$CI@ 10110a50     libvcruntimed:undname.obj
 0003:00001a5c       ??_C@_00CNPNBAHC@@         10110a5c     libvcruntimed:undname.obj
 0003:00001a60       ??_C@_04NIHEBCM@?5new@     10110a60     libvcruntimed:undname.obj
 0003:00001a68       ??_C@_07FPCDHGMM@?5delete@ 10110a68     libvcruntimed:undname.obj
 0003:00001a74       ??_C@_01NEMOKFLO@?$DN@     10110a74     libvcruntimed:undname.obj
 0003:00001a78       ??_C@_02GPIOPFAK@?$DO?$DO@ 10110a78     libvcruntimed:undname.obj
 0003:00001a7c       ??_C@_02FODMEDOG@?$DM?$DM@ 10110a7c     libvcruntimed:undname.obj
 0003:00001a80       ??_C@_01DCLJPIOD@?$CB@     10110a80     libvcruntimed:undname.obj
 0003:00001a84       ??_C@_02EGOFBIJA@?$DN?$DN@ 10110a84     libvcruntimed:undname.obj
 0003:00001a88       ??_C@_02FDNJECIE@?$CB?$DN@ 10110a88     libvcruntimed:undname.obj
 0003:00001a8c       ??_C@_02GPECMEKF@?$FL?$FN@ 10110a8c     libvcruntimed:undname.obj
 0003:00001a90       ??_C@_08LHJFAFGD@operator@ 10110a90     libvcruntimed:undname.obj
 0003:00001a9c       ??_C@_02HBOOOICD@?9?$DO@   10110a9c     libvcruntimed:undname.obj
 0003:00001aa0       ??_C@_01NBENCBCI@?$CK@     10110aa0     libvcruntimed:undname.obj
 0003:00001aa4       ??_C@_02ECNGHCIF@?$CL?$CL@ 10110aa4     libvcruntimed:undname.obj
 0003:00001aa8       ??_C@_02BAABKJLB@?9?9@     10110aa8     libvcruntimed:undname.obj
 0003:00001aac       ??_C@_01JOAMLHOP@?9@       10110aac     libvcruntimed:undname.obj
 0003:00001ab0       ??_C@_01MIFGBAGJ@?$CL@     10110ab0     libvcruntimed:undname.obj
 0003:00001ab4       ??_C@_01HNPIGOCE@?$CG@     10110ab4     libvcruntimed:undname.obj
 0003:00001ab8       ??_C@_03MNHNFDLC@?9?$DO?$CK@ 10110ab8     libvcruntimed:undname.obj
 0003:00001abc       ??_C@_01KMDKNFGN@?1@       10110abc     libvcruntimed:undname.obj
 0003:00001ac0       ??_C@_01FGNFDNOH@?$CF@     10110ac0     libvcruntimed:undname.obj
 0003:00001ac4       ??_C@_01MNNFJEPP@?$DM@     10110ac4     libvcruntimed:undname.obj
 0003:00001ac8       ??_C@_02EHCHHCKH@?$DM?$DN@ 10110ac8     libvcruntimed:undname.obj
 0003:00001acc       ??_C@_01PPODPGHN@?$DO@     10110acc     libvcruntimed:undname.obj
 0003:00001ad0       ??_C@_02EEKDKGMJ@?$DO?$DN@ 10110ad0     libvcruntimed:undname.obj
 0003:00001ad4       ??_C@_01IHBHIGKO@?0@       10110ad4     libvcruntimed:undname.obj
 0003:00001ad8       ??_C@_02HCKGKOFO@?$CI?$CJ@ 10110ad8     libvcruntimed:undname.obj
 0003:00001adc       ??_C@_01PJKLJHI@?$HO@      10110adc     libvcruntimed:undname.obj
 0003:00001ae0       ??_C@_01JKBOJNNK@?$FO@     10110ae0     libvcruntimed:undname.obj
 0003:00001ae4       ??_C@_01DNKMNLPK@?$HM@     10110ae4     libvcruntimed:undname.obj
 0003:00001ae8       ??_C@_02PPKAJPJL@?$CG?$CG@ 10110ae8     libvcruntimed:undname.obj
 0003:00001aec       ??_C@_02NONPIBCD@?$HM?$HM@ 10110aec     libvcruntimed:undname.obj
 0003:00001af0       ??_C@_02FPIMKNGF@?$CK?$DN@ 10110af0     libvcruntimed:undname.obj
 0003:00001af4       ??_C@_02FOEOMHFC@?$CL?$DN@ 10110af4     libvcruntimed:undname.obj
 0003:00001af8       ??_C@_02FKMDLLOA@?9?$DN@   10110af8     libvcruntimed:undname.obj
 0003:00001afc       ??_C@_02FJEHGPIO@?1?$DN@   10110afc     libvcruntimed:undname.obj
 0003:00001b00       ??_C@_02FENAOKFI@?$CF?$DN@ 10110b00     libvcruntimed:undname.obj
 0003:00001b04       ??_C@_03IKFCCPFF@?$DO?$DO?$DN@ 10110b04     libvcruntimed:undname.obj
 0003:00001b08       ??_C@_03CDNPDDLA@?$DM?$DM?$DN@ 10110b08     libvcruntimed:undname.obj
 0003:00001b0c       ??_C@_02FGJGFEAB@?$CG?$DN@ 10110b0c     libvcruntimed:undname.obj
 0003:00001b10       ??_C@_02DHLNPPGH@?$HM?$DN@ 10110b10     libvcruntimed:undname.obj
 0003:00001b14       ??_C@_02MHEGNOJ@?$FO?$DN@  10110b14     libvcruntimed:undname.obj
 0003:00001b18       ??_C@_09IFPLHPGF@?$GAvftable?8@ 10110b18     libvcruntimed:undname.obj
 0003:00001b24       ??_C@_09BLBHBJP@?$GAvbtable?8@ 10110b24     libvcruntimed:undname.obj
 0003:00001b30       ??_C@_07FEEIOKP@?$GAvcall?8@ 10110b30     libvcruntimed:undname.obj
 0003:00001b3c       ??_C@_08LLFFHHDJ@?$GAtypeof?8@ 10110b3c     libvcruntimed:undname.obj
 0003:00001b48       ??_C@_0BF@KDPPACIK@?$GAlocal?5static?5guard?8@ 10110b48     libvcruntimed:undname.obj
 0003:00001b64       ??_C@_08OBABFOLI@?$GAstring?8@ 10110b64     libvcruntimed:undname.obj
 0003:00001b70       ??_C@_0BD@JDLKDPAB@?$GAvbase?5destructor?8@ 10110b70     libvcruntimed:undname.obj
 0003:00001b88       ??_C@_0BN@DEGPLNFK@?$GAvector?5deleting?5destructor?8@ 10110b88     libvcruntimed:undname.obj
 0003:00001bac       ??_C@_0BO@OBMKPJIG@?$GAdefault?5constructor?5closure?8@ 10110bac     libvcruntimed:undname.obj
 0003:00001bd0       ??_C@_0BN@IMDCHIKM@?$GAscalar?5deleting?5destructor?8@ 10110bd0     libvcruntimed:undname.obj
 0003:00001bf4       ??_C@_0BO@PFGOCPJJ@?$GAvector?5constructor?5iterator?8@ 10110bf4     libvcruntimed:undname.obj
 0003:00001c18       ??_C@_0BN@LFPFMEDL@?$GAvector?5destructor?5iterator?8@ 10110c18     libvcruntimed:undname.obj
 0003:00001c3c       ??_C@_0CE@IKBNEHA@?$GAvector?5vbase?5constructor?5itera@ 10110c3c     libvcruntimed:undname.obj
 0003:00001c68       ??_C@_0BL@NILFHHPC@?$GAvirtual?5displacement?5map?8@ 10110c68     libvcruntimed:undname.obj
 0003:00001c88       ??_C@_0CB@JONCMFFK@?$GAeh?5vector?5constructor?5iterator@ 10110c88     libvcruntimed:undname.obj
 0003:00001cb0       ??_C@_0CA@GCEOPDGL@?$GAeh?5vector?5destructor?5iterator?8@ 10110cb0     libvcruntimed:undname.obj
 0003:00001cd8       ??_C@_0CH@OOJPLCPH@?$GAeh?5vector?5vbase?5constructor?5it@ 10110cd8     libvcruntimed:undname.obj
 0003:00001d08       ??_C@_0BL@LLKPOHJI@?$GAcopy?5constructor?5closure?8@ 10110d08     libvcruntimed:undname.obj
 0003:00001d28       ??_C@_0BA@KBCDOMBN@?$GAudt?5returning?8@ 10110d28     libvcruntimed:undname.obj
 0003:00001d3c       ??_C@_03KLGMFNMG@?$GAEH@   10110d3c     libvcruntimed:undname.obj
 0003:00001d40       ??_C@_05KHLCHHI@?$GARTTI@  10110d40     libvcruntimed:undname.obj
 0003:00001d48       ??_C@_0BA@KKLDJDLB@?$GAlocal?5vftable?8@ 10110d48     libvcruntimed:undname.obj
 0003:00001d5c       ??_C@_0CE@IIHCMGGL@?$GAlocal?5vftable?5constructor?5clos@ 10110d5c     libvcruntimed:undname.obj
 0003:00001d88       ??_C@_06FHBGPFGH@?5new?$FL?$FN@ 10110d88     libvcruntimed:undname.obj
 0003:00001d90       ??_C@_09LBNFPBCA@?5delete?$FL?$FN@ 10110d90     libvcruntimed:undname.obj
 0003:00001d9c       ??_C@_0P@HJKNJFNN@?$GAomni?5callsig?8@ 10110d9c     libvcruntimed:undname.obj
 0003:00001db0       ??_C@_0BL@CNOONJFP@?$GAplacement?5delete?5closure?8@ 10110db0     libvcruntimed:undname.obj
 0003:00001dd0       ??_C@_0BN@CKNJLHMB@?$GAplacement?5delete?$FL?$FN?5closure?8@ 10110dd0     libvcruntimed:undname.obj
 0003:00001df4       ??_C@_0CG@CFDHKGGD@?$GAmanaged?5vector?5constructor?5ite@ 10110df4     libvcruntimed:undname.obj
 0003:00001e24       ??_C@_0CF@IMGKMJNO@?$GAmanaged?5vector?5destructor?5iter@ 10110e24     libvcruntimed:undname.obj
 0003:00001e50       ??_C@_0CG@HLDDJMAG@?$GAeh?5vector?5copy?5constructor?5ite@ 10110e50     libvcruntimed:undname.obj
 0003:00001e80       ??_C@_0CM@FCBBDIGB@?$GAeh?5vector?5vbase?5copy?5construct@ 10110e80     libvcruntimed:undname.obj
 0003:00001eb4       ??_C@_0BL@CLIPGLGB@?$GAdynamic?5initializer?5for?5?8@ 10110eb4     libvcruntimed:undname.obj
 0003:00001ed4       ??_C@_0CB@PDBIFEP@?$GAdynamic?5atexit?5destructor?5for?5@ 10110ed4     libvcruntimed:undname.obj
 0003:00001efc       ??_C@_0CD@CGAJBKEJ@?$GAvector?5copy?5constructor?5iterat@ 10110efc     libvcruntimed:undname.obj
 0003:00001f28       ??_C@_0CJ@GJELGAMM@?$GAvector?5vbase?5copy?5constructor?5@ 10110f28     libvcruntimed:undname.obj
 0003:00001f5c       ??_C@_0CL@FGIJHLCE@?$GAmanaged?5vector?5copy?5constructo@ 10110f5c     libvcruntimed:undname.obj
 0003:00001f90       ??_C@_0BM@PMGGMLDN@?$GAlocal?5static?5thread?5guard?8@ 10110f90     libvcruntimed:undname.obj
 0003:00001fb4       ??_C@_0N@BDNMDMOL@operator?5?$CC?$CC?5@ 10110fb4     libvcruntimed:undname.obj
 0003:00001fc4       ??_C@_0BC@GGEBGALA@operator?5co_await@ 10110fc4     libvcruntimed:undname.obj
 0003:00001fdc       ??_C@_0M@GAAIMMOH@operator?$DM?$DN?$DO@ 10110fdc     libvcruntimed:undname.obj
 0003:00001fec       ??_C@_0BC@DAFEJGAK@?5Type?5Descriptor?8@ 10110fec     libvcruntimed:undname.obj
 0003:00002004       ??_C@_0BM@LDKODKLH@?5Base?5Class?5Descriptor?5at?5?$CI@ 10111004     libvcruntimed:undname.obj
 0003:00002028       ??_C@_0BD@LGICGFMM@?5Base?5Class?5Array?8@ 10111028     libvcruntimed:undname.obj
 0003:00002040       ??_C@_0BN@MECKDCOJ@?5Class?5Hierarchy?5Descriptor?8@ 10111040     libvcruntimed:undname.obj
 0003:00002064       ??_C@_0BK@CFCOFLF@?5Complete?5Object?5Locator?8@ 10111064     libvcruntimed:undname.obj
 0003:00002084       ??_C@_0BG@JNJLAMPM@?$GAanonymous?5namespace?8@ 10111084     libvcruntimed:undname.obj
 0003:0000209e       ?in_place@std@@3Uin_place_t@1@B 1011109e     libvcruntimed:undname.obj
 0003:000020a0       ??_C@_04HEJADOOB@CV?3?5@   101110a0     libvcruntimed:undname.obj
 0003:000020a8       ??_C@_03GDILBHBJ@$$h@      101110a8     libvcruntimed:undname.obj
 0003:000020ac       ??_C@_02MOLJINC@?3?3@      101110ac     libvcruntimed:undname.obj
 0003:000020b0       ??_C@_0BE@JAEOCHPE@template?9parameter?9@ 101110b0     libvcruntimed:undname.obj
 0003:000020c8       ??_C@_0BF@LNLGBBNL@?$GAtemplate?9parameter?9@ 101110c8     libvcruntimed:undname.obj
 0003:000020e4       ??_C@_0O@KHGCOMHP@generic?9type?9@ 101110e4     libvcruntimed:undname.obj
 0003:000020f4       ??_C@_0P@ODDENDLM@?$GAgeneric?9type?9@ 101110f4     libvcruntimed:undname.obj
 0003:00002108       ??_C@_02OHHJMEON@?8?8@     10111108     libvcruntimed:undname.obj
 0003:0000210c       ??_C@_0BN@IBLMMFAP@?$GAnon?9type?9template?9parameter@ 1011110c     libvcruntimed:undname.obj
 0003:00002130       ??_C@_03DLDNIBIK@?$CFlf@   10111130     libvcruntimed:undname.obj
 0003:00002134       ??_C@_04OFALKAJ@?$DP?$DP_C@ 10111134     libvcruntimed:undname.obj
 0003:0000213c       ??_C@_03KHICJKCI@?4?4?4@   1011113c     libvcruntimed:undname.obj
 0003:00002140       ??_C@_04HIBGFPH@NULL@      10111140     libvcruntimed:undname.obj
 0003:00002148       ??_C@_02DPKJAMEF@?$CFd@    10111148     libvcruntimed:undname.obj
 0003:0000214c       ??_C@_0BK@IHCCFNEL@?$GAtemplate?9type?9parameter?9@ 1011114c     libvcruntimed:undname.obj
 0003:0000216c       ??_C@_0BK@OFCNNNKO@?$GAgeneric?9class?9parameter?9@ 1011116c     libvcruntimed:undname.obj
 0003:0000218c       ??_C@_0BL@NGJBLFIL@?$GAgeneric?9method?9parameter?9@ 1011118c     libvcruntimed:undname.obj
 0003:000021ac       ??_C@_07OHNGEDJK@nullptr@  101111ac     libvcruntimed:undname.obj
 0003:000021b8       ??_C@_06COJIGPIB@lambda@   101111b8     libvcruntimed:undname.obj
 0003:000021c0       ??_C@_04GKJNKENE@void@     101111c0     libvcruntimed:undname.obj
 0003:000021c8       ??_C@_0BE@EODMJLIF@?$GAtemplate?9parameter@ 101111c8     libvcruntimed:undname.obj
 0003:000021e0       ??_C@_03OPGICMGF@?$HN?8?5@ 101111e0     libvcruntimed:undname.obj
 0003:000021e4       ??_C@_02IGFCGPIL@?$HN?8@   101111e4     libvcruntimed:undname.obj
 0003:000021e8       ??_C@_0N@CBHHHENL@?$GAvtordispex?$HL@ 101111e8     libvcruntimed:undname.obj
 0003:000021f8       ??_C@_0L@GHPFDFH@?$GAvtordisp?$HL@ 101111f8     libvcruntimed:undname.obj
 0003:00002208       ??_C@_0L@HNGCOGAE@?$GAadjustor?$HL@ 10111208     libvcruntimed:undname.obj
 0003:00002218       ??_C@_0CB@KJDOOODE@?$GAlocal?5static?5destructor?5helper@ 10111218     libvcruntimed:undname.obj
 0003:00002240       ??_C@_0DB@ILEFOCIJ@?$GAtemplate?5static?5data?5member?5co@ 10111240     libvcruntimed:undname.obj
 0003:0000227c       ??_C@_0DA@HGFJFBBE@?$GAtemplate?5static?5data?5member?5de@ 1011127c     libvcruntimed:undname.obj
 0003:000022b8       ??_C@_07PGOEDBHP@static?5@ 101112b8     libvcruntimed:undname.obj
 0003:000022c4       ??_C@_08NIEOINHE@virtual?5@ 101112c4     libvcruntimed:undname.obj
 0003:000022d0       ??_C@_09LAPHOOG@private?3?5@ 101112d0     libvcruntimed:undname.obj
 0003:000022dc       ??_C@_0M@GAIFPFIP@protected?3?5@ 101112dc     libvcruntimed:undname.obj
 0003:000022ec       ??_C@_08GPDDCMKI@public?3?5@ 101112ec     libvcruntimed:undname.obj
 0003:000022f8       ??_C@_08KJLFOPNE@?$FLthunk?$FN?3@ 101112f8     libvcruntimed:undname.obj
 0003:00002304       ??_C@_0M@DHNBOJMP@extern?5?$CCC?$CC?5@ 10111304     libvcruntimed:undname.obj
 0003:00002314       ??_C@_02KCKGHPCA@?$CJ?5@   10111314     libvcruntimed:undname.obj
 0003:00002318       ??_C@_05CIHEBHNO@char?5@   10111318     libvcruntimed:undname.obj
 0003:00002320       ??_C@_06EHJMALKF@short?5@  10111320     libvcruntimed:undname.obj
 0003:00002328       ??_C@_04LAHKHJMA@int?5@    10111328     libvcruntimed:undname.obj
 0003:00002330       ??_C@_05CJIMAING@long?5@   10111330     libvcruntimed:undname.obj
 0003:00002338       ??_C@_09EBBEKKIH@unsigned?5@ 10111338     libvcruntimed:undname.obj
 0003:00002344       ??_C@_05BEFAKPML@void?5@   10111344     libvcruntimed:undname.obj
 0003:0000234c       ??_C@_09GAIEOBLP@volatile?5@ 1011134c     libvcruntimed:undname.obj
 0003:00002358       ??_C@_08PABEKFH@volatile@  10111358     libvcruntimed:undname.obj
 0003:00002364       ??_C@_0BA@LKIJLKPP@std?3?3nullptr_t?5@ 10111364     libvcruntimed:undname.obj
 0003:00002378       ??_C@_0P@GCOCNKDM@std?3?3nullptr_t@ 10111378     libvcruntimed:undname.obj
 0003:0000238c       ??_C@_0L@EGPHHEKN@?$DMellipsis?$DO@ 1011138c     libvcruntimed:undname.obj
 0003:0000239c       ??_C@_04EENFHACM@?0?4?4?4@ 1011139c     libvcruntimed:undname.obj
 0003:000023a4       ??_C@_0M@ELJOJFFH@?0?$DMellipsis?$DO@ 101113a4     libvcruntimed:undname.obj
 0003:000023b4       ??_C@_09DNHFEOJI@?5noexcept@ 101113b4     libvcruntimed:undname.obj
 0003:000023c0       ??_C@_03PBJBJNON@cpu@      101113c0     libvcruntimed:undname.obj
 0003:000023c4       ??_C@_03DCBBJBAA@amp@      101113c4     libvcruntimed:undname.obj
 0003:000023c8       ??_C@_02KEGNLNML@?0?5@     101113c8     libvcruntimed:undname.obj
 0003:000023cc       ??_C@_04ENMBGAPA@char@     101113cc     libvcruntimed:undname.obj
 0003:000023d4       ??_C@_05BFKKPKCG@short@    101113d4     libvcruntimed:undname.obj
 0003:000023dc       ??_C@_03JBIPMCLC@int@      101113dc     libvcruntimed:undname.obj
 0003:000023e0       ??_C@_04GOKPGOLB@long@     101113e0     libvcruntimed:undname.obj
 0003:000023e8       ??_C@_05KNFBNCOH@float@    101113e8     libvcruntimed:undname.obj
 0003:000023f0       ??_C@_06BNJCAIGJ@double@   101113f0     libvcruntimed:undname.obj
 0003:000023f8       ??_C@_04DDKJGDCM@bool@     101113f8     libvcruntimed:undname.obj
 0003:00002400       ??_C@_06EBGKOKIG@__int8@   10111400     libvcruntimed:undname.obj
 0003:00002408       ??_C@_07ICFHOGAF@__int16@  10111408     libvcruntimed:undname.obj
 0003:00002414       ??_C@_07OFLPPHGP@__int32@  10111414     libvcruntimed:undname.obj
 0003:00002420       ??_C@_07LFCOJCAC@__int64@  10111420     libvcruntimed:undname.obj
 0003:0000242c       ??_C@_08GAHOLHEO@__int128@ 1011142c     libvcruntimed:undname.obj
 0003:00002438       ??_C@_09EEKGDCPH@?$DMunknown?$DO@ 10111438     libvcruntimed:undname.obj
 0003:00002444       ??_C@_07CFHGOPCN@char8_t@  10111444     libvcruntimed:undname.obj
 0003:00002450       ??_C@_08HBIPOFJB@char16_t@ 10111450     libvcruntimed:undname.obj
 0003:0000245c       ??_C@_08IECNCBKG@char32_t@ 1011145c     libvcruntimed:undname.obj
 0003:00002468       ??_C@_07CLGGIAMF@wchar_t@  10111468     libvcruntimed:undname.obj
 0003:00002474       ??_C@_04HAPDLBFF@auto@     10111474     libvcruntimed:undname.obj
 0003:0000247c       ??_C@_0P@LHCGKIGK@decltype?$CIauto?$CJ@ 1011147c     libvcruntimed:undname.obj
 0003:00002490       ??_C@_05PCNBGHCF@this?5@   10111490     libvcruntimed:undname.obj
 0003:00002498       ??_C@_06GCICPBLB@__w64?5@  10111498     libvcruntimed:undname.obj
 0003:000024a0       ??_C@_07NFANNNEC@UNKNOWN@  101114a0     libvcruntimed:undname.obj
 0003:000024ac       ??_C@_07EDHNAJHC@signed?5@ 101114ac     libvcruntimed:undname.obj
 0003:000024b8       ??_C@_05BNCCCJPP@const@    101114b8     libvcruntimed:undname.obj
 0003:000024c0       ??_C@_09EFNPDFFP@?5volatile@ 101114c0     libvcruntimed:undname.obj
 0003:000024cc       ??_C@_0P@GCIFDJCJ@?$GAunknown?5ecsu?8@ 101114cc     libvcruntimed:undname.obj
 0003:000024e0       ??_C@_06MOJHIBMG@union?5@  101114e0     libvcruntimed:undname.obj
 0003:000024e8       ??_C@_07DIBCDNGL@struct?5@ 101114e8     libvcruntimed:undname.obj
 0003:000024f4       ??_C@_06LJBABKPM@class?5@  101114f4     libvcruntimed:undname.obj
 0003:000024fc       ??_C@_08KOFANOFK@coclass?5@ 101114fc     libvcruntimed:undname.obj
 0003:00002508       ??_C@_0N@DLIEFKNA@cointerface?5@ 10111508     libvcruntimed:undname.obj
 0003:00002518       ??_C@_05LJGMCFOG@enum?5@   10111518     libvcruntimed:undname.obj
 0003:00002520       ??_C@_06LIJLOJAG@const?5@  10111520     libvcruntimed:undname.obj
 0003:00002528       ??_C@_02KJPKDIBN@?$CG?5@   10111528     libvcruntimed:undname.obj
 0003:0000252c       ??_C@_03PCKGMOPB@?$CG?$CG?5@ 1011152c     libvcruntimed:undname.obj
 0003:00002530       ??_C@_0M@EALIELKG@cli?3?3array?$DM@ 10111530     libvcruntimed:undname.obj
 0003:00002540       ??_C@_0O@GKABPPIF@cli?3?3pin_ptr?$DM@ 10111540     libvcruntimed:undname.obj
 0003:00002550       ??_C@_02GOGNNPBN@?$CJ?$FL@ 10111550     libvcruntimed:undname.obj
 0003:00002554       ??_C@_06EEGAIFAK@?$HLflat?$HN@ 10111554     libvcruntimed:undname.obj
 0003:0000255c       ??_C@_05JIBOFOHK@?$HLfor?5@ 1011155c     libvcruntimed:undname.obj
 0003:00002564       ??_C@_02MDINNEEG@s?5@      10111564     libvcruntimed:undname.obj
 0003:0000256c       ??_7DNameNode@@6B@         1011156c     libvcruntimed:undname.obj
 0003:00002584       ??_7charNode@@6B@          10111584     libvcruntimed:undname.obj
 0003:0000259c       ??_7pcharNode@@6B@         1011159c     libvcruntimed:undname.obj
 0003:000025b4       ??_7pDNameNode@@6B@        101115b4     libvcruntimed:undname.obj
 0003:000025cc       ??_7DNameStatusNode@@6B@   101115cc     libvcruntimed:undname.obj
 0003:000025e4       ??_7pairNode@@6B@          101115e4     libvcruntimed:undname.obj
 0003:0000272c       ??_C@_04OKOHEJBO@?5?$DP?$DP?5@ 1011172c     libvcruntimed:undname.obj
 0003:00002734       ?nodes@?1??make@DNameStatusNode@@SAPBV2@W4DNameStatus@@@Z@4QBV2@B 10111734     libvcruntimed:undname.obj
 0003:00002770       ??_C@_0CG@LKEBOLJI@Cannot?5access?5value?5of?5empty?5op@ 10111770     libvcruntimed:undname.obj
 0003:000027a0       ??_C@_02DKCKIIND@?$CFs@    101117a0     libvcruntimed:undname.obj
 0003:000027a4       ??_C@_0CM@FHELMHAP@D?3?2a?2_work?21?2s?2binaries?2x86ret?2@ 101117a4     libvcruntimed:undname.obj
 0003:000027d8       ??_C@_1FI@MGKANLBL@?$AAD?$AA?3?$AA?2?$AAa?$AA?2?$AA_?$AAw?$AAo?$AAr?$AAk?$AA?2?$AA1?$AA?2?$AAs?$AA?2@ 101117d8     libvcruntimed:undname.obj
 0003:00002844       ??_C@_11LOCGONAA@@         10111844     libvcruntimed:undname.obj
 0003:00002848       ??_C@_1FA@DPIDPJCB@?$AA?$CC?$AAC?$AAa?$AAn?$AAn?$AAo?$AAt?$AA?5?$AAa?$AAc?$AAc?$AAe?$AAs?$AAs?$AA?5@ 10111848     libvcruntimed:undname.obj
 0003:000028a8       ??_C@_0EK@HNOIOKGA@D?3?2a?2_work?21?2s?2src?2vctools?2crt?2@ 101118a8     libvcruntimed:per_thread_data.obj
 0003:00002910       ??_C@_1DM@KHCHBNEB@?$AAa?$AAp?$AAi?$AA?9?$AAm?$AAs?$AA?9?$AAw?$AAi?$AAn?$AA?9?$AAc?$AAo?$AAr?$AAe@ 10111910     libvcruntimed:winapi_downlevel.obj
 0003:00002958       ??_C@_1DK@LPPGFMPP@?$AAa?$AAp?$AAi?$AA?9?$AAm?$AAs?$AA?9?$AAw?$AAi?$AAn?$AA?9?$AAc?$AAo?$AAr?$AAe@ 10111958     libvcruntimed:winapi_downlevel.obj
 0003:000029a0       ??_C@_1BC@GDMECMAK@?$AAk?$AAe?$AAr?$AAn?$AAe?$AAl?$AA3?$AA2@ 101119a0     libvcruntimed:winapi_downlevel.obj
 0003:000029b8       ??_C@_17CNPHIMPH@?$AA?$CF?$AAl?$AAs@ 101119b8     libvcruntimed:winapi_downlevel.obj
 0003:000029c4       ??_C@_1BA@PFFKHIOG@?$AAa?$AAp?$AAi?$AA?9?$AAm?$AAs?$AA?9@ 101119c4     libvcruntimed:winapi_downlevel.obj
 0003:000029d8       ??_C@_1EM@LBIFGLGH@?$AAc?$AAa?$AAc?$AAh?$AAe?$AAd?$AA_?$AAh?$AAa?$AAn?$AAd?$AAl?$AAe?$AA?5?$AA?$DN@ 101119d8     libvcruntimed:winapi_downlevel.obj
 0003:00002a38       ??_C@_1JG@EAIBPIGC@?$AAD?$AA?3?$AA?2?$AAa?$AA?2?$AA_?$AAw?$AAo?$AAr?$AAk?$AA?2?$AA1?$AA?2?$AAs?$AA?2@ 10111a38     libvcruntimed:winapi_downlevel.obj
 0003:00002aec       ??_C@_1DI@MAHEDLDB@?$AAc?$AAa?$AAc?$AAh?$AAe?$AAd?$AA_?$AAh?$AAa?$AAn?$AAd?$AAl?$AAe?$AA?5?$AA?$DN@ 10111aec     libvcruntimed:winapi_downlevel.obj
 0003:00002b30       ??_C@_1FC@IBNCGNKL@?$AAc?$AAa?$AAc?$AAh?$AAe?$AAd?$AA_?$AAf?$AAp?$AA?5?$AA?$DN?$AA?$DN?$AA?5?$AAi?$AAn@ 10111b30     libvcruntimed:winapi_downlevel.obj
 0003:00002b94       ??_C@_1CI@GDJBAGLP@?$AAc?$AAa?$AAc?$AAh?$AAe?$AAd?$AA_?$AAf?$AAp?$AA?5?$AA?$DN?$AA?$DN?$AA?5?$AAn?$AAe@ 10111b94     libvcruntimed:winapi_downlevel.obj
 0003:00002bd0       ??_C@_08KNHFBNJ@FlsAlloc@  10111bd0     libvcruntimed:winapi_downlevel.obj
 0003:00002be8       ??_C@_07PEJMOBNF@FlsFree@  10111be8     libvcruntimed:winapi_downlevel.obj
 0003:00002c00       ??_C@_0M@GDNOONDI@FlsGetValue@ 10111c00     libvcruntimed:winapi_downlevel.obj
 0003:00002c1c       ??_C@_0M@JCPCPOEF@FlsSetValue@ 10111c1c     libvcruntimed:winapi_downlevel.obj
 0003:00002c38       ??_C@_0BM@HCFOFFN@InitializeCriticalSectionEx@ 10111c38     libvcruntimed:winapi_downlevel.obj
 0003:00002c60       ??_7exception@std@@6B@     10111c60     libvcruntimed:frame.obj
 0003:00002c6c       ??_C@_0BC@EOODALEL@Unknown?5exception@ 10111c6c     libvcruntimed:frame.obj
 0003:00002c88       ??_7bad_exception@std@@6B@ 10111c88     libvcruntimed:frame.obj
 0003:00002c94       ??_C@_0O@DPKOEFFH@bad?5exception@ 10111c94     libvcruntimed:frame.obj
 0003:00002ca8       ??_C@_1FK@OACNEHHA@?$AAt?$AAo?$AA?9?$AA?$DO?$AA_?$AAW?$AAh?$AAa?$AAt?$AA?5?$AA?$DN?$AA?$DN?$AA?5?$AAn?$AAu@ 10111ca8     libvcruntimed:std_exception.obj
 0003:00002d18       ??_C@_1IE@BLOAAGCK@?$AAD?$AA?3?$AA?2?$AAa?$AA?2?$AA_?$AAw?$AAo?$AAr?$AAk?$AA?2?$AA1?$AA?2?$AAs?$AA?2@ 10111d18     libvcruntimed:std_exception.obj
 0003:00002dc8       ??_C@_1BA@GLMCNLEM@?$AAW?$AAa?$AAr?$AAn?$AAi?$AAn?$AAg@ 10111dc8     libucrtd:dbgrpt.obj
 0003:00002ddc       ??_C@_1M@ILHOPKA@?$AAE?$AAr?$AAr?$AAo?$AAr@ 10111ddc     libucrtd:dbgrpt.obj
 0003:00002dec       ??_C@_1CC@CGHMNGDG@?$AAA?$AAs?$AAs?$AAe?$AAr?$AAt?$AAi?$AAo?$AAn?$AA?5?$AAF?$AAa?$AAi?$AAl?$AAe@ 10111dec     libucrtd:dbgrpt.obj
 0003:00002e18       ??_C@_1OG@PMPPFHAF@?$AA?6?$AA?6?$AAF?$AAo?$AAr?$AA?5?$AAi?$AAn?$AAf?$AAo?$AAr?$AAm?$AAa?$AAt?$AAi@ 10111e18     libucrtd:dbgrpt.obj
 0003:00002f30       ??_C@_1MG@LJLILFFD@?$AAD?$AAe?$AAb?$AAu?$AAg?$AA?5?$AA?$CF?$AAl?$AAs?$AA?$CB?$AA?6?$AA?6?$AAP?$AAr?$AAo@ 10111f30     libucrtd:dbgrpt.obj
 0003:00003020       ??_C@_1MG@OODCADGL@?$AAD?$AAe?$AAb?$AAu?$AAg?$AA?5?$AA?$CF?$AAl?$AAs?$AA?$CB?$AA?6?$AA?6?$AAP?$AAr?$AAo@ 10112020     libucrtd:dbgrpt.obj
 0003:00003110       ??_C@_0BH@DNAGHKFM@?$DMprogram?5name?5unknown?$DO@ 10112110     libucrtd:dbgrpt.obj
 0003:0000312c       ??_C@_1CO@EAEJAADC@?$AA?$DM?$AAp?$AAr?$AAo?$AAg?$AAr?$AAa?$AAm?$AA?5?$AAn?$AAa?$AAm?$AAe?$AA?5?$AAu@ 1011212c     libucrtd:dbgrpt.obj
 0003:00003168       ??_C@_1FK@BNNDOGMN@?$AA?$CI?$AA?$CC?$AAT?$AAh?$AAe?$AA?5?$AAh?$AAo?$AAo?$AAk?$AA?5?$AAf?$AAu?$AAn?$AAc@ 10112168     libucrtd:dbgrpt.obj
 0003:000031d8       ??_C@_1FO@GMJDLAJD@?$AAm?$AAi?$AAn?$AAk?$AAe?$AAr?$AAn?$AAe?$AAl?$AA?2?$AAc?$AAr?$AAt?$AAs?$AA?2@ 101121d8     libucrtd:dbgrpt.obj
 0003:00003248       ??_C@_0CP@HDJNPEFB@minkernel?2crts?2ucrt?2src?2appcrt?2@ 10112248     libucrtd:dbgrpt.obj
 0003:00003280       ??_C@_1HI@OFEHGPPC@?$AAm?$AAo?$AAd?$AAe?$AA?5?$AA?$DN?$AA?$DN?$AA?5?$AA_?$AAC?$AAR?$AAT?$AA_?$AAR?$AAP@ 10112280     libucrtd:dbgrpt.obj
 0003:00003310       ??_C@_1CO@FFNKOJOG@?$AAc?$AAo?$AAm?$AAm?$AAo?$AAn?$AA_?$AAs?$AAe?$AAt?$AA_?$AAr?$AAe?$AAp?$AAo@ 10112310     libucrtd:dbgrpt.obj
 0003:00003348       ??_C@_1CI@ONEHFNHD@?$AAn?$AAe?$AAw?$AA_?$AAh?$AAo?$AAo?$AAk?$AA?5?$AA?$CB?$AA?$DN?$AA?5?$AAn?$AAu?$AAl@ 10112348     libucrtd:dbgrpt.obj
 0003:0000337c       ??_C@_1CM@EHMOGBJJ@?$AAc?$AAo?$AAm?$AAm?$AAo?$AAn?$AA_?$AAm?$AAe?$AAs?$AAs?$AAa?$AAg?$AAe?$AA_@ 1011237c     libucrtd:dbgrpt.obj
 0003:000033b0       ??_C@_1PE@ECNALGCA@?$AAt?$AAr?$AAa?$AAi?$AAt?$AAs?$AA?3?$AA?3?$AAt?$AAc?$AAs?$AAc?$AAp?$AAy?$AA_@ 101123b0     libucrtd:dbgrpt.obj
 0003:000034d4       ??_C@_1BK@PEDCIPMA@?$AAE?$AAx?$AAp?$AAr?$AAe?$AAs?$AAs?$AAi?$AAo?$AAn?$AA?3?$AA?5@ 101124d4     libucrtd:dbgrpt.obj
 0003:000034f4       ??_C@_15IABLJNFO@?$AA?6?$AA?6@ 101124f4     libucrtd:dbgrpt.obj
 0003:000034fc       ??_C@_1BA@GLLGCPCK@?$AA?6?$AAL?$AAi?$AAn?$AAe?$AA?3?$AA?5@ 101124fc     libucrtd:dbgrpt.obj
 0003:00003510       ??_C@_1BA@LNHECFIM@?$AA?6?$AAF?$AAi?$AAl?$AAe?$AA?3?$AA?5@ 10112510     libucrtd:dbgrpt.obj
 0003:00003524       ??_C@_17LGKOMLJ@?$AA?4?$AA?4?$AA?4@ 10112524     libucrtd:dbgrpt.obj
 0003:00003530       ??_C@_1BE@CGCJKGHI@?$AA?6?$AAM?$AAo?$AAd?$AAu?$AAl?$AAe?$AA?3?$AA?5@ 10112530     libucrtd:dbgrpt.obj
 0003:00003548       ??_C@_1BI@KALLJECN@?$AA?$CI?$AA?$CK?$AA_?$AAe?$AAr?$AAr?$AAn?$AAo?$AA?$CI?$AA?$CJ?$AA?$CJ@ 10112548     libucrtd:dbgrpt.obj
 0003:00003568       ??_C@_1JM@IBOIJEOO@?$AAw?$AAc?$AAs?$AAc?$AAp?$AAy?$AA_?$AAs?$AA?$CI?$AAm?$AAe?$AAs?$AAs?$AAa?$AAg@ 10112568     libucrtd:dbgrpt.obj
 0003:00003628       ??_C@_1FG@BBOLDHGF@?$AA_?$AAC?$AAr?$AAt?$AAD?$AAb?$AAg?$AAR?$AAe?$AAp?$AAo?$AAr?$AAt?$AA?3?$AA?5@ 10112628     libucrtd:dbgrpt.obj
 0003:00003690       ??_C@_1EK@MBDPDCGA@?$AAM?$AAi?$AAc?$AAr?$AAo?$AAs?$AAo?$AAf?$AAt?$AA?5?$AAV?$AAi?$AAs?$AAu?$AAa@ 10112690     libucrtd:dbgrpt.obj
 0003:000036f0       ??_C@_1GI@BBAEIKL@?$AA?$CI?$AA?$CI?$AAd?$AAe?$AAs?$AAt?$AAi?$AAn?$AAa?$AAt?$AAi?$AAo?$AAn?$AA?$CJ?$AA?$CJ@ 101126f0     libucrtd:strcpy_s.obj
 0003:00003770       ??_C@_1HI@PBJPCEBC@?$AAm?$AAi?$AAn?$AAk?$AAe?$AAr?$AAn?$AAe?$AAl?$AA?2?$AAc?$AAr?$AAt?$AAs?$AA?2@ 10112770     libucrtd:strcpy_s.obj
 0003:00003800       ??_C@_1CA@FHIAGDFH@?$AAc?$AAo?$AAm?$AAm?$AAo?$AAn?$AA_?$AAt?$AAc?$AAs?$AAc?$AAp?$AAy?$AA_?$AAs@ 10112800     libucrtd:strcpy_s.obj
 0003:00003828       ??_C@_1CK@EIOKGPJL@?$AA?$CI?$AA?$CI?$AA?$CI?$AAs?$AAo?$AAu?$AAr?$AAc?$AAe?$AA?$CJ?$AA?$CJ?$AA?$CJ?$AA?5?$AA?$CB?$AA?$DN@ 10112828     libucrtd:strcpy_s.obj
 0003:0000385c       ??_C@_1CI@HCPHDDLE@?$AAB?$AAu?$AAf?$AAf?$AAe?$AAr?$AA?5?$AAi?$AAs?$AA?5?$AAt?$AAo?$AAo?$AA?5?$AAs@ 1011285c     libucrtd:strcpy_s.obj
 0003:0000388c       ??_C@_1DM@MADKGDLO@?$AA?$CI?$AAL?$AA?$CC?$AAB?$AAu?$AAf?$AAf?$AAe?$AAr?$AA?5?$AAi?$AAs?$AA?5?$AAt?$AAo@ 1011288c     libucrtd:strcpy_s.obj
 0003:000038d4       ??_C@_1CA@EOJJMFA@?$AAc?$AAo?$AAm?$AAm?$AAo?$AAn?$AA_?$AAt?$AAc?$AAs?$AAc?$AAa?$AAt?$AA_?$AAs@ 101128d4     libucrtd:strcat_s.obj
 0003:000038fc       ??_C@_1DM@FHLMIEG@?$AAS?$AAt?$AAr?$AAi?$AAn?$AAg?$AA?5?$AAi?$AAs?$AA?5?$AAn?$AAo?$AAt?$AA?5?$AAn@ 101128fc     libucrtd:strcat_s.obj
 0003:00003948       ??_C@_1FA@MJKDNFFB@?$AA?$CI?$AAL?$AA?$CC?$AAS?$AAt?$AAr?$AAi?$AAn?$AAg?$AA?5?$AAi?$AAs?$AA?5?$AAn?$AAo@ 10112948     libucrtd:strcat_s.obj
 0003:000039a8       __Fenv1                    101129a8     libucrtd:output.obj
 0003:000039b8       ?standard_lookup_table_spectre@__crt_stdio_output@@3V?$spectre_mitigated_lookup_table@Ustate_transition_pair@__crt_stdio_output@@$0IA@@1@B 101129b8     libucrtd:output.obj
 0003:00003af0       ?format_validation_lookup_table_spectre@__crt_stdio_output@@3V?$spectre_mitigated_lookup_table@Ustate_transition_pair@__crt_stdio_output@@$0IA@@1@B 10112af0     libucrtd:output.obj
 0003:00003c28       ??_C@_1BDG@MKBKGHOH@?$AA?$CI?$AA?5?$AA?$CI?$AA_?$AAS?$AAt?$AAr?$AAe?$AAa?$AAm?$AA?4?$AAi?$AAs?$AA_?$AAs@ 10112c28     libucrtd:output.obj
 0003:00003da0       ??_C@_1GC@LCDLABEA@?$AAm?$AAi?$AAn?$AAk?$AAe?$AAr?$AAn?$AAe?$AAl?$AA?2?$AAc?$AAr?$AAt?$AAs?$AA?2@ 10112da0     libucrtd:output.obj
 0003:00003e18       ??_C@_1II@DIIMCJOK@?$AA_?$AA_?$AAa?$AAc?$AAr?$AAt?$AA_?$AAs?$AAt?$AAd?$AAi?$AAo?$AA_?$AAc?$AAh@ 10112e18     libucrtd:output.obj
 0003:00003ec0       ??_C@_1GE@DPGDJKLM@?$AAm?$AAi?$AAn?$AAk?$AAe?$AAr?$AAn?$AAe?$AAl?$AA?2?$AAc?$AAr?$AAt?$AAs?$AA?2@ 10112ec0     libucrtd:output.obj
 0003:00003f38       ??_C@_1CE@JLIJLEKO@?$AAs?$AAt?$AAr?$AAe?$AAa?$AAm?$AA?5?$AA?$CB?$AA?$DN?$AA?5?$AAn?$AAu?$AAl?$AAl?$AAp@ 10112f38     libucrtd:output.obj
 0003:00003f68       ??_C@_1GA@MOBAPGIO@?$AAm?$AAi?$AAn?$AAk?$AAe?$AAr?$AAn?$AAe?$AAl?$AA?2?$AAc?$AAr?$AAt?$AAs?$AA?2@ 10112f68     libucrtd:output.obj
 0003:00003fdc       ??_C@_1CA@GELIJBMC@?$AAc?$AAo?$AAm?$AAm?$AAo?$AAn?$AA_?$AAv?$AAf?$AAp?$AAr?$AAi?$AAn?$AAt?$AAf@ 10112fdc     libucrtd:output.obj
 0003:00004004       ??_C@_1CE@EAKLPBKK@?$AAf?$AAo?$AAr?$AAm?$AAa?$AAt?$AA?5?$AA?$CB?$AA?$DN?$AA?5?$AAn?$AAu?$AAl?$AAl?$AAp@ 10113004     libucrtd:output.obj
 0003:00004030       ??_C@_1CA@PIMGHCEK@?$AAc?$AAo?$AAm?$AAm?$AAo?$AAn?$AA_?$AAv?$AAs?$AAp?$AAr?$AAi?$AAn?$AAt?$AAf@ 10113030     libucrtd:output.obj
 0003:00004058       ??_C@_1EO@EGEEFEFM@?$AAb?$AAu?$AAf?$AAf?$AAe?$AAr?$AA_?$AAc?$AAo?$AAu?$AAn?$AAt?$AA?5?$AA?$DN?$AA?$DN@ 10113058     libucrtd:output.obj
 0003:000040b8       ??_C@_1CE@JEILLNB@?$AAc?$AAo?$AAm?$AAm?$AAo?$AAn?$AA_?$AAv?$AAs?$AAp?$AAr?$AAi?$AAn?$AAt?$AAf@ 101130b8     libucrtd:output.obj
 0003:000040e8       ??_C@_1EM@OAFHAOLH@?$AAb?$AAu?$AAf?$AAf?$AAe?$AAr?$AA?5?$AA?$CB?$AA?$DN?$AA?5?$AAn?$AAu?$AAl?$AAl?$AAp@ 101130e8     libucrtd:output.obj
 0003:00004144       ??_C@_1DA@HPBFKMEB@?$AA?$CI?$AA?$CC?$AAB?$AAu?$AAf?$AAf?$AAe?$AAr?$AA?5?$AAt?$AAo?$AAo?$AA?5?$AAs?$AAm@ 10113144     libucrtd:output.obj
 0003:00004180       ??_C@_1CG@LHFJHFBB@?$AAc?$AAo?$AAm?$AAm?$AAo?$AAn?$AA_?$AAv?$AAs?$AAn?$AAp?$AAr?$AAi?$AAn?$AAt@ 10113180     libucrtd:output.obj
 0003:000041b0       ??_C@_1CM@JOIJBMEM@?$AA_?$AAf?$AAo?$AAr?$AAm?$AAa?$AAt?$AA_?$AAi?$AAt?$AA?5?$AA?$CB?$AA?$DN?$AA?5?$AAn@ 101131b0     libucrtd:output.obj
 0003:000041e8       ??_C@_1HA@DMAAKIJP@?$AAm?$AAi?$AAn?$AAk?$AAe?$AAr?$AAn?$AAe?$AAl?$AA?2?$AAc?$AAr?$AAt?$AAs?$AA?2@ 101131e8     libucrtd:output.obj
 0003:00004270       ??_C@_1BNA@OIIAGHJI@?$AA_?$AA_?$AAc?$AAr?$AAt?$AA_?$AAs?$AAt?$AAd?$AAi?$AAo?$AA_?$AAo?$AAu?$AAt@ 10113270     libucrtd:output.obj
 0003:000044a0       ??_C@_1EE@DMAIGNBG@?$AA?$CI?$AA?$CC?$AAI?$AAn?$AAc?$AAo?$AAr?$AAr?$AAe?$AAc?$AAt?$AA?5?$AAf?$AAo?$AAr@ 101134a0     libucrtd:output.obj
 0003:000044f8       ??_C@_1BLI@EGFICANE@?$AA_?$AA_?$AAc?$AAr?$AAt?$AA_?$AAs?$AAt?$AAd?$AAi?$AAo?$AA_?$AAo?$AAu?$AAt@ 101134f8     libucrtd:output.obj
 0003:00004708       ??_C@_1BLI@IKDKMDHI@?$AA_?$AA_?$AAc?$AAr?$AAt?$AA_?$AAs?$AAt?$AAd?$AAi?$AAo?$AA_?$AAo?$AAu?$AAt@ 10113708     libucrtd:output.obj
 0003:00004918       ??_C@_1BKA@DNADAJMC@?$AA_?$AA_?$AAc?$AAr?$AAt?$AA_?$AAs?$AAt?$AAd?$AAi?$AAo?$AA_?$AAo?$AAu?$AAt@ 10113918     libucrtd:output.obj
 0003:00004b10       ??_C@_1BNA@HGLCOOBP@?$AA_?$AA_?$AAc?$AAr?$AAt?$AA_?$AAs?$AAt?$AAd?$AAi?$AAo?$AA_?$AAo?$AAu?$AAt@ 10113b10     libucrtd:output.obj
 0003:00004d40       ??_C@_1BLI@FOCNEPKJ@?$AA_?$AA_?$AAc?$AAr?$AAt?$AA_?$AAs?$AAt?$AAd?$AAi?$AAo?$AA_?$AAo?$AAu?$AAt@ 10113d40     libucrtd:output.obj
 0003:00004f50       ??_C@_1BMK@CPBKHDIH@?$AA_?$AA_?$AAc?$AAr?$AAt?$AA_?$AAs?$AAt?$AAd?$AAi?$AAo?$AA_?$AAo?$AAu?$AAt@ 10113f50     libucrtd:output.obj
 0003:00005178       ??_C@_1BLC@PMCLHHAE@?$AA_?$AA_?$AAc?$AAr?$AAt?$AA_?$AAs?$AAt?$AAd?$AAi?$AAo?$AA_?$AAo?$AAu?$AAt@ 10114178     libucrtd:output.obj
 0003:00005380       ??_C@_1BLI@EEAAPJD@?$AA_?$AA_?$AAc?$AAr?$AAt?$AA_?$AAs?$AAt?$AAd?$AAi?$AAo?$AA_?$AAo?$AAu?$AAt@ 10114380     libucrtd:output.obj
 0003:00005590       ??_C@_1BKA@IIAAOGBO@?$AA_?$AA_?$AAc?$AAr?$AAt?$AA_?$AAs?$AAt?$AAd?$AAi?$AAo?$AA_?$AAo?$AAu?$AAt@ 10114590     libucrtd:output.obj
 0003:00005788       ??_C@_1FG@OBJBDPAC@?$AA?$CI?$AA?$CC?$AAN?$AA?5?$AAl?$AAe?$AAn?$AAg?$AAt?$AAh?$AA?5?$AAm?$AAo?$AAd?$AAi@ 10114788     libucrtd:output.obj
 0003:000057f0       ??_C@_1BOA@BMEGDMHF@?$AA_?$AA_?$AAc?$AAr?$AAt?$AA_?$AAs?$AAt?$AAd?$AAi?$AAo?$AA_?$AAo?$AAu?$AAt@ 101147f0     libucrtd:output.obj
 0003:00005a30       ??_C@_1EC@GJPNJDCN@?$AA_?$AAl?$AAe?$AAn?$AAg?$AAt?$AAh?$AA?5?$AA?$DN?$AA?$DN?$AA?5?$AAl?$AAe?$AAn?$AAg@ 10114a30     libucrtd:output.obj
 0003:00005a80       ??_C@_1DG@CEJKFDMO@?$AAs?$AAt?$AAa?$AAt?$AAe?$AA_?$AAc?$AAa?$AAs?$AAe?$AA_?$AAn?$AAo?$AAr?$AAm@ 10114a80     libucrtd:output.obj
 0003:00005ac0       ??_C@_1BOE@IPKNNOEE@?$AA_?$AA_?$AAc?$AAr?$AAt?$AA_?$AAs?$AAt?$AAd?$AAi?$AAo?$AA_?$AAo?$AAu?$AAt@ 10114ac0     libucrtd:output.obj
 0003:00005d08       ??_C@_1IC@NLEOMCDL@?$AA_?$AAt?$AAy?$AAp?$AAe?$AA_?$AAi?$AAn?$AAd?$AAe?$AAx?$AA?5?$AA?$DO?$AA?$DN?$AA?5@ 10114d08     libucrtd:output.obj
 0003:00005da8       ??_C@_1BFK@KNCMELHH@?$AA_?$AA_?$AAc?$AAr?$AAt?$AA_?$AAs?$AAt?$AAd?$AAi?$AAo?$AA_?$AAo?$AAu?$AAt@ 10114da8     libucrtd:output.obj
 0003:00005f48       ??_C@_1FK@BCPANIEK@?$AA?$CI?$AA?$CC?$AAM?$AAi?$AAs?$AAs?$AAi?$AAn?$AAg?$AA?5?$AAp?$AAo?$AAs?$AAi?$AAt@ 10114f48     libucrtd:output.obj
 0003:00005fb8       ??_C@_1BEI@IHLBHMLJ@?$AA_?$AA_?$AAc?$AAr?$AAt?$AA_?$AAs?$AAt?$AAd?$AAi?$AAo?$AA_?$AAo?$AAu?$AAt@ 10114fb8     libucrtd:output.obj
 0003:00006148       ??_C@_1BMI@LKDDDFDL@?$AA_?$AA_?$AAc?$AAr?$AAt?$AA_?$AAs?$AAt?$AAd?$AAi?$AAo?$AA_?$AAo?$AAu?$AAt@ 10115148     libucrtd:output.obj
 0003:00006370       ??_C@_1BMM@JGEKEBKL@?$AA_?$AA_?$AAc?$AAr?$AAt?$AA_?$AAs?$AAt?$AAd?$AAi?$AAo?$AA_?$AAo?$AAu?$AAt@ 10115370     libucrtd:output.obj
 0003:00006598       ??_C@_1BEO@ODGKIOAL@?$AA_?$AA_?$AAc?$AAr?$AAt?$AA_?$AAs?$AAt?$AAd?$AAi?$AAo?$AA_?$AAo?$AAu?$AAt@ 10115598     libucrtd:output.obj
 0003:00006728       ??_C@_1BDM@GFCGMNL@?$AA_?$AA_?$AAc?$AAr?$AAt?$AA_?$AAs?$AAt?$AAd?$AAi?$AAo?$AA_?$AAo?$AAu?$AAt@ 10115728     libucrtd:output.obj
 0003:000068a8       ??_C@_1BMI@KBPJOJJI@?$AA_?$AA_?$AAc?$AAr?$AAt?$AA_?$AAs?$AAt?$AAd?$AAi?$AAo?$AA_?$AAo?$AAu?$AAt@ 101158a8     libucrtd:output.obj
 0003:00006ad0       ??_C@_1BMM@PGHHMNDM@?$AA_?$AA_?$AAc?$AAr?$AAt?$AA_?$AAs?$AAt?$AAd?$AAi?$AAo?$AA_?$AAo?$AAu?$AAt@ 10115ad0     libucrtd:output.obj
 0003:00006cf8       ??_C@_1CI@DDKMNCPP@?$AA_?$AAc?$AAo?$AAn?$AAt?$AAe?$AAx?$AAt?$AA?5?$AA?$CB?$AA?$DN?$AA?5?$AAn?$AAu?$AAl@ 10115cf8     libucrtd:output.obj
 0003:00006d28       ??_C@_1HK@IIPGOADH@?$AA_?$AA_?$AAc?$AAr?$AAt?$AA_?$AAs?$AAt?$AAd?$AAi?$AAo?$AA_?$AAo?$AAu?$AAt@ 10115d28     libucrtd:output.obj
 0003:00006dc0       ??_C@_1BLA@MEDMHIOH@?$AA_?$AA_?$AAc?$AAr?$AAt?$AA_?$AAs?$AAt?$AAd?$AAi?$AAo?$AA_?$AAo?$AAu?$AAt@ 10115dc0     libucrtd:output.obj
 0003:00006fc8       ??_C@_1BLE@LCKPBJON@?$AA_?$AA_?$AAc?$AAr?$AAt?$AA_?$AAs?$AAt?$AAd?$AAi?$AAo?$AA_?$AAo?$AAu?$AAt@ 10115fc8     libucrtd:output.obj
 0003:000071d8       ??_C@_1HE@IACOMEJF@?$AA_?$AA_?$AAc?$AAr?$AAt?$AA_?$AAs?$AAt?$AAd?$AAi?$AAo?$AA_?$AAo?$AAu?$AAt@ 101161d8     libucrtd:output.obj
 0003:00007268       ??_C@_1BOA@CBIEMBEE@?$AA_?$AA_?$AAc?$AAr?$AAt?$AA_?$AAs?$AAt?$AAd?$AAi?$AAo?$AA_?$AAo?$AAu?$AAt@ 10116268     libucrtd:output.obj
 0003:000074a8       ??_C@_1BOE@NLICFINO@?$AA_?$AA_?$AAc?$AAr?$AAt?$AA_?$AAs?$AAt?$AAd?$AAi?$AAo?$AA_?$AAo?$AAu?$AAt@ 101164a8     libucrtd:output.obj
 0003:000076f0       ??_C@_1BFK@IOIDDMPJ@?$AA_?$AA_?$AAc?$AAr?$AAt?$AA_?$AAs?$AAt?$AAd?$AAi?$AAo?$AA_?$AAo?$AAu?$AAt@ 101166f0     libucrtd:output.obj
 0003:00007890       ??_C@_1BEI@JNJAFAD@?$AA_?$AA_?$AAc?$AAr?$AAt?$AA_?$AAs?$AAt?$AAd?$AAi?$AAo?$AA_?$AAo?$AAu?$AAt@ 10116890     libucrtd:output.obj
 0003:00007a20       ??_C@_1BMI@PKGBOKJK@?$AA_?$AA_?$AAc?$AAr?$AAt?$AA_?$AAs?$AAt?$AAd?$AAi?$AAo?$AA_?$AAo?$AAu?$AAt@ 10116a20     libucrtd:output.obj
 0003:00007c48       ??_C@_1BMM@BLBJDDIA@?$AA_?$AA_?$AAc?$AAr?$AAt?$AA_?$AAs?$AAt?$AAd?$AAi?$AAo?$AA_?$AAo?$AAu?$AAt@ 10116c48     libucrtd:output.obj
 0003:00007e70       ??_C@_1BEO@JEHLMMKB@?$AA_?$AA_?$AAc?$AAr?$AAt?$AA_?$AAs?$AAt?$AAd?$AAi?$AAo?$AA_?$AAo?$AAu?$AAt@ 10116e70     libucrtd:output.obj
 0003:00008000       ??_C@_1BDM@FDOLKCHK@?$AA_?$AA_?$AAc?$AAr?$AAt?$AA_?$AAs?$AAt?$AAd?$AAi?$AAo?$AA_?$AAo?$AAu?$AAt@ 10117000     libucrtd:output.obj
 0003:00008180       ??_C@_1BNK@ONPHCEAM@?$AA_?$AA_?$AAc?$AAr?$AAt?$AA_?$AAs?$AAt?$AAd?$AAi?$AAo?$AA_?$AAo?$AAu?$AAt@ 10117180     libucrtd:output.obj
 0003:000083b8       ??_C@_1BNO@LMMLJOOJ@?$AA_?$AA_?$AAc?$AAr?$AAt?$AA_?$AAs?$AAt?$AAd?$AAi?$AAo?$AA_?$AAo?$AAu?$AAt@ 101173b8     libucrtd:output.obj
 0003:000085f8       ??_C@_1GC@BNMHNGKM@?$AA_?$AAs?$AAt?$AAa?$AAt?$AAe?$AA?5?$AA?$DN?$AA?$DN?$AA?5?$AAs?$AAt?$AAa?$AAt?$AAe@ 101175f8     libucrtd:output.obj
 0003:00008670       ??_C@_1BEC@FNIGNBHI@?$AA_?$AA_?$AAc?$AAr?$AAt?$AA_?$AAs?$AAt?$AAd?$AAi?$AAo?$AA_?$AAo?$AAu?$AAt@ 10117670     libucrtd:output.obj
 0003:000087f8       ??_C@_1BMC@DAENMDAD@?$AA_?$AA_?$AAc?$AAr?$AAt?$AA_?$AAs?$AAt?$AAd?$AAi?$AAo?$AA_?$AAo?$AAu?$AAt@ 101177f8     libucrtd:output.obj
 0003:00008a18       ??_C@_1BMG@KOENKAMB@?$AA_?$AA_?$AAc?$AAr?$AAt?$AA_?$AAs?$AAt?$AAd?$AAi?$AAo?$AA_?$AAo?$AAu?$AAt@ 10117a18     libucrtd:output.obj
 0003:00008c38       ??_C@_1BDG@PLANJEFE@?$AA_?$AA_?$AAc?$AAr?$AAt?$AA_?$AAs?$AAt?$AAd?$AAi?$AAo?$AA_?$AAo?$AAu?$AAt@ 10117c38     libucrtd:output.obj
 0003:00008db0       ??_C@_1BMI@DNMDMAAN@?$AA_?$AA_?$AAc?$AAr?$AAt?$AA_?$AAs?$AAt?$AAd?$AAi?$AAo?$AA_?$AAo?$AAu?$AAt@ 10117db0     libucrtd:output.obj
 0003:00008fd8       ??_C@_1BMM@JHGFKAND@?$AA_?$AA_?$AAc?$AAr?$AAt?$AA_?$AAs?$AAt?$AAd?$AAi?$AAo?$AA_?$AAo?$AAu?$AAt@ 10117fd8     libucrtd:output.obj
 0003:00009200       ??_C@_1CA@ONEGMNAN@?$AA_?$AAs?$AAt?$AAr?$AAe?$AAa?$AAm?$AA?4?$AAv?$AAa?$AAl?$AAi?$AAd?$AA?$CI?$AA?$CJ@ 10118200     libucrtd:output.obj
 0003:00009228       ??_C@_1HK@MPBCDOK@?$AA_?$AA_?$AAc?$AAr?$AAt?$AA_?$AAs?$AAt?$AAd?$AAi?$AAo?$AA_?$AAo?$AAu?$AAt@ 10118228     libucrtd:output.obj
 0003:000092c0       ??_C@_1BLA@GJNGKGIK@?$AA_?$AA_?$AAc?$AAr?$AAt?$AA_?$AAs?$AAt?$AAd?$AAi?$AAo?$AA_?$AAo?$AAu?$AAt@ 101182c0     libucrtd:output.obj
 0003:000094c8       ??_C@_1BLE@PAACOKDK@?$AA_?$AA_?$AAc?$AAr?$AAt?$AA_?$AAs?$AAt?$AAd?$AAi?$AAo?$AA_?$AAo?$AAu?$AAt@ 101184c8     libucrtd:output.obj
 0003:000096d8       ??_C@_1HE@FGKHNBNL@?$AA_?$AA_?$AAc?$AAr?$AAt?$AA_?$AAs?$AAt?$AAd?$AAi?$AAo?$AA_?$AAo?$AAu?$AAt@ 101186d8     libucrtd:output.obj
 0003:00009768       ??_C@_1EK@PNGFDECN@?$AA?$CI?$AA?$CC?$AA?8?$AAn?$AA?8?$AA?5?$AAf?$AAo?$AAr?$AAm?$AAa?$AAt?$AA?5?$AAs?$AAp@ 10118768     libucrtd:output.obj
 0003:000097c0       ??_C@_1BNI@OPBGCNOB@?$AA_?$AA_?$AAc?$AAr?$AAt?$AA_?$AAs?$AAt?$AAd?$AAi?$AAo?$AA_?$AAo?$AAu?$AAt@ 101187c0     libucrtd:output.obj
 0003:000099f8       ??_C@_1EO@GHKFGFKL@?$AA?$CI?$AA?$CC?$AAI?$AAn?$AAv?$AAa?$AAl?$AAi?$AAd?$AA?5?$AAi?$AAn?$AAt?$AAe?$AAg@ 101189f8     libucrtd:output.obj
 0003:00009a58       ??_C@_1JC@PMCLKCOC@?$AAp?$AAr?$AAe?$AAc?$AAi?$AAs?$AAi?$AAo?$AAn?$AA_?$AAi?$AAn?$AAd?$AAe?$AAx@ 10118a58     libucrtd:output.obj
 0003:00009b08       ??_C@_1BAG@GKCGGKOF@?$AA_?$AA_?$AAc?$AAr?$AAt?$AA_?$AAs?$AAt?$AAd?$AAi?$AAo?$AA_?$AAo?$AAu?$AAt@ 10118b08     libucrtd:output.obj
 0003:00009c48       ??_C@_1IC@KGDNLBNC@?$AAw?$AAi?$AAd?$AAt?$AAh?$AA_?$AAi?$AAn?$AAd?$AAe?$AAx?$AA?5?$AA?$DO?$AA?$DN?$AA?5@ 10118c48     libucrtd:output.obj
 0003:00009ce8       ??_C@_1BAK@CDLANFGA@?$AA_?$AA_?$AAc?$AAr?$AAt?$AA_?$AAs?$AAt?$AAd?$AAi?$AAo?$AA_?$AAo?$AAu?$AAt@ 10118ce8     libucrtd:output.obj
 0003:00009e28       ??_C@_1BEC@NDOOKIMC@?$AA_?$AA_?$AAc?$AAr?$AAt?$AA_?$AAs?$AAt?$AAd?$AAi?$AAo?$AA_?$AAo?$AAu?$AAt@ 10118e28     libucrtd:output.obj
 0003:00009fb0       ??_C@_1BMA@CBPCAOAB@?$AA_?$AA_?$AAc?$AAr?$AAt?$AA_?$AAs?$AAt?$AAd?$AAi?$AAo?$AA_?$AAo?$AAu?$AAt@ 10118fb0     libucrtd:output.obj
 0003:0000a1d0       ??_C@_1PK@KBJLALII@?$AA_?$AA_?$AAc?$AAr?$AAt?$AA_?$AAs?$AAt?$AAd?$AAi?$AAo?$AA_?$AAo?$AAu?$AAt@ 101191d0     libucrtd:output.obj
 0003:0000a300       ??_C@_1PO@PODEJAGE@?$AA_?$AA_?$AAc?$AAr?$AAt?$AA_?$AAs?$AAt?$AAd?$AAi?$AAo?$AA_?$AAo?$AAu?$AAt@ 10119300     libucrtd:output.obj
 0003:0000a430       ??_C@_1BDG@KOLEFKPF@?$AA_?$AA_?$AAc?$AAr?$AAt?$AA_?$AAs?$AAt?$AAd?$AAi?$AAo?$AA_?$AAo?$AAu?$AAt@ 10119430     libucrtd:output.obj
 0003:0000a5a8       ??_C@_1BMA@IHIBOLMD@?$AA_?$AA_?$AAc?$AAr?$AAt?$AA_?$AAs?$AAt?$AAd?$AAi?$AAo?$AA_?$AAo?$AAu?$AAt@ 101195a8     libucrtd:output.obj
 0003:0000a7c8       ??_C@_1BKI@CJEIGDAI@?$AA_?$AA_?$AAc?$AAr?$AAt?$AA_?$AAs?$AAt?$AAd?$AAi?$AAo?$AA_?$AAo?$AAu?$AAt@ 101197c8     libucrtd:output.obj
 0003:0000a9c8       ??_C@_1BNI@IMOCDBNE@?$AA_?$AA_?$AAc?$AAr?$AAt?$AA_?$AAs?$AAt?$AAd?$AAi?$AAo?$AA_?$AAo?$AAu?$AAt@ 101199c8     libucrtd:output.obj
 0003:0000ac00       ??_C@_1BAG@DOFNHDMF@?$AA_?$AA_?$AAc?$AAr?$AAt?$AA_?$AAs?$AAt?$AAd?$AAi?$AAo?$AA_?$AAo?$AAu?$AAt@ 10119c00     libucrtd:output.obj
 0003:0000ad40       ??_C@_1BAK@DALINHHB@?$AA_?$AA_?$AAc?$AAr?$AAt?$AA_?$AAs?$AAt?$AAd?$AAi?$AAo?$AA_?$AAo?$AAu?$AAt@ 10119d40     libucrtd:output.obj
 0003:0000ae80       ??_C@_1BMA@GACGPGHN@?$AA_?$AA_?$AAc?$AAr?$AAt?$AA_?$AAs?$AAt?$AAd?$AAi?$AAo?$AA_?$AAo?$AAu?$AAt@ 10119e80     libucrtd:output.obj
 0003:0000b0a0       ??_C@_1PK@KBJECIEM@?$AA_?$AA_?$AAc?$AAr?$AAt?$AA_?$AAs?$AAt?$AAd?$AAi?$AAo?$AA_?$AAo?$AAu?$AAt@ 1011a0a0     libucrtd:output.obj
 0003:0000b1d0       ??_C@_1PO@LKIIANED@?$AA_?$AA_?$AAc?$AAr?$AAt?$AA_?$AAs?$AAt?$AAd?$AAi?$AAo?$AA_?$AAo?$AAu?$AAt@ 1011a1d0     libucrtd:output.obj
 0003:0000b300       ??_C@_1BNC@DONELHFF@?$AA_?$AA_?$AAc?$AAr?$AAt?$AA_?$AAs?$AAt?$AAd?$AAi?$AAo?$AA_?$AAo?$AAu?$AAt@ 1011a300     libucrtd:output.obj
 0003:0000b530       ??_C@_1BLK@BGFMMAPO@?$AA_?$AA_?$AAc?$AAr?$AAt?$AA_?$AAs?$AAt?$AAd?$AAi?$AAo?$AA_?$AAo?$AAu?$AAt@ 1011a530     libucrtd:output.obj
 0003:0000b748       ??_C@_1BMA@PGOJAHFP@?$AA_?$AA_?$AAc?$AAr?$AAt?$AA_?$AAs?$AAt?$AAd?$AAi?$AAo?$AA_?$AAo?$AAu?$AAt@ 1011a748     libucrtd:output.obj
 0003:0000b968       ??_C@_1BKI@NDKBCDGP@?$AA_?$AA_?$AAc?$AAr?$AAt?$AA_?$AAs?$AAt?$AAd?$AAi?$AAo?$AA_?$AAo?$AAu?$AAt@ 1011a968     libucrtd:output.obj
 0003:0000bb64       ??_C@_1O@CEDCILHN@?$AA?$CI?$AAn?$AAu?$AAl?$AAl?$AA?$CJ@ 1011ab64     libucrtd:output.obj
 0003:0000bb74       ??_C@_06OJHGLDPL@?$CInull?$CJ@ 1011ab74     libucrtd:output.obj
 0003:0000bb80       ??_C@_1LO@HECDHMMI@?$AAi?$AAs?$AA_?$AAp?$AAo?$AAs?$AAi?$AAt?$AAi?$AAo?$AAn?$AAa?$AAl?$AA_?$AAp@ 1011ab80     libucrtd:output.obj
 0003:0000bc68       ??_C@_1BCI@OBMMNJKK@?$AA_?$AA_?$AAc?$AAr?$AAt?$AA_?$AAs?$AAt?$AAd?$AAi?$AAo?$AA_?$AAo?$AAu?$AAt@ 1011ac68     libucrtd:output.obj
 0003:0000bdd0       ??_C@_1FE@IAFJEKN@?$AA_?$AAt?$AAy?$AAp?$AAe?$AA_?$AAi?$AAn?$AAd?$AAe?$AAx?$AA?5?$AA?$DO?$AA?$DN?$AA?5@ 1011add0     libucrtd:output.obj
 0003:0000be38       ??_C@_1BCC@GJLKCHIG@?$AA_?$AA_?$AAc?$AAr?$AAt?$AA_?$AAs?$AAt?$AAd?$AAi?$AAo?$AA_?$AAo?$AAu?$AAt@ 1011ae38     libucrtd:output.obj
 0003:0000bf94       ??_C@_1CK@LGDCECDH@?$AA_?$AAf?$AAo?$AAr?$AAm?$AAa?$AAt?$AA_?$AAc?$AAh?$AAa?$AAr?$AA?5?$AA?$CB?$AA?$DN@ 1011af94     libucrtd:output.obj
 0003:0000bfc8       ??_C@_1BNI@EDCGAPJB@?$AA_?$AA_?$AAc?$AAr?$AAt?$AA_?$AAs?$AAt?$AAd?$AAi?$AAo?$AA_?$AAo?$AAu?$AAt@ 1011afc8     libucrtd:output.obj
 0003:0000c200       ??_C@_1BBM@CBBAFMPJ@?$AA_?$AA_?$AAc?$AAr?$AAt?$AA_?$AAs?$AAt?$AAd?$AAi?$AAo?$AA_?$AAo?$AAu?$AAt@ 1011b200     libucrtd:output.obj
 0003:0000c358       ??_C@_1BBG@KIHCHFIM@?$AA_?$AA_?$AAc?$AAr?$AAt?$AA_?$AAs?$AAt?$AAd?$AAi?$AAo?$AA_?$AAo?$AAu?$AAt@ 1011b358     libucrtd:output.obj
 0003:0000c4a8       ??_C@_1BMA@FANDDEHK@?$AA_?$AA_?$AAc?$AAr?$AAt?$AA_?$AAs?$AAt?$AAd?$AAi?$AAo?$AA_?$AAo?$AAu?$AAt@ 1011b4a8     libucrtd:output.obj
 0003:0000c6c8       ??_C@_1BCI@ILAANKJG@?$AA_?$AA_?$AAc?$AAr?$AAt?$AA_?$AAs?$AAt?$AAd?$AAi?$AAo?$AA_?$AAo?$AAu?$AAt@ 1011b6c8     libucrtd:output.obj
 0003:0000c830       ??_C@_1BCC@PDNLFIHK@?$AA_?$AA_?$AAc?$AAr?$AAt?$AA_?$AAs?$AAt?$AAd?$AAi?$AAo?$AA_?$AAo?$AAu?$AAt@ 1011b830     libucrtd:output.obj
 0003:0000c990       ??_C@_1BNI@EJPCEBAG@?$AA_?$AA_?$AAc?$AAr?$AAt?$AA_?$AAs?$AAt?$AAd?$AAi?$AAo?$AA_?$AAo?$AAu?$AAt@ 1011b990     libucrtd:output.obj
 0003:0000cbc8       ??_C@_1BBM@LLHBCDAF@?$AA_?$AA_?$AAc?$AAr?$AAt?$AA_?$AAs?$AAt?$AAd?$AAi?$AAo?$AA_?$AAo?$AAu?$AAt@ 1011bbc8     libucrtd:output.obj
 0003:0000cd20       ??_C@_1BBG@JLLDGFML@?$AA_?$AA_?$AAc?$AAr?$AAt?$AA_?$AAs?$AAt?$AAd?$AAi?$AAo?$AA_?$AAo?$AAu?$AAt@ 1011bd20     libucrtd:output.obj
 0003:0000ce70       ??_C@_1BNC@BAMNIOCM@?$AA_?$AA_?$AAc?$AAr?$AAt?$AA_?$AAs?$AAt?$AAd?$AAi?$AAo?$AA_?$AAo?$AAu?$AAt@ 1011be70     libucrtd:output.obj
 0003:0000d0a0       ??_C@_1BMA@MEBEEDJE@?$AA_?$AA_?$AAc?$AAr?$AAt?$AA_?$AAs?$AAt?$AAd?$AAi?$AAo?$AA_?$AAo?$AAu?$AAt@ 1011c0a0     libucrtd:output.obj
 0003:0000d2c0       ??_C@_1BCA@HCPCJFGA@?$AA_?$AA_?$AAc?$AAr?$AAt?$AA_?$AAs?$AAt?$AAd?$AAi?$AAo?$AA_?$AAo?$AAu?$AAt@ 1011c2c0     libucrtd:output.obj
 0003:0000d420       ??_C@_1BOE@LIBLDKPN@?$AA_?$AA_?$AAc?$AAr?$AAt?$AA_?$AAs?$AAt?$AAd?$AAi?$AAo?$AA_?$AAo?$AAu?$AAt@ 1011c420     libucrtd:output.obj
 0003:0000d664       ??_C@_0DI@KIFBHMNO@minkernel?2crts?2ucrt?2inc?2corecrt@ 1011c664     libucrtd:output.obj
 0003:0000d6a8       ??_C@_1BBE@IBPNPIIM@?$AA_?$AA_?$AAc?$AAr?$AAt?$AA_?$AAs?$AAt?$AAd?$AAi?$AAo?$AA_?$AAo?$AAu?$AAt@ 1011c6a8     libucrtd:output.obj
 0003:0000d7f8       ??_C@_1BMM@KBPMKFBC@?$AA_?$AA_?$AAc?$AAr?$AAt?$AA_?$AAs?$AAt?$AAd?$AAi?$AAo?$AA_?$AAo?$AAu?$AAt@ 1011c7f8     libucrtd:output.obj
 0003:0000da20       ??_C@_1BMM@MBMBCJIF@?$AA_?$AA_?$AAc?$AAr?$AAt?$AA_?$AAs?$AAt?$AAd?$AAi?$AAo?$AA_?$AAo?$AAu?$AAt@ 1011ca20     libucrtd:output.obj
 0003:0000dc48       ??_C@_1BLE@IFBJPNFE@?$AA_?$AA_?$AAc?$AAr?$AAt?$AA_?$AAs?$AAt?$AAd?$AAi?$AAo?$AA_?$AAo?$AAu?$AAt@ 1011cc48     libucrtd:output.obj
 0003:0000de58       ??_C@_1BCA@FCGNBIN@?$AA_?$AA_?$AAc?$AAr?$AAt?$AA_?$AAs?$AAt?$AAd?$AAi?$AAo?$AA_?$AAo?$AAu?$AAt@ 1011ce58     libucrtd:output.obj
 0003:0000dfb8       ??_C@_1BOE@OMDELMGH@?$AA_?$AA_?$AAc?$AAr?$AAt?$AA_?$AAs?$AAt?$AAd?$AAi?$AAo?$AA_?$AAo?$AAu?$AAt@ 1011cfb8     libucrtd:output.obj
 0003:0000e200       ??_C@_1BBE@FLKADCDA@?$AA_?$AA_?$AAc?$AAr?$AAt?$AA_?$AAs?$AAt?$AAd?$AAi?$AAo?$AA_?$AAo?$AAu?$AAt@ 1011d200     libucrtd:output.obj
 0003:0000e350       ??_C@_1BMM@CMKPNHDJ@?$AA_?$AA_?$AAc?$AAr?$AAt?$AA_?$AAs?$AAt?$AAd?$AAi?$AAo?$AA_?$AAo?$AAu?$AAt@ 1011d350     libucrtd:output.obj
 0003:0000e578       ??_C@_1BNO@ILHNHKFA@?$AA_?$AA_?$AAc?$AAr?$AAt?$AA_?$AAs?$AAt?$AAd?$AAi?$AAo?$AA_?$AAo?$AAu?$AAt@ 1011d578     libucrtd:output.obj
 0003:0000e7b8       ??_C@_1BMG@JJPLEEHI@?$AA_?$AA_?$AAc?$AAr?$AAt?$AA_?$AAs?$AAt?$AAd?$AAi?$AAo?$AA_?$AAo?$AAu?$AAt@ 1011d7b8     libucrtd:output.obj
 0003:0000e9d8       ??_C@_1BMM@KANDEEGK@?$AA_?$AA_?$AAc?$AAr?$AAt?$AA_?$AAs?$AAt?$AAd?$AAi?$AAo?$AA_?$AAo?$AAu?$AAt@ 1011d9d8     libucrtd:output.obj
 0003:0000ec00       ??_C@_1BLE@MHLEAOID@?$AA_?$AA_?$AAc?$AAr?$AAt?$AA_?$AAs?$AAt?$AAd?$AAi?$AAo?$AA_?$AAo?$AAu?$AAt@ 1011dc00     libucrtd:output.obj
 0003:0000ee10       ??_C@_1BMK@JGIBNIA@?$AA_?$AA_?$AAc?$AAr?$AAt?$AA_?$AAs?$AAt?$AAd?$AAi?$AAo?$AA_?$AAo?$AAu?$AAt@ 1011de10     libucrtd:output.obj
 0003:0000f038       ??_C@_1BLC@INKIGOCN@?$AA_?$AA_?$AAc?$AAr?$AAt?$AA_?$AAs?$AAt?$AAd?$AAi?$AAo?$AA_?$AAo?$AAu?$AAt@ 1011e038     libucrtd:output.obj
 0003:0000f240       ??_C@_1BNK@KHNJGCCP@?$AA_?$AA_?$AAc?$AAr?$AAt?$AA_?$AAs?$AAt?$AAd?$AAi?$AAo?$AA_?$AAo?$AAu?$AAt@ 1011e240     libucrtd:output.obj
 0003:0000f478       ??_C@_1BNO@OHFFMOOJ@?$AA_?$AA_?$AAc?$AAr?$AAt?$AA_?$AAs?$AAt?$AAd?$AAi?$AAo?$AA_?$AAo?$AAu?$AAt@ 1011e478     libucrtd:output.obj
 0003:0000f6b8       ??_C@_1BMC@FAGJFBLI@?$AA_?$AA_?$AAc?$AAr?$AAt?$AA_?$AAs?$AAt?$AAd?$AAi?$AAo?$AA_?$AAo?$AAu?$AAt@ 1011e6b8     libucrtd:output.obj
 0003:0000f8d8       ??_C@_1BMG@CGPDIFDK@?$AA_?$AA_?$AAc?$AAr?$AAt?$AA_?$AAs?$AAt?$AAd?$AAi?$AAo?$AA_?$AAo?$AAu?$AAt@ 1011e8d8     libucrtd:output.obj
 0003:0000faf8       ??_C@_1BNC@OHPDPPJK@?$AA_?$AA_?$AAc?$AAr?$AAt?$AA_?$AAs?$AAt?$AAd?$AAi?$AAo?$AA_?$AAo?$AAu?$AAt@ 1011eaf8     libucrtd:output.obj
 0003:0000fd28       ??_C@_1BLK@FOLFMPJH@?$AA_?$AA_?$AAc?$AAr?$AAt?$AA_?$AAs?$AAt?$AAd?$AAi?$AAo?$AA_?$AAo?$AAu?$AAt@ 1011ed28     libucrtd:output.obj
 0003:0000ff40       ??_C@_1BNC@JPKLPOHO@?$AA_?$AA_?$AAc?$AAr?$AAt?$AA_?$AAs?$AAt?$AAd?$AAi?$AAo?$AA_?$AAo?$AAu?$AAt@ 1011ef40     libucrtd:output.obj
 0003:00010170       ??_C@_1EO@MLJCKPIB@?$AAb?$AAa?$AAs?$AAe?$AA?5?$AA?$DN?$AA?$DN?$AA?5?$AA0?$AA?5?$AA?$HM?$AA?$HM?$AA?5?$AA?$CI?$AA2@ 1011f170     libucrtd:output.obj
 0003:000101d0       ??_C@_1DI@BANODKFL@?$AA_?$AA_?$AAc?$AAr?$AAt?$AA_?$AAs?$AAt?$AAr?$AAt?$AAo?$AAx?$AA?3?$AA?3?$AAp@ 1011f1d0     libucrtd:output.obj
 0003:00010218       ??_C@_1BNO@NAODCKFA@?$AA_?$AA_?$AAc?$AAr?$AAt?$AA_?$AAs?$AAt?$AAd?$AAi?$AAo?$AA_?$AAo?$AAu?$AAt@ 1011f218     libucrtd:output.obj
 0003:00010458       ??_C@_1BMG@BBEFGBID@?$AA_?$AA_?$AAc?$AAr?$AAt?$AA_?$AAs?$AAt?$AAd?$AAi?$AAo?$AA_?$AAo?$AAu?$AAt@ 1011f458     libucrtd:output.obj
 0003:00010678       ??_C@_1CM@GJENOOEJ@?$AAc?$AA?5?$AA?$DN?$AA?$DN?$AA?5?$AA?8?$AA?2?$AA0?$AA?8?$AA?5?$AA?$HM?$AA?$HM?$AA?5?$AA?$CK?$AA_@ 1011f678     libucrtd:output.obj
 0003:000106b0       ??_C@_1GK@MNHIDABG@?$AA_?$AA_?$AAc?$AAr?$AAt?$AA_?$AAs?$AAt?$AAr?$AAt?$AAo?$AAx?$AA?3?$AA?3?$AAc@ 1011f6b0     libucrtd:output.obj
 0003:00010730       ??_C@_1BM@PNEBBBDO@?$AA_?$AAp?$AA?5?$AA?$CB?$AA?$DN?$AA?5?$AAn?$AAu?$AAl?$AAl?$AAp?$AAt?$AAr@ 1011f730     libucrtd:output.obj
 0003:00010758       ??_C@_1HA@MKKIHBHP@?$AA_?$AA_?$AAc?$AAr?$AAt?$AA_?$AAs?$AAt?$AAr?$AAt?$AAo?$AAx?$AA?3?$AA?3?$AAc@ 1011f758     libucrtd:output.obj
 0003:000107e0       ??_C@_1HA@CONLANFI@?$AA_?$AA_?$AAc?$AAr?$AAt?$AA_?$AAs?$AAt?$AAr?$AAt?$AAo?$AAx?$AA?3?$AA?3?$AAc@ 1011f7e0     libucrtd:output.obj
 0003:00010868       ??_C@_1HG@FCDBLOEG@?$AA_?$AA_?$AAc?$AAr?$AAt?$AA_?$AAs?$AAt?$AAr?$AAt?$AAo?$AAx?$AA?3?$AA?3?$AAc@ 1011f868     libucrtd:output.obj
 0003:000108f8       ___acrt_exception_action_table 1011f8f8     libucrtd:exception_filter.obj
 0003:000109a4       ___acrt_signal_action_table_count 1011f9a4     libucrtd:exception_filter.obj
 0003:000109a8       ___acrt_signal_action_table_size 1011f9a8     libucrtd:exception_filter.obj
 0003:000109ac       ___acrt_signal_action_first_fpe_index 1011f9ac     libucrtd:exception_filter.obj
 0003:000109b0       ___acrt_signal_action_fpe_count 1011f9b0     libucrtd:exception_filter.obj
 0003:000109b4       ??_C@_1BI@BGOHAHKC@?$AAm?$AAs?$AAc?$AAo?$AAr?$AAe?$AAe?$AA?4?$AAd?$AAl?$AAl@ 1011f9b4     libucrtd:exit.obj
 0003:000109d0       ??_C@_0P@MIGLKIOC@CorExitProcess@ 1011f9d0     libucrtd:exit.obj
 0003:000109e4       ??_C@_0DI@KNDIGDEP@minkernel?2crts?2ucrt?2src?2appcrt?2@ 1011f9e4     libucrtd:argv_parsing.obj
 0003:00010a28       ??_C@_1JO@PGBIJBAM@?$AAm?$AAo?$AAd?$AAe?$AA?5?$AA?$DN?$AA?$DN?$AA?5?$AA_?$AAc?$AAr?$AAt?$AA_?$AAa?$AAr@ 1011fa28     libucrtd:argv_parsing.obj
 0003:00010ae8       ??_C@_1HA@JMLCANEE@?$AAm?$AAi?$AAn?$AAk?$AAe?$AAr?$AAn?$AAe?$AAl?$AA?2?$AAc?$AAr?$AAt?$AAs?$AA?2@ 1011fae8     libucrtd:argv_parsing.obj
 0003:00010b70       ??_C@_1CM@LHOJELIC@?$AAc?$AAo?$AAm?$AAm?$AAo?$AAn?$AA_?$AAc?$AAo?$AAn?$AAf?$AAi?$AAg?$AAu?$AAr@ 1011fb70     libucrtd:argv_parsing.obj
 0003:00010ba8       ??_C@_0EG@LEHKHOEH@minkernel?2crts?2ucrt?2src?2desktop@ 1011fba8     libucrtd:environment_initialization.obj
 0003:00010c00       ??_C@_1IM@IMOFFPLG@?$AAm?$AAi?$AAn?$AAk?$AAe?$AAr?$AAn?$AAe?$AAl?$AA?2?$AAc?$AAr?$AAt?$AAs?$AA?2@ 1011fc00     libucrtd:environment_initialization.obj
 0003:00010ca8       ??_C@_1CG@MNNNBNAK@?$AAc?$AAr?$AAe?$AAa?$AAt?$AAe?$AA_?$AAe?$AAn?$AAv?$AAi?$AAr?$AAo?$AAn?$AAm@ 1011fca8     libucrtd:environment_initialization.obj
 0003:00010cd8       ??_C@_1HI@OOPIFFGA@?$AAt?$AAr?$AAa?$AAi?$AAt?$AAs?$AA?3?$AA?3?$AAt?$AAc?$AAs?$AAc?$AAp?$AAy?$AA_@ 1011fcd8     libucrtd:environment_initialization.obj
 0003:00010d68       ??_C@_0DC@NBHMIIKL@minkernel?2crts?2ucrt?2src?2appcrt?2@ 1011fd68     libucrtd:onexit.obj
 0003:00010e48       ??_C@_1GE@IHIGNC@?$AA?$CI?$AA?$CI?$AAr?$AAe?$AAs?$AAu?$AAl?$AAt?$AA_?$AAb?$AAu?$AAf?$AAf?$AAe?$AAr@ 1011fe48     libucrtd:makepath.obj
 0003:00010ec0       ??_C@_1GO@CPMBDHKK@?$AAm?$AAi?$AAn?$AAk?$AAe?$AAr?$AAn?$AAe?$AAl?$AA?2?$AAc?$AAr?$AAt?$AAs?$AA?2@ 1011fec0     libucrtd:makepath.obj
 0003:00010f44       ??_C@_1CE@GNNMAAIL@?$AAc?$AAo?$AAm?$AAm?$AAo?$AAn?$AA_?$AAm?$AAa?$AAk?$AAe?$AAp?$AAa?$AAt?$AAh@ 1011ff44     libucrtd:makepath.obj
 0003:00010f70       ??_C@_1CI@KGHCCPCN@?$AAc?$AAl?$AAe?$AAa?$AAn?$AAu?$AAp?$AA_?$AAa?$AAf?$AAt?$AAe?$AAr?$AA_?$AAe@ 1011ff70     libucrtd:makepath.obj
 0003:00010fa0       ??_C@_1M@HLGKFCJM@?$AAf?$AAa?$AAl?$AAs?$AAe@ 1011ffa0     libucrtd:splitpath.obj
 0003:00010fb0       ??_C@_1HA@BEJINBHO@?$AAm?$AAi?$AAn?$AAk?$AAe?$AAr?$AAn?$AAe?$AAl?$AA?2?$AAc?$AAr?$AAt?$AAs?$AA?2@ 1011ffb0     libucrtd:splitpath.obj
 0003:00011038       ??_C@_1DE@EEECINKG@?$AAc?$AAo?$AAm?$AAm?$AAo?$AAn?$AA_?$AAs?$AAp?$AAl?$AAi?$AAt?$AAp?$AAa?$AAt@ 10120038     libucrtd:splitpath.obj
 0003:00011090       ??_C@_04HJMOFLDF@Free@     10120090     libucrtd:debug_heap.obj
 0003:00011098       ??_C@_06EFAGIKOH@Normal@   10120098     libucrtd:debug_heap.obj
 0003:000110a0       ??_C@_03OGPFLFLO@CRT@      101200a0     libucrtd:debug_heap.obj
 0003:000110a4       ??_C@_06KMEJCCGM@Ignore@   101200a4     libucrtd:debug_heap.obj
 0003:000110ac       ??_C@_06PJIGMIJB@Client@   101200ac     libucrtd:debug_heap.obj
 0003:000110b4       ??_C@_1CE@LJFEPPMP@?$AA_?$AAC?$AAr?$AAt?$AAC?$AAh?$AAe?$AAc?$AAk?$AAM?$AAe?$AAm?$AAo?$AAr?$AAy@ 101200b4     libucrtd:debug_heap.obj
 0003:000110e0       ??_C@_1GG@OCLHPJPK@?$AAm?$AAi?$AAn?$AAk?$AAe?$AAr?$AAn?$AAe?$AAl?$AA?2?$AAc?$AAr?$AAt?$AAs?$AA?2@ 101200e0     libucrtd:debug_heap.obj
 0003:0001115c       ??_C@_0DF@BBEGIFEK@Client?5hook?5allocation?5failure?5@ 1012015c     libucrtd:debug_heap.obj
 0003:0001119c       ??_C@_0CB@CCLOLAHO@Client?5hook?5allocation?5failure?4@ 1012019c     libucrtd:debug_heap.obj
 0003:000111c4       ??_C@_0DC@JEMAGEKG@Error?3?5memory?5allocation?3?5bad?5m@ 101201c4     libucrtd:debug_heap.obj
 0003:00011200       ??_C@_0DI@KKJPDPGM@Client?5hook?5re?9allocation?5failu@ 10120200     libucrtd:debug_heap.obj
 0003:00011244       ??_C@_0CE@DOFMDOL@Client?5hook?5re?9allocation?5failu@ 10120244     libucrtd:debug_heap.obj
 0003:00011270       ??_C@_0FA@EFEIGJKG@Error?3?5memory?5allocation?3?5bad?5m@ 10120270     libucrtd:debug_heap.obj
 0003:000112d0       ??_C@_0EM@LGFLMAGJ@The?5Block?5at?50x?$CFp?5was?5allocated@ 101202d0     libucrtd:debug_heap.obj
 0003:0001132c       ??_C@_1DM@DEDLGNML@?$AA_?$AAC?$AAr?$AAt?$AAI?$AAs?$AAV?$AAa?$AAl?$AAi?$AAd?$AAH?$AAe?$AAa?$AAp@ 1012032c     libucrtd:debug_heap.obj
 0003:00011378       ??_C@_1PC@MCGKJLN@?$AAo?$AAl?$AAd?$AA_?$AAh?$AAe?$AAa?$AAd?$AA?9?$AA?$DO?$AA_?$AAl?$AAi?$AAn?$AAe@ 10120378     libucrtd:debug_heap.obj
 0003:0001149c       ??_C@_0DA@HFBKENN@Error?3?5possible?5heap?5corruption@ 1012049c     libucrtd:debug_heap.obj
 0003:000114d8       ??_C@_1JM@MCMEPJEP@?$AAr?$AAe?$AAa?$AAl?$AAl?$AAo?$AAc?$AAa?$AAt?$AAi?$AAo?$AAn?$AA_?$AAi?$AAs@ 101204d8     libucrtd:debug_heap.obj
 0003:00011594       ??_C@_1DM@LNOPKAIJ@?$AA_?$AA_?$AAa?$AAc?$AAr?$AAt?$AA_?$AAl?$AAa?$AAs?$AAt?$AA_?$AAb?$AAl?$AAo@ 10120594     libucrtd:debug_heap.obj
 0003:000115dc       ??_C@_1DO@HABCJBHO@?$AA_?$AA_?$AAa?$AAc?$AAr?$AAt?$AA_?$AAf?$AAi?$AAr?$AAs?$AAt?$AA_?$AAb?$AAl@ 101205dc     libucrtd:debug_heap.obj
 0003:00011628       ??_C@_1CC@CKEAHJPH@?$AAb?$AAl?$AAo?$AAc?$AAk?$AA?5?$AA?$CB?$AA?$DN?$AA?5?$AAn?$AAu?$AAl?$AAl?$AAp?$AAt@ 10120628     libucrtd:debug_heap.obj
 0003:00011650       ??_C@_1BI@HAPNGHDP@?$AA_?$AAe?$AAx?$AAp?$AAa?$AAn?$AAd?$AA_?$AAd?$AAb?$AAg@ 10120650     libucrtd:debug_heap.obj
 0003:00011670       ??_C@_0EJ@HEIBCIMJ@The?5Block?5at?50x?$CFp?5was?5allocated@ 10120670     libucrtd:debug_heap.obj
 0003:000116c8       ??_C@_0BL@KEIPLFAC@Client?5hook?5free?5failure?4?6@ 101206c8     libucrtd:debug_heap.obj
 0003:000116e8       ??_C@_1FA@KDNEBILF@?$AAi?$AAs?$AA_?$AAb?$AAl?$AAo?$AAc?$AAk?$AA_?$AAt?$AAy?$AAp?$AAe?$AA_?$AAv@ 101206e8     libucrtd:debug_heap.obj
 0003:00011748       ??_C@_0KI@JGFOHMEB@HEAP?5CORRUPTION?5DETECTED?3?5befor@ 10120748     libucrtd:debug_heap.obj
 0003:00011818       ??_C@_0IK@PJCGLBOB@HEAP?5CORRUPTION?5DETECTED?3?5befor@ 10120818     libucrtd:debug_heap.obj
 0003:000118c0       ??_C@_0KE@MBMNHHHN@HEAP?5CORRUPTION?5DETECTED?3?5after@ 101208c0     libucrtd:debug_heap.obj
 0003:00011988       ??_C@_0IG@LEMBDCJK@HEAP?5CORRUPTION?5DETECTED?3?5after@ 10120988     libucrtd:debug_heap.obj
 0003:00011a28       ??_C@_1OK@GFEOEJAF@?$AAh?$AAe?$AAa?$AAd?$AAe?$AAr?$AA?9?$AA?$DO?$AA_?$AAl?$AAi?$AAn?$AAe?$AA_?$AAn@ 10120a28     libucrtd:debug_heap.obj
 0003:00011b40       ??_C@_1ME@GFALMLNA@?$AAh?$AAe?$AAa?$AAd?$AAe?$AAr?$AA?9?$AA?$DO?$AA_?$AAb?$AAl?$AAo?$AAc?$AAk?$AA_@ 10120b40     libucrtd:debug_heap.obj
 0003:00011c2c       ??_C@_1DI@ILNOPEPI@?$AA_?$AA_?$AAa?$AAc?$AAr?$AAt?$AA_?$AAl?$AAa?$AAs?$AAt?$AA_?$AAb?$AAl?$AAo@ 10120c2c     libucrtd:debug_heap.obj
 0003:00011c70       ??_C@_1DK@KEHFGDIJ@?$AA_?$AA_?$AAa?$AAc?$AAr?$AAt?$AA_?$AAf?$AAi?$AAr?$AAs?$AAt?$AA_?$AAb?$AAl@ 10120c70     libucrtd:debug_heap.obj
 0003:00011cb8       ??_C@_1BG@MBKOGDLD@?$AA_?$AAm?$AAs?$AAi?$AAz?$AAe?$AA_?$AAd?$AAb?$AAg@ 10120cb8     libucrtd:debug_heap.obj
 0003:00011cd4       ??_C@_07OHKEFPKJ@DAMAGED@  10120cd4     libucrtd:debug_heap.obj
 0003:00011ce0       ??_C@_0KA@IHNJJKPL@HEAP?5CORRUPTION?5DETECTED?3?5on?5to@ 10120ce0     libucrtd:debug_heap.obj
 0003:00011da0       ??_C@_0IC@BBJIOOJH@HEAP?5CORRUPTION?5DETECTED?3?5on?5to@ 10120da0     libucrtd:debug_heap.obj
 0003:00011e40       ??_C@_0EG@DGJMPDBH@?$CFhs?5located?5at?50x?$CFp?5is?5?$CFIu?5byte@ 10120e40     libucrtd:debug_heap.obj
 0003:00011e94       ??_C@_0CI@JMLBEDHJ@?$CFhs?5located?5at?50x?$CFp?5is?5?$CFIu?5byte@ 10120e94     libucrtd:debug_heap.obj
 0003:00011ec8       ??_C@_0EG@GPFHANHO@Cycle?5in?5block?5list?5detected?5wh@ 10120ec8     libucrtd:debug_heap.obj
 0003:00011f1c       ??_C@_0BJ@ELMAOCAJ@Heap?5validation?5failed?4?6@ 10120f1c     libucrtd:debug_heap.obj
 0003:00011f40       ??_C@_1IE@BBIFDGEB@?$AAn?$AAe?$AAw?$AA_?$AAb?$AAi?$AAt?$AAs?$AA?5?$AA?$DN?$AA?$DN?$AA?5?$AA_?$AAC?$AAR@ 10120f40     libucrtd:debug_heap.obj
 0003:00011fe0       ??_C@_1BO@GJFDNMNF@?$AA_?$AAC?$AAr?$AAt?$AAS?$AAe?$AAt?$AAD?$AAb?$AAg?$AAF?$AAl?$AAa?$AAg@ 10120fe0     libucrtd:debug_heap.obj
 0003:00012004       ??_C@_1CI@CEIBPAIA@?$AAc?$AAa?$AAl?$AAl?$AAb?$AAa?$AAc?$AAk?$AA?5?$AA?$CB?$AA?$DN?$AA?5?$AAn?$AAu?$AAl@ 10121004     libucrtd:debug_heap.obj
 0003:00012034       ??_C@_1DE@GJCKCKEC@?$AA_?$AAC?$AAr?$AAt?$AAD?$AAo?$AAF?$AAo?$AAr?$AAA?$AAl?$AAl?$AAC?$AAl?$AAi@ 10121034     libucrtd:debug_heap.obj
 0003:00012074       ??_C@_1CC@BBKMONGA@?$AAs?$AAt?$AAa?$AAt?$AAe?$AA?5?$AA?$CB?$AA?$DN?$AA?5?$AAn?$AAu?$AAl?$AAl?$AAp?$AAt@ 10121074     libucrtd:debug_heap.obj
 0003:0001209c       ??_C@_1CE@NJJKELF@?$AA_?$AAC?$AAr?$AAt?$AAM?$AAe?$AAm?$AAC?$AAh?$AAe?$AAc?$AAk?$AAp?$AAo?$AAi@ 1012109c     libucrtd:debug_heap.obj
 0003:000120c8       ??_C@_0DP@LEFMFBOD@Bad?5memory?5block?5found?5at?50x?$CFp?4@ 101210c8     libucrtd:debug_heap.obj
 0003:00012114       ??_C@_0CB@EAAIGELO@Bad?5memory?5block?5found?5at?50x?$CFp?4@ 10121114     libucrtd:debug_heap.obj
 0003:0001213c       ??_C@_1CE@PDIENACM@?$AA_?$AAC?$AAr?$AAt?$AAM?$AAe?$AAm?$AAD?$AAi?$AAf?$AAf?$AAe?$AAr?$AAe?$AAn@ 1012113c     libucrtd:debug_heap.obj
 0003:00012168       ??_C@_1CK@FFKLBHMD@?$AAo?$AAl?$AAd?$AA_?$AAs?$AAt?$AAa?$AAt?$AAe?$AA?5?$AA?$CB?$AA?$DN?$AA?5?$AAn?$AAu@ 10121168     libucrtd:debug_heap.obj
 0003:0001219c       ??_C@_1CK@NJPPHDJP@?$AAn?$AAe?$AAw?$AA_?$AAs?$AAt?$AAa?$AAt?$AAe?$AA?5?$AA?$CB?$AA?$DN?$AA?5?$AAn?$AAu@ 1012119c     libucrtd:debug_heap.obj
 0003:000121d0       ??_C@_1CC@DIJAHFFJ@?$AAp?$AAr?$AAi?$AAn?$AAt?$AA_?$AAb?$AAl?$AAo?$AAc?$AAk?$AA_?$AAd?$AAa?$AAt@ 101211d0     libucrtd:debug_heap.obj
 0003:000121f8       ??_C@_0BA@HJBKCELP@?5Data?3?5?$DM?$CFs?$DO?5?$CFs?6@ 101211f8     libucrtd:debug_heap.obj
 0003:0001220c       ??_C@_0BE@KCIPKCIA@Dumping?5objects?5?9?$DO?6@ 1012120c     libucrtd:debug_heap.obj
 0003:00012224       ??_C@_0BE@OIEFNFL@?$CDFile?5Error?$CD?$CI?$CFd?$CJ?5?3?5@ 10121224     libucrtd:debug_heap.obj
 0003:0001223c       ??_C@_0L@JMEFFCCJ@?$CFhs?$CI?$CFd?$CJ?5?3?5@ 1012123c     libucrtd:debug_heap.obj
 0003:0001224c       ??_C@_06PKLGBFGM@?$HL?$CFld?$HN?5@ 1012124c     libucrtd:debug_heap.obj
 0003:00012254       ??_C@_0DD@GHNAAKBB@client?5block?5at?50x?$CFp?0?5subtype?5?$CF@ 10121254     libucrtd:debug_heap.obj
 0003:00012294       ??_C@_0CH@FAGDDGPN@normal?5block?5at?50x?$CFp?0?5?$CFIu?5bytes@ 10121294     libucrtd:debug_heap.obj
 0003:000122c4       ??_C@_0DA@MDLBNIBM@crt?5block?5at?50x?$CFp?0?5subtype?5?$CFx?0?5@ 101212c4     libucrtd:debug_heap.obj
 0003:00012300       ??_C@_0BH@GFGKJDCO@Object?5dump?5complete?4?6@ 10121300     libucrtd:debug_heap.obj
 0003:0001231c       ??_C@_0BI@JBFPOEJA@Detected?5memory?5leaks?$CB?6@ 1012131c     libucrtd:debug_heap.obj
 0003:00012338       ??_C@_1CM@MPNIBKGK@?$AA_?$AAC?$AAr?$AAt?$AAM?$AAe?$AAm?$AAD?$AAu?$AAm?$AAp?$AAS?$AAt?$AAa?$AAt@ 10121338     libucrtd:debug_heap.obj
 0003:0001236c       ??_C@_0BO@DACNIABB@?$CFId?5bytes?5in?5?$CFId?5?$CFhs?5Blocks?4?6@ 1012136c     libucrtd:debug_heap.obj
 0003:00012390       ??_C@_0CB@BLHDAFNE@Largest?5number?5used?3?5?$CFId?5bytes?4@ 10121390     libucrtd:debug_heap.obj
 0003:000123b8       ??_C@_0BP@DEDHGGGI@Total?5allocations?3?5?$CFId?5bytes?4?6@ 101213b8     libucrtd:debug_heap.obj
 0003:000123e0       ??_C@_1CM@JKMDHENJ@?$AAI?$AAS?$AA_?$AA2?$AA_?$AAP?$AAO?$AAW?$AA_?$AAN?$AA?$CI?$AAa?$AAl?$AAi?$AAg@ 101213e0     libucrtd:debug_heap.obj
 0003:00012414       ??_C@_1DG@DONCJBBJ@?$AA_?$AAa?$AAl?$AAi?$AAg?$AAn?$AAe?$AAd?$AA_?$AAo?$AAf?$AAf?$AAs?$AAe?$AAt@ 10121414     libucrtd:debug_heap.obj
 0003:00012454       ??_C@_1DK@LFLKFPDA@?$AAo?$AAf?$AAf?$AAs?$AAe?$AAt?$AA?5?$AA?$DN?$AA?$DN?$AA?5?$AA0?$AA?5?$AA?$HM?$AA?$HM?$AA?5@ 10121454     libucrtd:debug_heap.obj
 0003:000124a0       ??_C@_0EI@NDNJMAJK@The?5block?5at?50x?$CFp?5was?5not?5alloc@ 101214a0     libucrtd:debug_heap.obj
 0003:000124f8       ??_C@_0DL@PGHMMKNE@Damage?5before?50x?$CFp?5which?5was?5al@ 101214f8     libucrtd:debug_heap.obj
 0003:00012540       ??_C@_1DI@NINIKFFK@?$AA_?$AAa?$AAl?$AAi?$AAg?$AAn?$AAe?$AAd?$AA_?$AAo?$AAf?$AAf?$AAs?$AAe?$AAt@ 10121540     libucrtd:debug_heap.obj
 0003:00012584       ??_C@_1CG@CEGMHIMN@?$AA_?$AAa?$AAl?$AAi?$AAg?$AAn?$AAe?$AAd?$AA_?$AAm?$AAs?$AAi?$AAz?$AAe?$AA_@ 10121584     libucrtd:debug_heap.obj
 0003:000125b8       ??_C@_0EF@PGELACII@The?5block?5at?50x?$CFp?5was?5not?5alloc@ 101215b8     libucrtd:debug_heap.obj
 0003:0001260c       ??_C@_1DA@LLLMNMKI@?$AAa?$AAb?$AAo?$AAr?$AAt?$AA?$CI?$AA?$CJ?$AA?5?$AAh?$AAa?$AAs?$AA?5?$AAb?$AAe?$AAe@ 1012160c     libucrtd:abort.obj
 0003:00012648       ??_C@_1FA@IFFFOLDJ@?$AAn?$AAR?$AAp?$AAt?$AAT?$AAy?$AAp?$AAe?$AA?5?$AA?$DO?$AA?$DN?$AA?5?$AA0?$AA?5?$AA?$CG@ 10121648     libucrtd:dbgrptt.obj
 0003:000126a8       ??_C@_1GA@LFAOKOOP@?$AAm?$AAi?$AAn?$AAk?$AAe?$AAr?$AAn?$AAe?$AAl?$AA?2?$AAc?$AAr?$AAt?$AAs?$AA?2@ 101216a8     libucrtd:dbgrptt.obj
 0003:0001271c       ??_C@_1CE@FIHIECNJ@?$AA_?$AAC?$AAr?$AAt?$AAS?$AAe?$AAt?$AAR?$AAe?$AAp?$AAo?$AAr?$AAt?$AAM?$AAo@ 1012171c     libucrtd:dbgrptt.obj
 0003:00012748       ??_C@_1NK@LOFHIHFC@?$AAf?$AAM?$AAo?$AAd?$AAe?$AA?5?$AA?$DN?$AA?$DN?$AA?5?$AA_?$AAC?$AAR?$AAT?$AAD?$AAB@ 10121748     libucrtd:dbgrptt.obj
 0003:00012850       ??_C@_1CE@IKKEDCME@?$AA_?$AAC?$AAr?$AAt?$AAS?$AAe?$AAt?$AAR?$AAe?$AAp?$AAo?$AAr?$AAt?$AAF?$AAi@ 10121850     libucrtd:dbgrptt.obj
 0003:0001287c       ??_C@_1CA@KHJHLKA@?$AA_?$AAV?$AAC?$AAr?$AAt?$AAD?$AAb?$AAg?$AAR?$AAe?$AAp?$AAo?$AAr?$AAt?$AAA@ 1012187c     libucrtd:dbgrptt.obj
 0003:000128a8       ??_C@_1FA@JPHJBHEM@?$AA_?$AAi?$AAt?$AAo?$AAa?$AA_?$AAs?$AA?$CI?$AAn?$AAL?$AAi?$AAn?$AAe?$AA?0?$AA?5@ 101218a8     libucrtd:dbgrptt.obj
 0003:00012908       ??_C@_0CG@BNGLOCEO@Second?5Chance?5Assertion?5Failed?3@ 10121908     libucrtd:dbgrptt.obj
 0003:00012938       ??_C@_0P@DFJNDPOP@?$DMfile?5unknown?$DO@ 10121938     libucrtd:dbgrptt.obj
 0003:0001294c       ??_C@_07BHGABMGB@?0?5Line?5@ 1012194c     libucrtd:dbgrptt.obj
 0003:00012958       ??_C@_1JI@GAALPGBM@?$AAs?$AAt?$AAr?$AAc?$AAp?$AAy?$AA_?$AAs?$AA?$CI?$AAs?$AAz?$AAU?$AAs?$AAe?$AAr@ 10121958     libucrtd:dbgrptt.obj
 0003:00012a10       ??_C@_0CL@EACFGMNB@_CrtDbgReport?3?5String?5too?5long?5@ 10121a10     libucrtd:dbgrptt.obj
 0003:00012a48       ??_C@_1KK@GIGAEDMO@?$AAs?$AAt?$AAr?$AAc?$AAp?$AAy?$AA_?$AAs?$AA?$CI?$AAs?$AAz?$AAL?$AAi?$AAn?$AAe@ 10121a48     libucrtd:dbgrptt.obj
 0003:00012b14       ??_C@_0BD@CAENFOHP@Assertion?5failed?3?5@ 10121b14     libucrtd:dbgrptt.obj
 0003:00012b2c       ??_C@_0BC@LAIDCHCH@Assertion?5failed?$CB@ 10121b2c     libucrtd:dbgrptt.obj
 0003:00012b48       ??_C@_1FK@NPGBPOFO@?$AAs?$AAt?$AAr?$AAc?$AAa?$AAt?$AA_?$AAs?$AA?$CI?$AAs?$AAz?$AAL?$AAi?$AAn?$AAe@ 10121b48     libucrtd:dbgrptt.obj
 0003:00012bb8       ??_C@_1EI@CACDLAFK@?$AAs?$AAt?$AAr?$AAc?$AAa?$AAt?$AA_?$AAs?$AA?$CI?$AAs?$AAz?$AAL?$AAi?$AAn?$AAe@ 10121bb8     libucrtd:dbgrptt.obj
 0003:00012c10       ??_C@_01LIIJDEN@?$AN@      10121c10     libucrtd:dbgrptt.obj
 0003:00012c18       ??_C@_1EI@LDHJEDO@?$AAs?$AAt?$AAr?$AAc?$AAa?$AAt?$AA_?$AAs?$AA?$CI?$AAs?$AAz?$AAL?$AAi?$AAn?$AAe@ 10121c18     libucrtd:dbgrptt.obj
 0003:00012c70       ??_C@_0M@IPILFDFN@?$CFs?$CI?$CFd?$CJ?5?3?5?$CFs@ 10121c70     libucrtd:dbgrptt.obj
 0003:00012c80       ??_C@_1JG@CPKCIOEE@?$AAs?$AAt?$AAr?$AAc?$AAp?$AAy?$AA_?$AAs?$AA?$CI?$AAs?$AAz?$AAO?$AAu?$AAt?$AAM@ 10121c80     libucrtd:dbgrptt.obj
 0003:00012d38       ??_C@_1FI@IBIOIHEG@?$AAs?$AAt?$AAr?$AAc?$AAp?$AAy?$AA_?$AAs?$AA?$CI?$AAs?$AAz?$AAO?$AAu?$AAt?$AAM@ 10121d38     libucrtd:dbgrptt.obj
 0003:00012da8       ??_C@_1IM@OOKIFKOH@?$AAe?$AA?5?$AA?$DN?$AA?5?$AAm?$AAb?$AAs?$AAt?$AAo?$AAw?$AAc?$AAs?$AA_?$AAs?$AA?$CI@ 10121da8     libucrtd:dbgrptt.obj
 0003:00012e50       ??_C@_1MC@IGEECMDB@?$AAw?$AAc?$AAs?$AAc?$AAp?$AAy?$AA_?$AAs?$AA?$CI?$AAs?$AAz?$AAO?$AAu?$AAt?$AAM@ 10121e50     libucrtd:dbgrptt.obj
 0003:00012f38       ??_C@_1HO@PJOFIKFE@?$AA_?$AAC?$AAr?$AAt?$AAD?$AAb?$AAg?$AAR?$AAe?$AAp?$AAo?$AAr?$AAt?$AA?3?$AA?5@ 10121f38     libucrtd:dbgrptt.obj
 0003:00012fd0       ??_C@_1CA@HPALHDOD@?$AA_?$AAV?$AAC?$AAr?$AAt?$AAD?$AAb?$AAg?$AAR?$AAe?$AAp?$AAo?$AAr?$AAt?$AAW@ 10121fd0     libucrtd:dbgrptt.obj
 0003:00012ff8       ??_C@_1FA@CNLLOMHI@?$AA_?$AAi?$AAt?$AAo?$AAw?$AA_?$AAs?$AA?$CI?$AAn?$AAL?$AAi?$AAn?$AAe?$AA?0?$AA?5@ 10121ff8     libucrtd:dbgrptt.obj
 0003:00013058       ??_C@_1EM@MJFLEDMB@?$AAS?$AAe?$AAc?$AAo?$AAn?$AAd?$AA?5?$AAC?$AAh?$AAa?$AAn?$AAc?$AAe?$AA?5?$AAA@ 10122058     libucrtd:dbgrptt.obj
 0003:000130b4       ??_C@_1BO@OCHMLCAG@?$AA?$DM?$AAf?$AAi?$AAl?$AAe?$AA?5?$AAu?$AAn?$AAk?$AAn?$AAo?$AAw?$AAn?$AA?$DO@ 101220b4     libucrtd:dbgrptt.obj
 0003:000130d8       ??_C@_1BA@ELMMDCFC@?$AA?0?$AA?5?$AAL?$AAi?$AAn?$AAe?$AA?5@ 101220d8     libucrtd:dbgrptt.obj
 0003:000130ec       ??_C@_13LBAGMAIH@?$AA?6@   101220ec     libucrtd:dbgrptt.obj
 0003:000130f0       ??_C@_1JK@KHFABAEO@?$AAw?$AAc?$AAs?$AAc?$AAp?$AAy?$AA_?$AAs?$AA?$CI?$AAs?$AAz?$AAU?$AAs?$AAe?$AAr@ 101220f0     libucrtd:dbgrptt.obj
 0003:000131a8       ??_C@_1KO@DGAHENCH@?$AAw?$AAc?$AAs?$AAc?$AAp?$AAy?$AA_?$AAs?$AA?$CI?$AAs?$AAz?$AAL?$AAi?$AAn?$AAe@ 101221a8     libucrtd:dbgrptt.obj
 0003:00013278       ??_C@_1CG@FFFGGODN@?$AAA?$AAs?$AAs?$AAe?$AAr?$AAt?$AAi?$AAo?$AAn?$AA?5?$AAf?$AAa?$AAi?$AAl?$AAe@ 10122278     libucrtd:dbgrptt.obj
 0003:000132a8       ??_C@_1CE@OJBNHDMO@?$AAA?$AAs?$AAs?$AAe?$AAr?$AAt?$AAi?$AAo?$AAn?$AA?5?$AAf?$AAa?$AAi?$AAl?$AAe@ 101222a8     libucrtd:dbgrptt.obj
 0003:000132d8       ??_C@_1FK@HPADHBBD@?$AAw?$AAc?$AAs?$AAc?$AAa?$AAt?$AA_?$AAs?$AA?$CI?$AAs?$AAz?$AAL?$AAi?$AAn?$AAe@ 101222d8     libucrtd:dbgrptt.obj
 0003:00013348       ??_C@_1EK@NMDFGHMF@?$AAw?$AAc?$AAs?$AAc?$AAa?$AAt?$AA_?$AAs?$AA?$CI?$AAs?$AAz?$AAL?$AAi?$AAn?$AAe@ 10122348     libucrtd:dbgrptt.obj
 0003:000133a0       ??_C@_13CMNBPIDO@?$AA?$AN@ 101223a0     libucrtd:dbgrptt.obj
 0003:000133a8       ??_C@_1EK@PHCBEDKB@?$AAw?$AAc?$AAs?$AAc?$AAa?$AAt?$AA_?$AAs?$AA?$CI?$AAs?$AAz?$AAL?$AAi?$AAn?$AAe@ 101223a8     libucrtd:dbgrptt.obj
 0003:00013400       ??_C@_1BM@GIBPMLNL@?$AA?$CF?$AAl?$AAs?$AA?$CI?$AA?$CF?$AAd?$AA?$CJ?$AA?5?$AA?3?$AA?5?$AA?$CF?$AAl?$AAs@ 10122400     libucrtd:dbgrptt.obj
 0003:00013428       ??_C@_1JI@EACPGHID@?$AAw?$AAc?$AAs?$AAc?$AAp?$AAy?$AA_?$AAs?$AA?$CI?$AAs?$AAz?$AAO?$AAu?$AAt?$AAM@ 10122428     libucrtd:dbgrptt.obj
 0003:000134e0       ??_C@_1FI@DBAIJPJE@?$AAw?$AAc?$AAs?$AAc?$AAp?$AAy?$AA_?$AAs?$AA?$CI?$AAs?$AAz?$AAO?$AAu?$AAt?$AAM@ 101224e0     libucrtd:dbgrptt.obj
 0003:00013550       ??_C@_1IK@LEBMBAP@?$AAw?$AAc?$AAs?$AAt?$AAo?$AAm?$AAb?$AAs?$AA_?$AAs?$AA?$CI?$AAn?$AAu?$AAl?$AAl@ 10122550     libucrtd:dbgrptt.obj
 0003:000135f8       ??_C@_1MA@LBAMNNOB@?$AAs?$AAt?$AAr?$AAc?$AAp?$AAy?$AA_?$AAs?$AA?$CI?$AAs?$AAz?$AAO?$AAu?$AAt?$AAM@ 101225f8     libucrtd:dbgrptt.obj
 0003:000136e0       ??_C@_0DP@GNPEPHJD@_CrtDbgReport?3?5String?5too?5long?5@ 101226e0     libucrtd:dbgrptt.obj
 0003:00013730       ??_C@_1IE@CPGKIAGP@?$AAw?$AAc?$AAs?$AAt?$AAo?$AAm?$AAb?$AAs?$AA_?$AAs?$AA?$CI?$AA?$CG?$AAr?$AAe?$AAt@ 10122730     libucrtd:dbgrptt.obj
 0003:00013980       ??_C@_1CE@JMFACANE@?$AAr?$AAe?$AAs?$AAu?$AAl?$AAt?$AA?5?$AA?$CB?$AA?$DN?$AA?5?$AAn?$AAu?$AAl?$AAl?$AAp@ 10122980     libucrtd:errno.obj
 0003:000139b0       ??_C@_1FM@MJJGEFKM@?$AAm?$AAi?$AAn?$AAk?$AAe?$AAr?$AAn?$AAe?$AAl?$AA?2?$AAc?$AAr?$AAt?$AAs?$AA?2@ 101229b0     libucrtd:errno.obj
 0003:00013a20       ??_C@_1BG@KCMPBBDK@?$AA_?$AAg?$AAe?$AAt?$AA_?$AAe?$AAr?$AAr?$AAn?$AAo@ 10122a20     libucrtd:errno.obj
 0003:00013a3c       ??_C@_1BM@INIPHHDD@?$AA_?$AAg?$AAe?$AAt?$AA_?$AAd?$AAo?$AAs?$AAe?$AAr?$AAr?$AAn?$AAo@ 10122a3c     libucrtd:errno.obj
 0003:00013a60       ??_C@_0CP@JIIONAG@minkernel?2crts?2ucrt?2src?2appcrt?2@ 10122a60     libucrtd:signal.obj
 0003:00013a98       ??_C@_1DA@NBILLKNO@?$AAl?$AAo?$AAc?$AAa?$AAl?$AA_?$AAa?$AAc?$AAt?$AAi?$AAo?$AAn?$AA?5?$AA?$CB?$AA?$DN@ 10122a98     libucrtd:signal.obj
 0003:00013ad8       ??_C@_1FO@CCGDPEKE@?$AAm?$AAi?$AAn?$AAk?$AAe?$AAr?$AAn?$AAe?$AAl?$AA?2?$AAc?$AAr?$AAt?$AAs?$AA?2@ 10122ad8     libucrtd:signal.obj
 0003:00013b48       ??_C@_1M@DMJEIKHL@?$AAr?$AAa?$AAi?$AAs?$AAe@ 10122b48     libucrtd:signal.obj
 0003:00013b58       ??_C@_1DO@MLNEDKGB@?$AA?$CI?$AA?$CC?$AAI?$AAn?$AAv?$AAa?$AAl?$AAi?$AAd?$AA?5?$AAs?$AAi?$AAg?$AAn?$AAa@ 10122b58     libucrtd:signal.obj
 0003:00013bf4       ??_C@_03OEIAHPBN@INF@      10122bf4     libucrtd:cvt.obj
 0003:00013bf8       ??_C@_03OJHLLCGB@inf@      10122bf8     libucrtd:cvt.obj
 0003:00013bfc       ??_C@_03LKNCIKJB@NAN@      10122bfc     libucrtd:cvt.obj
 0003:00013c00       ??_C@_03LHCJEHON@nan@      10122c00     libucrtd:cvt.obj
 0003:00013c04       ??_C@_09OFJJIMPC@NAN?$CISNAN?$CJ@ 10122c04     libucrtd:cvt.obj
 0003:00013c10       ??_C@_09IPFBKMDL@nan?$CIsnan?$CJ@ 10122c10     libucrtd:cvt.obj
 0003:00013c1c       ??_C@_08IKHNHAJ@NAN?$CIIND?$CJ@ 10122c1c     libucrtd:cvt.obj
 0003:00013c28       ??_C@_08OFCDMILK@nan?$CIind?$CJ@ 10122c28     libucrtd:cvt.obj
 0003:00013c38       ??_C@_1FO@GKAKAPLI@?$AAm?$AAi?$AAn?$AAk?$AAe?$AAr?$AAn?$AAe?$AAl?$AA?2?$AAc?$AAr?$AAt?$AAs?$AA?2@ 10122c38     libucrtd:cvt.obj
 0003:00013ca8       ??_C@_1DE@EHGIGIDK@?$AAf?$AAp?$AA_?$AAf?$AAo?$AAr?$AAm?$AAa?$AAt?$AA_?$AAn?$AAa?$AAn?$AA_?$AAo@ 10122ca8     libucrtd:cvt.obj
 0003:00013ce8       ??_C@_1LI@PCMLJPCO@?$AAs?$AAt?$AAr?$AAc?$AAp?$AAy?$AA_?$AAs?$AA?$CI?$AA?5?$AAr?$AAe?$AAs?$AAu?$AAl@ 10122ce8     libucrtd:cvt.obj
 0003:00013dc8       ??_C@_1KO@LJHOFBCD@?$AAr?$AAe?$AAs?$AAu?$AAl?$AAt?$AA_?$AAb?$AAu?$AAf?$AAf?$AAe?$AAr?$AA_?$AAc@ 10122dc8     libucrtd:cvt.obj
 0003:00013e98       ??_C@_1CK@BOLHOMFO@?$AAf?$AAp?$AA_?$AAf?$AAo?$AAr?$AAm?$AAa?$AAt?$AA_?$AAe?$AA_?$AAi?$AAn?$AAt@ 10122e98     libucrtd:cvt.obj
 0003:00013ed0       ??_C@_1BBE@LHDOMEDC@?$AAs?$AAt?$AAr?$AAc?$AAp?$AAy?$AA_?$AAs?$AA?$CI?$AA?5?$AAp?$AA?0?$AA?5?$AAr?$AAe@ 10122ed0     libucrtd:cvt.obj
 0003:0001401c       ??_C@_05KLBDPFGC@e?$CL000@ 1012301c     libucrtd:cvt.obj
 0003:00014028       ??_C@_1IC@FILKPBAB@?$AAr?$AAe?$AAs?$AAu?$AAl?$AAt?$AA_?$AAb?$AAu?$AAf?$AAf?$AAe?$AAr?$AA_?$AAc@ 10123028     libucrtd:cvt.obj
 0003:000140c4       ??_C@_1BI@PNBDLNBB@?$AAf?$AAp?$AA_?$AAf?$AAo?$AAr?$AAm?$AAa?$AAt?$AA_?$AAa@ 101230c4     libucrtd:cvt.obj
 0003:000140e0       ??_C@_1DC@MGKAFPFD@?$AAr?$AAe?$AAs?$AAu?$AAl?$AAt?$AA_?$AAb?$AAu?$AAf?$AAf?$AAe?$AAr?$AA?5?$AA?$CB@ 101230e0     libucrtd:cvt.obj
 0003:0001411c       ??_C@_1CC@LDAHJAKK@?$AA_?$AA_?$AAa?$AAc?$AAr?$AAt?$AA_?$AAf?$AAp?$AA_?$AAf?$AAo?$AAr?$AAm?$AAa@ 1012311c     libucrtd:cvt.obj
 0003:00014144       ??_C@_1DA@NMLJJOCO@?$AAr?$AAe?$AAs?$AAu?$AAl?$AAt?$AA_?$AAb?$AAu?$AAf?$AAf?$AAe?$AAr?$AA_?$AAc@ 10123144     libucrtd:cvt.obj
 0003:00014180       ??_C@_1DE@MNOPBCOK@?$AAs?$AAc?$AAr?$AAa?$AAt?$AAc?$AAh?$AA_?$AAb?$AAu?$AAf?$AAf?$AAe?$AAr?$AA?5@ 10123180     libucrtd:cvt.obj
 0003:000141c0       ??_C@_1DC@CKBKNFKH@?$AAs?$AAc?$AAr?$AAa?$AAt?$AAc?$AAh?$AA_?$AAb?$AAu?$AAf?$AAf?$AAe?$AAr?$AA_@ 101231c0     libucrtd:cvt.obj
 0003:00014200       ??_C@_1EI@JAHBOGIM@?$AA?$CI?$AA?$CC?$AAU?$AAn?$AAs?$AAu?$AAp?$AAp?$AAo?$AAr?$AAt?$AAe?$AAd?$AA?5?$AAf@ 10123200     libucrtd:cvt.obj
 0003:00014258       ??_C@_1DK@NBNOAGKB@?$AAd?$AAe?$AAs?$AAt?$AAi?$AAn?$AAa?$AAt?$AAi?$AAo?$AAn?$AA_?$AAc?$AAo?$AAu@ 10123258     libucrtd:wctomb.obj
 0003:000142a0       ??_C@_1GE@FCCEPHFG@?$AAm?$AAi?$AAn?$AAk?$AAe?$AAr?$AAn?$AAe?$AAl?$AA?2?$AAc?$AAr?$AAt?$AAs?$AA?2@ 101232a0     libucrtd:wctomb.obj
 0003:00014318       ??_C@_1CC@DNLKBKLK@?$AA_?$AAw?$AAc?$AAt?$AAo?$AAm?$AAb?$AA_?$AAi?$AAn?$AAt?$AAe?$AAr?$AAn?$AAa@ 10123318     libucrtd:wctomb.obj
 0003:00014340       ??_C@_1CM@ENFEGCNE@?$AAd?$AAe?$AAs?$AAt?$AAi?$AAn?$AAa?$AAt?$AAi?$AAo?$AAn?$AA_?$AAc?$AAo?$AAu@ 10123340     libucrtd:wctomb.obj
 0003:00014378       ??_C@_1MK@HFAFPEDL@?$AAl?$AAo?$AAc?$AAa?$AAl?$AAe?$AA?9?$AA?$DO?$AAl?$AAo?$AAc?$AAi?$AAn?$AAf?$AAo@ 10123378     libucrtd:mbtowc.obj
 0003:00014470       ??_C@_1GE@CGIHMDEJ@?$AAm?$AAi?$AAn?$AAk?$AAe?$AAr?$AAn?$AAe?$AAl?$AA?2?$AAc?$AAr?$AAt?$AAs?$AA?2@ 10123470     libucrtd:mbtowc.obj
 0003:000144e8       ??_C@_1HA@KNBGJAIN@?$AAU?$AAT?$AAF?$AA?9?$AA8?$AA?5?$AAi?$AAs?$AAn?$AA?8?$AAt?$AA?5?$AAs?$AAu?$AAp@ 101234e8     libucrtd:mbtowc.obj
 0003:00014570       ??_C@_1OM@FCINAOPP@?$AAl?$AAo?$AAc?$AAa?$AAl?$AAe?$AA?9?$AA?$DO?$AAl?$AAo?$AAc?$AAi?$AAn?$AAf?$AAo@ 10123570     libucrtd:mbtowc.obj
 0003:00014690       ??_C@_1GA@CPNOFAH@?$AAl?$AAo?$AAc?$AAa?$AAl?$AAe?$AA?9?$AA?$DO?$AAl?$AAo?$AAc?$AAi?$AAn?$AAf?$AAo@ 10123690     libucrtd:mbtowc.obj
 0003:00014704       ??_C@_1CC@HOFKGKIJ@?$AAp?$AAm?$AAb?$AAs?$AAt?$AA?5?$AA?$CB?$AA?$DN?$AA?5?$AAn?$AAu?$AAl?$AAl?$AAp?$AAt@ 10123704     libucrtd:mbrtowc.obj
 0003:00014730       ??_C@_1GG@MCCIENJO@?$AAm?$AAi?$AAn?$AAk?$AAe?$AAr?$AAn?$AAe?$AAl?$AA?2?$AAc?$AAr?$AAt?$AAs?$AA?2@ 10123730     libucrtd:mbrtowc.obj
 0003:000147b0       ??_C@_1GC@GKDIDINO@?$AAl?$AAo?$AAc?$AAa?$AAl?$AAe?$AA_?$AAm?$AAb?$AA_?$AAc?$AAu?$AAr?$AA_?$AAm@ 101237b0     libucrtd:mbrtowc.obj
 0003:00014828       ??_C@_1BM@DAAPEENN@?$AAp?$AAs?$AA?5?$AA?$CB?$AA?$DN?$AA?5?$AAn?$AAu?$AAl?$AAl?$AAp?$AAt?$AAr@ 10123828     libucrtd:mbrtowc.obj
 0003:0001484c       ??_C@_1CE@GMDJEGCL@?$AA_?$AAm?$AAb?$AAs?$AAr?$AAt?$AAo?$AAw?$AAc?$AAs?$AA_?$AAh?$AAe?$AAl?$AAp@ 1012384c     libucrtd:mbrtowc.obj
 0003:00014878       ??_C@_1JI@OGEJMCOI@?$AA?$CI?$AAd?$AAs?$AAt?$AA?5?$AA?$DN?$AA?$DN?$AA?5?$AAn?$AAu?$AAl?$AAl?$AAp?$AAt?$AAr@ 10123878     libucrtd:mbrtowc.obj
 0003:00014930       ??_C@_1CK@CCGHPKNN@?$AAm?$AAb?$AAs?$AAr?$AAt?$AAo?$AAw?$AAc?$AAs?$AA_?$AAs?$AA_?$AAi?$AAn?$AAt@ 10123930     libucrtd:mbrtowc.obj
 0003:00014964       ??_C@_1CO@EPBLOHBA@?$AAs?$AAi?$AAz?$AAe?$AAI?$AAn?$AAW?$AAo?$AAr?$AAd?$AAs?$AA?5?$AA?$DM?$AA?$DN?$AA?5@ 10123964     libucrtd:mbrtowc.obj
 0003:000149a0       ??_C@_1EK@MCEFBPIK@?$AAr?$AAe?$AAt?$AAv?$AAa?$AAl?$AA?5?$AA?$CB?$AA?$DN?$AA?5?$AA_?$AA_?$AAc?$AAr?$AAt@ 101239a0     libucrtd:mbrtowc.obj
 0003:000149f8       ??_C@_1BO@MHPFFFJJ@?$AAs?$AAt?$AAr?$AAe?$AAa?$AAm?$AA?4?$AAv?$AAa?$AAl?$AAi?$AAd?$AA?$CI?$AA?$CJ@ 101239f8     libucrtd:fileno.obj
 0003:00014a20       ??_C@_1GA@KCAHHNGP@?$AAm?$AAi?$AAn?$AAk?$AAe?$AAr?$AAn?$AAe?$AAl?$AA?2?$AAc?$AAr?$AAt?$AAs?$AA?2@ 10123a20     libucrtd:fileno.obj
 0003:00014a94       ??_C@_1BA@JGHIEKKM@?$AA_?$AAf?$AAi?$AAl?$AAe?$AAn?$AAo@ 10123a94     libucrtd:fileno.obj
 0003:00014aa8       ??_C@_0CP@GDJHIDC@minkernel?2crts?2ucrt?2src?2appcrt?2@ 10123aa8     libucrtd:_file.obj
 0003:00014ae0       ??_C@_1DC@OGOLMDEL@?$AAp?$AAu?$AAb?$AAl?$AAi?$AAc?$AA_?$AAs?$AAt?$AAr?$AAe?$AAa?$AAm?$AA?5?$AA?$CB@ 10123ae0     libucrtd:_file.obj
 0003:00014b20       ??_C@_1FO@IEGKHABE@?$AAm?$AAi?$AAn?$AAk?$AAe?$AAr?$AAn?$AAe?$AAl?$AA?2?$AAc?$AAr?$AAt?$AAs?$AA?2@ 10123b20     libucrtd:_file.obj
 0003:00014b90       ??_C@_1DI@PJGMCDLC@?$AA_?$AAg?$AAe?$AAt?$AA_?$AAs?$AAt?$AAr?$AAe?$AAa?$AAm?$AA_?$AAb?$AAu?$AAf@ 10123b90     libucrtd:_file.obj
 0003:00014bd8       ??_C@_1GA@OJHMFOOJ@?$AAm?$AAi?$AAn?$AAk?$AAe?$AAr?$AAn?$AAe?$AAl?$AA?2?$AAc?$AAr?$AAt?$AAs?$AA?2@ 10123bd8     libucrtd:fputwc.obj
 0003:00014c4c       ??_C@_1CC@IKJIOFIO@?$AA_?$AAf?$AAp?$AAu?$AAt?$AAw?$AAc?$AA_?$AAi?$AAn?$AAt?$AAe?$AAr?$AAn?$AAa@ 10123c4c     libucrtd:fputwc.obj
 0003:00014c78       ??_C@_1FO@FNOAOMLP@?$AAm?$AAi?$AAn?$AAk?$AAe?$AAr?$AAn?$AAe?$AAl?$AA?2?$AAc?$AAr?$AAt?$AAs?$AA?2@ 10123c78     libucrtd:fputc.obj
 0003:00014ce8       ??_C@_1CA@BFILGJHE@?$AA_?$AAf?$AAp?$AAu?$AAt?$AAc?$AA_?$AAi?$AAn?$AAt?$AAe?$AAr?$AAn?$AAa?$AAl@ 10123ce8     libucrtd:fputc.obj
 0003:00014d10       ??_C@_1GC@GBMDABED@?$AAm?$AAi?$AAn?$AAk?$AAe?$AAr?$AAn?$AAe?$AAl?$AA?2?$AAc?$AAr?$AAt?$AAs?$AA?2@ 10123d10     libucrtd:_sftbuf.obj
 0003:00014d88       ??_C@_0DB@EPIHMFLB@minkernel?2crts?2ucrt?2src?2appcrt?2@ 10123d88     libucrtd:_sftbuf.obj
 0003:00014dc4       ??_C@_0DM@DKIFNNOL@minkernel?2crts?2ucrt?2src?2appcrt?2@ 10123dc4     libucrtd:per_thread_data.obj
 0003:00014ea8       ___lc_category             10123ea8     libucrtd:wsetlocale.obj
 0003:00014f00       ??_C@_1O@GIFLHMA@?$AAL?$AAC?$AA_?$AAA?$AAL?$AAL@ 10123f00     libucrtd:wsetlocale.obj
 0003:00014f10       ??_C@_1BG@PPOMIBNJ@?$AAL?$AAC?$AA_?$AAC?$AAO?$AAL?$AAL?$AAA?$AAT?$AAE@ 10123f10     libucrtd:wsetlocale.obj
 0003:00014f2c       ??_C@_1BC@FFJGAPJM@?$AAL?$AAC?$AA_?$AAC?$AAT?$AAY?$AAP?$AAE@ 10123f2c     libucrtd:wsetlocale.obj
 0003:00014f44       ??_C@_1BI@PCKFNJFB@?$AAL?$AAC?$AA_?$AAM?$AAO?$AAN?$AAE?$AAT?$AAA?$AAR?$AAY@ 10123f44     libucrtd:wsetlocale.obj
 0003:00014f60       ??_C@_1BG@ENIEDKID@?$AAL?$AAC?$AA_?$AAN?$AAU?$AAM?$AAE?$AAR?$AAI?$AAC@ 10123f60     libucrtd:wsetlocale.obj
 0003:00014f7c       ??_C@_1BA@HAAOMIIG@?$AAL?$AAC?$AA_?$AAT?$AAI?$AAM?$AAE@ 10123f7c     libucrtd:wsetlocale.obj
 0003:00014f90       ??_C@_1GA@LDEGDKD@?$AA?$CI?$AA?$CC?$AAI?$AAn?$AAv?$AAa?$AAl?$AAi?$AAd?$AA?5?$AAp?$AAa?$AAr?$AAa?$AAm@ 10123f90     libucrtd:wsetlocale.obj
 0003:00015008       ??_C@_1GK@DPKNLBIE@?$AAm?$AAi?$AAn?$AAk?$AAe?$AAr?$AAn?$AAe?$AAl?$AA?2?$AAc?$AAr?$AAt?$AAs?$AA?2@ 10124008     libucrtd:wsetlocale.obj
 0003:00015088       ??_C@_1CI@FGIONOJM@?$AA_?$AAc?$AAo?$AAn?$AAf?$AAi?$AAg?$AAt?$AAh?$AAr?$AAe?$AAa?$AAd?$AAl?$AAo@ 10124088     libucrtd:wsetlocale.obj
 0003:000150b8       ??_C@_0DF@MKMHJGEJ@minkernel?2crts?2ucrt?2src?2appcrt?2@ 101240b8     libucrtd:wsetlocale.obj
 0003:000150f8       ??_C@_1FG@OHLFEKMC@?$AAL?$AAC?$AA_?$AAM?$AAI?$AAN?$AA?5?$AA?$DM?$AA?$DN?$AA?5?$AA_?$AAc?$AAa?$AAt?$AAe@ 101240f8     libucrtd:wsetlocale.obj
 0003:00015160       ??_C@_1BI@KJNPAEHL@?$AA_?$AAw?$AAs?$AAe?$AAt?$AAl?$AAo?$AAc?$AAa?$AAl?$AAe@ 10124160     libucrtd:wsetlocale.obj
 0003:0001517c       ??_C@_15NBPDDFIP@?$AA?$DN?$AA?$DL@ 1012417c     libucrtd:wsetlocale.obj
 0003:00015184       ??_C@_13PJJBFPED@?$AA?$DL@ 10124184     libucrtd:wsetlocale.obj
 0003:00015188       ??_C@_1CG@DKJCBBPP@?$AA_?$AAw?$AAs?$AAe?$AAt?$AAl?$AAo?$AAc?$AAa?$AAl?$AAe?$AA_?$AAn?$AAo?$AAl@ 10124188     libucrtd:wsetlocale.obj
 0003:000151b8       ??_C@_1IG@NGDCPCDE@?$AAw?$AAc?$AAs?$AAn?$AAc?$AAp?$AAy?$AA_?$AAs?$AA?$CI?$AAl?$AAc?$AAt?$AAe?$AAm@ 101241b8     libucrtd:wsetlocale.obj
 0003:00015258       ??_C@_1CI@ODOPEMNJ@?$AA_?$AAw?$AAs?$AAe?$AAt?$AAl?$AAo?$AAc?$AAa?$AAl?$AAe?$AA_?$AAs?$AAe?$AAt@ 10124258     libucrtd:wsetlocale.obj
 0003:00015288       ??_C@_1EM@MHOCNIAA@?$AAw?$AAc?$AAs?$AAc?$AAp?$AAy?$AA_?$AAs?$AA?$CI?$AAp?$AAc?$AAh?$AA_?$AAc?$AAa@ 10124288     libucrtd:wsetlocale.obj
 0003:000152e4       ??_C@_13NMPKAAJP@?$AA?$DN@ 101242e4     libucrtd:wsetlocale.obj
 0003:000152e8       ??_C@_1CI@LKOPFFBD@?$AA_?$AAw?$AAs?$AAe?$AAt?$AAl?$AAo?$AAc?$AAa?$AAl?$AAe?$AA_?$AAg?$AAe?$AAt@ 101242e8     libucrtd:wsetlocale.obj
 0003:00015318       ??_C@_1DC@HMLJMODP@?$AAw?$AAc?$AAs?$AAc?$AAa?$AAt?$AA_?$AAs?$AA?$CI?$AAp?$AAc?$AAh?$AA?0?$AA?5?$AAc@ 10124318     libucrtd:wsetlocale.obj
 0003:00015354       ??_C@_1CK@ENLABMHL@?$AAp?$AAa?$AAr?$AAs?$AAe?$AA_?$AAb?$AAc?$AAp?$AA4?$AA7?$AA_?$AAl?$AAa?$AAn@ 10124354     libucrtd:wsetlocale.obj
 0003:00015388       ??_C@_1NM@HLCCHHMI@?$AAw?$AAc?$AAs?$AAn?$AAc?$AAp?$AAy?$AA_?$AAs?$AA?$CI?$AAn?$AAa?$AAm?$AAe?$AAs@ 10124388     libucrtd:wsetlocale.obj
 0003:00015490       ??_C@_1OE@CBMMNIKI@?$AAw?$AAc?$AAs?$AAn?$AAc?$AAp?$AAy?$AA_?$AAs?$AA?$CI?$AAn?$AAa?$AAm?$AAe?$AAs@ 10124490     libucrtd:wsetlocale.obj
 0003:000155a4       ??_C@_1CG@EJAKMGFL@?$AAp?$AAa?$AAr?$AAs?$AAe?$AA_?$AAb?$AAc?$AAp?$AA4?$AA7?$AA_?$AAs?$AAc?$AAr@ 101245a4     libucrtd:wsetlocale.obj
 0003:000155d8       ??_C@_1LM@BMOGFEFE@?$AAw?$AAc?$AAs?$AAn?$AAc?$AAa?$AAt?$AA_?$AAs?$AA?$CI?$AAn?$AAa?$AAm?$AAe?$AAs@ 101245d8     libucrtd:wsetlocale.obj
 0003:000156bc       ??_C@_13IMODFHAA@?$AA?9@   101246bc     libucrtd:wsetlocale.obj
 0003:000156c0       ??_C@_1OE@EBFAEEFC@?$AAw?$AAc?$AAs?$AAn?$AAc?$AAa?$AAt?$AA_?$AAs?$AA?$CI?$AAn?$AAa?$AAm?$AAe?$AAs@ 101246c0     libucrtd:wsetlocale.obj
 0003:000157d4       ??_C@_1CG@DHJLMPNE@?$AAp?$AAa?$AAr?$AAs?$AAe?$AA_?$AAb?$AAc?$AAp?$AA4?$AA7?$AA_?$AAr?$AAe?$AAg@ 101247d4     libucrtd:wsetlocale.obj
 0003:00015808       ??_C@_1NI@HCNCOMAB@?$AAw?$AAc?$AAs?$AAn?$AAc?$AAp?$AAy?$AA_?$AAs?$AA?$CI?$AAn?$AAa?$AAm?$AAe?$AAs@ 10124808     libucrtd:wsetlocale.obj
 0003:0001590c       ??_C@_1CM@BFJANLBJ@?$AAp?$AAa?$AAr?$AAs?$AAe?$AA_?$AAb?$AAc?$AAp?$AA4?$AA7?$AA_?$AAc?$AAo?$AAd@ 1012490c     libucrtd:wsetlocale.obj
 0003:00015940       ??_C@_1NM@EHBAOOJF@?$AAw?$AAc?$AAs?$AAn?$AAc?$AAp?$AAy?$AA_?$AAs?$AA?$CI?$AAn?$AAa?$AAm?$AAe?$AAs@ 10124940     libucrtd:wsetlocale.obj
 0003:00015a48       ??_C@_17EFJLDFDO@?$AA?9?$AA_?$AA?4@ 10124a48     libucrtd:wsetlocale.obj
 0003:00015a58       ??_C@_1IC@GOFECMPC@?$AA_?$AAe?$AAx?$AAp?$AAa?$AAn?$AAd?$AAl?$AAo?$AAc?$AAa?$AAl?$AAe?$AA_?$AAl@ 10124a58     libucrtd:wsetlocale.obj
 0003:00015af8       ??_C@_1BCI@NFIGLKLE@?$AAw?$AAc?$AAs?$AAn?$AAc?$AAp?$AAy?$AA_?$AAs?$AA?$CI?$AAl?$AAo?$AAc?$AAa?$AAl@ 10124af8     libucrtd:wsetlocale.obj
 0003:00015c60       ??_C@_1IE@NLIFNJDL@?$AA_?$AAe?$AAx?$AAp?$AAa?$AAn?$AAd?$AAl?$AAo?$AAc?$AAa?$AAl?$AAe?$AA_?$AAl@ 10124c60     libucrtd:wsetlocale.obj
 0003:00015d00       ??_C@_1BDA@BKILNJJG@?$AAw?$AAc?$AAs?$AAn?$AAc?$AAp?$AAy?$AA_?$AAs?$AA?$CI?$AA_?$AAp?$AAs?$AAe?$AAt@ 10124d00     libucrtd:wsetlocale.obj
