 SharedDLL_x64_debug

 Timestamp is 67a2c145 (Wed Feb  5 10:39:17 2025)

 Preferred load address is 0000000180000000

 Start         Length     Name                   Class
 0001:00000000 0006dd36H .textbss                DATA
 0002:00000000 000e48a0H .text$mn                CODE
 0002:000e48a0 00001070H .text$mn$00             CODE
 0002:000e5910 00002090H .text$mn$21             CODE
 0002:000e79a0 000022acH .text$x                 CODE
 0003:00000000 00000110H .CRT$XCA                DATA
 0003:00000110 00000110H .CRT$XCZ                DATA
 0003:00000220 00000110H .CRT$XIA                DATA
 0003:00000330 00000130H .CRT$XIC                DATA
 0003:00000460 00000110H .CRT$XIZ                DATA
 0003:00000570 00000110H .CRT$XPA                DATA
 0003:00000680 00000120H .CRT$XPX                DATA
 0003:000007a0 00000110H .CRT$XPXA               DATA
 0003:000008b0 00000110H .CRT$XPZ                DATA
 0003:000009c0 00000110H .CRT$XTA                DATA
 0003:00000ad0 00000110H .CRT$XTZ                DATA
 0003:00000be0 00027ed0H .rdata                  DATA
 0003:00028ab0 000002d0H .rdata$00               DATA
 0003:00028d80 00000200H .rdata$CastGuardVftablesA DATA
 0003:00028f80 000001a0H .rdata$CastGuardVftablesC DATA
 0003:00029120 0000060cH .rdata$r                DATA
 0003:0002972c 000001bcH .rdata$zzzdbg           DATA
 0003:000298e8 00000110H .rtc$IAA                DATA
 0003:000299f8 00000110H .rtc$IMZ                DATA
 0003:00029b08 00000110H .rtc$IZZ                DATA
 0003:00029c18 00000110H .rtc$TAA                DATA
 0003:00029d28 00000110H .rtc$TMZ                DATA
 0003:00029e38 00000110H .rtc$TZZ                DATA
 0003:00029f48 00008240H .xdata                  DATA
 0003:00032188 00000198H .xdata$x                DATA
 0003:00032320 0000017eH .edata                  DATA
 0004:00000000 00000eb8H .data                   DATA
 0004:00000eb8 00000190H .data$r                 DATA
 0004:00001048 00000228H .data$rs                DATA
 0004:00001270 00002030H .bss                    DATA
 0005:00000000 0000af5cH .pdata                  DATA
 0006:00000000 000003f0H .idata$5                DATA
 0006:000003f0 00000014H .idata$2                DATA
 0006:00000404 00000014H .idata$3                DATA
 0006:00000418 000003f0H .idata$4                DATA
 0006:00000808 000008c0H .idata$6                DATA
 0007:00000000 0000012bH Shared                  DATA
 0008:00000000 000001cdH .msvcjmc                DATA
 0009:00000000 00000175H .00cfg                  DATA
 000a:00000000 00000233H .fptable                DATA
 000b:00000000 00000170H .rsrc$01                DATA
 000b:00000170 000001b6H .rsrc$02                DATA

  Address         Publics by Value              Rva+Base               Lib:Object

 0000:00000000       __AbsoluteZero             0000000000000000     <absolute>
 0000:00000000       ___safe_se_handler_count   0000000000000000     <absolute>
 0000:00000000       ___safe_se_handler_table   0000000000000000     <absolute>
 0000:00000000       __arm64x_extra_rfe_table   0000000000000000     <absolute>
 0000:00000000       __arm64x_extra_rfe_table_size 0000000000000000     <absolute>
 0000:00000000       __arm64x_native_entrypoint 0000000000000000     <absolute>
 0000:00000000       __arm64x_redirection_metadata 0000000000000000     <absolute>
 0000:00000000       __arm64x_redirection_metadata_count 0000000000000000     <absolute>
 0000:00000000       __dynamic_value_reloc_table 0000000000000000     <absolute>
 0000:00000000       __enclave_config           0000000000000000     <absolute>
 0000:00000000       __guard_check_icall_a64n_fptr 0000000000000000     <absolute>
 0000:00000000       __guard_eh_cont_count      0000000000000000     <absolute>
 0000:00000000       __guard_eh_cont_table      0000000000000000     <absolute>
 0000:00000000       __guard_fids_count         0000000000000000     <absolute>
 0000:00000000       __guard_fids_table         0000000000000000     <absolute>
 0000:00000000       __guard_iat_count          0000000000000000     <absolute>
 0000:00000000       __guard_iat_table          0000000000000000     <absolute>
 0000:00000000       __guard_longjmp_count      0000000000000000     <absolute>
 0000:00000000       __guard_longjmp_table      0000000000000000     <absolute>
 0000:00000000       __hybrid_auxiliary_delayload_iat 0000000000000000     <absolute>
 0000:00000000       __hybrid_auxiliary_delayload_iat_copy 0000000000000000     <absolute>
 0000:00000000       __hybrid_auxiliary_iat     0000000000000000     <absolute>
 0000:00000000       __hybrid_auxiliary_iat_copy 0000000000000000     <absolute>
 0000:00000000       __hybrid_code_map          0000000000000000     <absolute>
 0000:00000000       __hybrid_code_map_count    0000000000000000     <absolute>
 0000:00000000       __hybrid_image_info_bitfield 0000000000000000     <absolute>
 0000:00000000       __volatile_metadata        0000000000000000     <absolute>
 0000:00000000       __x64_code_ranges_to_entry_points 0000000000000000     <absolute>
 0000:00000000       __x64_code_ranges_to_entry_points_count 0000000000000000     <absolute>
 0000:00000100       __guard_flags              0000000000000100     <absolute>
 0000:00000000       __ImageBase                0000000180000000     <linker-defined>
 0001:00000000       __enc$textbss$begin        0000000180001000     <linker-defined>
 0001:0006dd36       __enc$textbss$end          000000018006ed36     <linker-defined>
 0002:000069f0       DllCreateInstance          00000001800759f0 f   dllmain.obj
 0002:00006a40       DllMain                    0000000180075a40 f   dllmain.obj
 0002:00006aa0       GetDllString               0000000180075aa0 f   dllmain.obj
 0002:00006b00       __JustMyCode_Default       0000000180075b00 f i dllmain.obj
 0002:00006b10       _CRT_RTC_INIT              0000000180075b10 f   LIBCMTD:init.obj
 0002:00006b20       _CRT_RTC_INITW             0000000180075b20 f   LIBCMTD:init.obj
 0002:00006b30       _RTC_InitBase              0000000180075b30 f   LIBCMTD:init.obj
 0002:00006b80       _RTC_Shutdown              0000000180075b80 f   LIBCMTD:init.obj
 0002:00006bb0       __CheckForDebuggerJustMyCode 0000000180075bb0 f   LIBCMTD:debugger_jmc.obj
 0002:00007100       _CRT_INIT                  0000000180076100 f   LIBCMTD:dll_dllmain.obj
 0002:00007140       _DllMainCRTStartup         0000000180076140 f   LIBCMTD:dll_dllmain.obj
 0002:00007190       ?_RTC_GetErrorFunc@@YAP6AHHPEBDH00ZZPEBX@Z 0000000180076190 f   LIBCMTD:userapi.obj
 0002:000071a0       ?_RTC_GetErrorFuncW@@YAP6AHHPEB_WH00ZZPEBX@Z 00000001800761a0 f   LIBCMTD:userapi.obj
 0002:000071b0       _RTC_GetErrDesc            00000001800761b0 f   LIBCMTD:userapi.obj
 0002:000071d0       _RTC_NumErrors             00000001800761d0 f   LIBCMTD:userapi.obj
 0002:000071e0       _RTC_SetErrorFunc          00000001800761e0 f   LIBCMTD:userapi.obj
 0002:00007200       _RTC_SetErrorFuncW         0000000180076200 f   LIBCMTD:userapi.obj
 0002:00007220       _RTC_SetErrorType          0000000180076220 f   LIBCMTD:userapi.obj
 0002:00007340       __security_init_cookie     0000000180076340 f   LIBCMTD:gs_support.obj
 0002:000073e0       ?__scrt_initialize_type_info@@YAXXZ 00000001800763e0 f   LIBCMTD:tncleanup.obj
 0002:00007400       ?__scrt_uninitialize_type_info@@YAXXZ 0000000180076400 f   LIBCMTD:tncleanup.obj
 0002:00007420       __local_stdio_printf_options 0000000180076420 f i LIBCMTD:default_local_stdio_options.obj
 0002:00007430       __local_stdio_scanf_options 0000000180076430 f i LIBCMTD:default_local_stdio_options.obj
 0002:00007440       __scrt_initialize_default_local_stdio_options 0000000180076440 f   LIBCMTD:default_local_stdio_options.obj
 0002:000074a0       ?configure_argv@__scrt_narrow_argv_policy@@SAHXZ 00000001800764a0 f i LIBCMTD:utility.obj
 0002:000075c0       ?initialize_environment@__scrt_narrow_environment_policy@@SAHXZ 00000001800765c0 f i LIBCMTD:utility.obj
 0002:00007690       NtCurrentTeb               0000000180076690 f i LIBCMTD:utility.obj
 0002:000076a0       __scrt_acquire_startup_lock 00000001800766a0 f   LIBCMTD:utility.obj
 0002:00007720       __scrt_dllmain_after_initialize_c 0000000180076720 f   LIBCMTD:utility.obj
 0002:00007760       __scrt_dllmain_before_initialize_c 0000000180076760 f   LIBCMTD:utility.obj
 0002:00007790       __scrt_dllmain_crt_thread_attach 0000000180076790 f   LIBCMTD:utility.obj
 0002:000077d0       __scrt_dllmain_crt_thread_detach 00000001800767d0 f   LIBCMTD:utility.obj
 0002:000077f0       __scrt_dllmain_exception_filter 00000001800767f0 f   LIBCMTD:utility.obj
 0002:00007870       __scrt_dllmain_uninitialize_c 0000000180076870 f   LIBCMTD:utility.obj
 0002:000078b0       __scrt_dllmain_uninitialize_critical 00000001800768b0 f   LIBCMTD:utility.obj
 0002:000078d0       __scrt_initialize_crt      00000001800768d0 f   LIBCMTD:utility.obj
 0002:00007930       __scrt_initialize_onexit_tables 0000000180076930 f   LIBCMTD:utility.obj
 0002:00007a80       __scrt_is_nonwritable_in_current_image 0000000180076a80 f   LIBCMTD:utility.obj
 0002:00007b30       __scrt_release_startup_lock 0000000180076b30 f   LIBCMTD:utility.obj
 0002:00007b70       __scrt_uninitialize_crt    0000000180076b70 f   LIBCMTD:utility.obj
 0002:00007bc0       _onexit                    0000000180076bc0 f   LIBCMTD:utility.obj
 0002:00007c60       at_quick_exit              0000000180076c60 f   LIBCMTD:utility.obj
 0002:00007cc0       atexit                     0000000180076cc0 f   LIBCMTD:utility.obj
 0002:00007d00       __scrt_get_dyn_tls_init_callback 0000000180076d00 f   LIBCMTD:dyn_tls_init.obj
 0002:00007d10       __crt_debugger_hook        0000000180076d10 f   LIBCMTD:utility_desktop.obj
 0002:00007d30       __scrt_fastfail            0000000180076d30 f   LIBCMTD:utility_desktop.obj
 0002:00007f30       __scrt_get_show_window_mode 0000000180076f30 f   LIBCMTD:utility_desktop.obj
 0002:00007fa0       __scrt_initialize_mta      0000000180076fa0 f   LIBCMTD:utility_desktop.obj
 0002:00007fc0       __scrt_initialize_winrt    0000000180076fc0 f   LIBCMTD:utility_desktop.obj
 0002:00007fd0       __scrt_is_managed_app      0000000180076fd0 f   LIBCMTD:utility_desktop.obj
 0002:000080a0       __scrt_set_unhandled_exception_filter 00000001800770a0 f   LIBCMTD:utility_desktop.obj
 0002:000080c0       __scrt_exe_initialize_mta  00000001800770c0 f   LIBCMTD:utility_desktop.obj
 0002:000080c0       __scrt_stub_for_initialize_mta 00000001800770c0 f   LIBCMTD:utility_desktop.obj
 0002:000080d0       __scrt_unhandled_exception_filter 00000001800770d0 f   LIBCMTD:utility_desktop.obj
 0002:000081a0       _RTC_Initialize            00000001800771a0 f   LIBCMTD:initsect.obj
 0002:00008200       _RTC_Terminate             0000000180077200 f   LIBCMTD:initsect.obj
 0002:00008260       _guard_check_icall_nop     0000000180077260 f i LIBCMTD:guard_support.obj
 0002:00008270       ReadNoFence64              0000000180077270 f i LIBCMTD:guard_support.obj
 0002:000082a0       ReadPointerNoFence         00000001800772a0 f i LIBCMTD:guard_support.obj
 0002:000082c0       __castguard_check_failure_debugbreak 00000001800772c0 f i LIBCMTD:guard_support.obj
 0002:000082f0       __castguard_check_failure_fastfail 00000001800772f0 f i LIBCMTD:guard_support.obj
 0002:00008320       __castguard_check_failure_nop 0000000180077320 f i LIBCMTD:guard_support.obj
 0002:00008330       __castguard_check_failure_os_handled 0000000180077330 f i LIBCMTD:guard_support.obj
 0002:000083a0       __castguard_check_failure_user_handled 00000001800773a0 f i LIBCMTD:guard_support.obj
 0002:000084c0       __castguard_set_user_handler 00000001800774c0 f i LIBCMTD:guard_support.obj
 0002:000084f0       __castguard_slow_path_check_debugbreak 00000001800774f0 f i LIBCMTD:guard_support.obj
 0002:00008540       __castguard_slow_path_check_fastfail 0000000180077540 f i LIBCMTD:guard_support.obj
 0002:000085a0       __castguard_slow_path_check_nop 00000001800775a0 f i LIBCMTD:guard_support.obj
 0002:000085c0       __castguard_slow_path_check_os_handled 00000001800775c0 f i LIBCMTD:guard_support.obj
 0002:00008620       __castguard_slow_path_check_user_handled 0000000180077620 f i LIBCMTD:guard_support.obj
 0002:00008710       _guard_icall_checks_enforced 0000000180077710 f i LIBCMTD:guard_support.obj
 0002:00008760       _guard_rf_checks_enforced  0000000180077760 f i LIBCMTD:guard_support.obj
 0002:00008820       ?_RTC_AllocaFailure@@YAXPEAXPEAU_RTC_ALLOCA_NODE@@H@Z 0000000180077820 f   LIBCMTD:error.obj
 0002:000089d0       ?_RTC_Failure@@YAXPEAXH@Z  00000001800779d0 f   LIBCMTD:error.obj
 0002:00008a40       ?_RTC_StackFailure@@YAXPEAXPEBD@Z 0000000180077a40 f   LIBCMTD:error.obj
 0002:00008fa0       _RTC_UninitUse             0000000180077fa0 f   LIBCMTD:error.obj
 0002:000090a0       _vsprintf_s_l              00000001800780a0 f i LIBCMTD:error.obj
 0002:00009120       sprintf_s                  0000000180078120 f i LIBCMTD:error.obj
 0002:00009150       __isa_available_init       0000000180078150 f   LIBCMTD:cpu_disp.obj
 0002:00009780       _get_startup_argv_mode     0000000180078780 f   LIBCMTD:argv_mode.obj
 0002:00009790       __scrt_is_ucrt_dll_in_use  0000000180078790 f   LIBCMTD:ucrt_detection.obj
 0002:00009e30       ?_RTC_GetSrcLine@@YAHPEAEPEA_WKPEAH1K@Z 0000000180078e30 f   LIBCMTD:pdblkup.obj
 0002:0000a2f0       __GSHandlerCheck           00000001800792f0 f   LIBCMTD:gshandler.obj
 0002:0000a340       __GSHandlerCheckCommon     0000000180079340 f   LIBCMTD:gshandler.obj
 0002:0000a490       __security_check_cookie    0000000180079490 f   LIBCMTD:amdsecgs.obj
 0002:0000a4c0       __raise_securityfailure    00000001800794c0 f   LIBCMTD:gs_report.obj
 0002:0000a510       __report_gsfailure         0000000180079510 f   LIBCMTD:gs_report.obj
 0002:0000a620       __report_rangecheckfailure 0000000180079620 f   LIBCMTD:gs_report.obj
 0002:0000a640       __report_securityfailure   0000000180079640 f   LIBCMTD:gs_report.obj
 0002:0000a710       __report_securityfailureEx 0000000180079710 f   LIBCMTD:gs_report.obj
 0002:0000aa10       __C_specific_handler       0000000180079a10 f   libvcruntimed:riscchandler.obj
 0002:0000b000       ??$?RD@__crt_internal_free_policy@@QEBAXQEBD@Z 000000018007a000 f i libvcruntimed:std_type_info.obj
 0002:0000b030       ??$?RX@__crt_internal_free_policy@@QEBAXQEBX@Z 000000018007a030 f i libvcruntimed:std_type_info.obj
 0002:0000b060       ??$__crt_interlocked_compare_exchange_pointer@$$CBDPEAD$$T@@YAPEBDPEDSEBDQEAD$$T@Z 000000018007a060 f i libvcruntimed:std_type_info.obj
 0002:0000b0b0       ??$__crt_interlocked_read_pointer@$$CBD@@YAPEBDPEDSEBD@Z 000000018007a0b0 f i libvcruntimed:std_type_info.obj
 0002:0000b0d0       ??0?$__crt_unique_heap_ptr@DU__crt_internal_free_policy@@@@QEAA@QEAD@Z 000000018007a0d0 f i libvcruntimed:std_type_info.obj
 0002:0000b100       ??0?$__crt_unique_heap_ptr@XU__crt_internal_free_policy@@@@QEAA@QEAX@Z 000000018007a100 f i libvcruntimed:std_type_info.obj
 0002:0000b130       ??1?$__crt_unique_heap_ptr@DU__crt_internal_free_policy@@@@QEAA@XZ 000000018007a130 f i libvcruntimed:std_type_info.obj
 0002:0000b150       ??1?$__crt_unique_heap_ptr@XU__crt_internal_free_policy@@@@QEAA@XZ 000000018007a150 f i libvcruntimed:std_type_info.obj
 0002:0000b170       ??B?$__crt_unique_heap_ptr@DU__crt_internal_free_policy@@@@QEBA_NXZ 000000018007a170 f i libvcruntimed:std_type_info.obj
 0002:0000b190       ??B?$__crt_unique_heap_ptr@XU__crt_internal_free_policy@@@@QEBA_NXZ 000000018007a190 f i libvcruntimed:std_type_info.obj
 0002:0000b220       ?__crt_interlocked_read_64@@YA_JPED_J@Z 000000018007a220 f i libvcruntimed:std_type_info.obj
 0002:0000b250       ?detach@?$__crt_unique_heap_ptr@XU__crt_internal_free_policy@@@@QEAAPEAXXZ 000000018007a250 f i libvcruntimed:std_type_info.obj
 0002:0000b290       ?get@?$__crt_unique_heap_ptr@DU__crt_internal_free_policy@@@@QEBAPEADXZ 000000018007a290 f i libvcruntimed:std_type_info.obj
 0002:0000b2b0       ?get@?$__crt_unique_heap_ptr@XU__crt_internal_free_policy@@@@QEBAPEAXXZ 000000018007a2b0 f i libvcruntimed:std_type_info.obj
 0002:0000b2d0       ?is_valid@?$__crt_unique_heap_ptr@DU__crt_internal_free_policy@@@@QEBA_NXZ 000000018007a2d0 f i libvcruntimed:std_type_info.obj
 0002:0000b310       ?is_valid@?$__crt_unique_heap_ptr@XU__crt_internal_free_policy@@@@QEBA_NXZ 000000018007a310 f i libvcruntimed:std_type_info.obj
 0002:0000b350       ?release@?$__crt_unique_heap_ptr@DU__crt_internal_free_policy@@@@QEAAXXZ 000000018007a350 f i libvcruntimed:std_type_info.obj
 0002:0000b390       ?release@?$__crt_unique_heap_ptr@XU__crt_internal_free_policy@@@@QEAAXXZ 000000018007a390 f i libvcruntimed:std_type_info.obj
 0002:0000b3d0       __std_type_info_compare    000000018007a3d0 f   libvcruntimed:std_type_info.obj
 0002:0000b420       __std_type_info_destroy_list 000000018007a420 f   libvcruntimed:std_type_info.obj
 0002:0000b490       __std_type_info_hash       000000018007a490 f   libvcruntimed:std_type_info.obj
 0002:0000b570       __std_type_info_name       000000018007a570 f   libvcruntimed:std_type_info.obj
 0002:0000b8a0       __vcrt_initialize          000000018007a8a0 f   libvcruntimed:initialization.obj
 0002:0000b8f0       __vcrt_thread_attach       000000018007a8f0 f   libvcruntimed:initialization.obj
 0002:0000b910       __vcrt_thread_detach       000000018007a910 f   libvcruntimed:initialization.obj
 0002:0000b930       __vcrt_uninitialize        000000018007a930 f   libvcruntimed:initialization.obj
 0002:0000b950       __vcrt_uninitialize_critical 000000018007a950 f   libvcruntimed:initialization.obj
 0002:0000b980       __DestructExceptionObject  000000018007a980 f   libvcruntimed:ehhelpers.obj
 0002:0000bac0       ?_CallMemberFunction0@@YAXQEAX0@Z 000000018007aac0 f i libvcruntimed:ehhelpers.obj
 0002:0000bbd0       ?raw_name@type_info@@QEBAPEBDXZ 000000018007abd0 f i libvcruntimed:ehhelpers.obj
 0002:0000bbf0       _IsExceptionObjectToBeDestroyed 000000018007abf0 f   libvcruntimed:ehhelpers.obj
 0002:0000bc60       _SetWinRTOutOfMemoryExceptionCallback 000000018007ac60 f   libvcruntimed:ehhelpers.obj
 0002:0000bc80       __AdjustPointer            000000018007ac80 f   libvcruntimed:ehhelpers.obj
 0002:0000bd20       __FrameUnwindFilter        000000018007ad20 f   libvcruntimed:ehhelpers.obj
 0002:0000bdf0       __GetPlatformExceptionInfo 000000018007adf0 f   libvcruntimed:ehhelpers.obj
 0002:0000bed0       __current_exception        000000018007aed0 f   libvcruntimed:ehhelpers.obj
 0002:0000bef0       __current_exception_context 000000018007aef0 f   libvcruntimed:ehhelpers.obj
 0002:0000bf10       __processing_throw         000000018007af10 f   libvcruntimed:ehhelpers.obj
 0002:0000bf30       __std_terminate            000000018007af30 f   libvcruntimed:ehhelpers.obj
 0002:0000bf50       _is_exception_typeof       000000018007af50 f   libvcruntimed:ehhelpers.obj
 0002:0000c0f0       __C_specific_handler_noexcept 000000018007b0f0 f   libvcruntimed:chandler_noexcept.obj
 0002:0000c1a0       __vcrt_GetModuleFileNameW  000000018007b1a0 f   libvcruntimed:winapi_thunks.obj
 0002:0000c1e0       __vcrt_GetModuleHandleW    000000018007b1e0 f   libvcruntimed:winapi_thunks.obj
 0002:0000c200       __vcrt_LoadLibraryExW      000000018007b200 f   libvcruntimed:winapi_thunks.obj
 0002:0000c280       _NLG_Notify                000000018007b280 f   libvcruntimed:notify.obj
 0002:0000c2b0       __NLG_Dispatch2            000000018007b2b0 f   libvcruntimed:notify.obj
 0002:0000c2c0       __NLG_Return2              000000018007b2c0 f   libvcruntimed:notify.obj
 0002:0000c2f0       __except_validate_context_record 000000018007b2f0 f   libvcruntimed:jbcxrval.obj
 0002:0000c360       __except_validate_jump_buffer 000000018007b360 f   libvcruntimed:jbcxrval.obj
 0002:0000c390       __except_validate_jump_buffer_common 000000018007b390 f i libvcruntimed:jbcxrval.obj
 0002:0000c430       ??$?0$00@DName@@QEAA@PEBDU?$StringLifeSelector@$00@@@Z 000000018007b430 f i libvcruntimed:undname.obj
 0002:0000c4b0       ??$?0$00@pcharNode@@QEAA@PEBDHU?$StringLifeSelector@$00@@@Z 000000018007b4b0 f i libvcruntimed:undname.obj
 0002:0000c520       ??$?0$01@DName@@QEAA@PEBDU?$StringLifeSelector@$01@@@Z 000000018007b520 f i libvcruntimed:undname.obj
 0002:0000c5a0       ??$?0$01@pcharNode@@QEAA@PEBDHU?$StringLifeSelector@$01@@@Z 000000018007b5a0 f i libvcruntimed:undname.obj
 0002:0000c670       ??$?0$0A@@DName@@QEAA@PEBDU?$StringLifeSelector@$0A@@@@Z 000000018007b670 f i libvcruntimed:undname.obj
 0002:0000c6f0       ??$?0$0A@@pcharNode@@QEAA@PEBDHU?$StringLifeSelector@$0A@@@@Z 000000018007b6f0 f i libvcruntimed:undname.obj
 0002:0000c7c0       ??$?0_K$0A@@?$optional@_K@std@@QEAA@$$QEA_K@Z 000000018007b7c0 f i libvcruntimed:undname.obj
 0002:0000c800       ??$?0_K@?$_Optional_construct_base@_K@std@@QEAA@Uin_place_t@1@$$QEA_K@Z 000000018007b800 f i libvcruntimed:undname.obj
 0002:0000c840       ??$?0_K@?$_Optional_destruct_base@_K$00@std@@QEAA@Uin_place_t@1@$$QEA_K@Z 000000018007b840 f i libvcruntimed:undname.obj
 0002:0000c880       ??$append@VDNameNode@@@DName@@AEAAXPEBVDNameNode@@@Z 000000018007b880 f i libvcruntimed:undname.obj
 0002:0000c960       ??$append@VDNameStatusNode@@@DName@@AEAAXPEBVDNameStatusNode@@@Z 000000018007b960 f i libvcruntimed:undname.obj
 0002:0000ca40       ??$append@VcharNode@@@DName@@AEAAXPEBVcharNode@@@Z 000000018007ba40 f i libvcruntimed:undname.obj
 0002:0000cb20       ??$append@VpDNameNode@@@DName@@AEAAXPEBVpDNameNode@@@Z 000000018007bb20 f i libvcruntimed:undname.obj
 0002:0000cc00       ??$append@VpcharNode@@@DName@@AEAAXPEBVpcharNode@@@Z 000000018007bc00 f i libvcruntimed:undname.obj
 0002:0000cce0       ??$doPchar@$00@DName@@AEAAXPEBDH@Z 000000018007bce0 f i libvcruntimed:undname.obj
 0002:0000cea0       ??$doPchar@$01@DName@@AEAAXPEBDH@Z 000000018007bea0 f i libvcruntimed:undname.obj
 0002:0000d060       ??$doPchar@$0A@@DName@@AEAAXPEBDH@Z 000000018007c060 f i libvcruntimed:undname.obj
 0002:0000d400       ??0?$_Optional_construct_base@_K@std@@QEAA@XZ 000000018007c400 f i libvcruntimed:undname.obj
 0002:0000d430       ??0?$_Optional_destruct_base@_K$00@std@@QEAA@XZ 000000018007c430 f i libvcruntimed:undname.obj
 0002:0000d470       ??0?$optional@_K@std@@QEAA@XZ 000000018007c470 f i libvcruntimed:undname.obj
 0002:0000d4a0       ??0Block@_HeapManager@@QEAA@XZ 000000018007c4a0 f i libvcruntimed:undname.obj
 0002:0000d4c0       ??0DName@@QEAA@AEAPEBDD@Z  000000018007c4c0 f   libvcruntimed:undname.obj
 0002:0000d700       ??0DName@@QEAA@AEBUStringLiteral@@@Z 000000018007c700 f   libvcruntimed:undname.obj
 0002:0000d770       ??0DName@@QEAA@AEBV0@@Z    000000018007c770 f i libvcruntimed:undname.obj
 0002:0000d7b0       ??0DName@@QEAA@D@Z         000000018007c7b0 f   libvcruntimed:undname.obj
 0002:0000d800       ??0DName@@QEAA@PEAV0@@Z    000000018007c800 f   libvcruntimed:undname.obj
 0002:0000d920       ??0DName@@QEAA@W4DNameStatus@@@Z 000000018007c920 f   libvcruntimed:undname.obj
 0002:0000da00       ??0DName@@QEAA@XZ          000000018007ca00 f i libvcruntimed:undname.obj
 0002:0000da30       ??0DName@@QEAA@_J@Z        000000018007ca30 f   libvcruntimed:undname.obj
 0002:0000db80       ??0DName@@QEAA@_K@Z        000000018007cb80 f   libvcruntimed:undname.obj
 0002:0000dc90       ??0DNameNode@@IEAA@XZ      000000018007cc90 f i libvcruntimed:undname.obj
 0002:0000dcb0       ??0Replicator@@QEAA@XZ     000000018007ccb0 f i libvcruntimed:undname.obj
 0002:0000dd10       ??0UnDecorator@@QEAA@PEBDP6APEADJ@ZK@Z 000000018007cd10 f i libvcruntimed:undname.obj
 0002:0000dde0       ??0_Nontrivial_dummy_type@std@@QEAA@XZ 000000018007cde0 f i libvcruntimed:undname.obj
 0002:0000ddf0       ??0charNode@@QEAA@D@Z      000000018007cdf0 f i libvcruntimed:undname.obj
 0002:0000de40       ??0pDNameNode@@QEAA@PEAVDName@@@Z 000000018007ce40 f   libvcruntimed:undname.obj
 0002:0000dee0       ??0pairNode@@QEAA@PEBVDNameNode@@0@Z 000000018007cee0 f i libvcruntimed:undname.obj
 0002:0000df80       ??2@YAPEAX_KAEAV_HeapManager@@H@Z 000000018007cf80 f   libvcruntimed:undname.obj
 0002:0000e000       ??4DName@@QEAAAEAV0@AEBUStringLiteral@@@Z 000000018007d000 f   libvcruntimed:undname.obj
 0002:0000e060       ??4DName@@QEAAAEAV0@AEBV0@@Z 000000018007d060 f   libvcruntimed:undname.obj
 0002:0000e0a0       ??4DName@@QEAAAEAV0@D@Z    000000018007d0a0 f i libvcruntimed:undname.obj
 0002:0000e0f0       ??4DName@@QEAAAEAV0@PEAV0@@Z 000000018007d0f0 f   libvcruntimed:undname.obj
 0002:0000e1f0       ??4DName@@QEAAAEAV0@W4DNameStatus@@@Z 000000018007d1f0 f   libvcruntimed:undname.obj
 0002:0000e2b0       ??AReplicator@@QEBA?AVDName@@H@Z 000000018007d2b0 f   libvcruntimed:undname.obj
 0002:0000e360       ??B?$optional@_K@std@@QEBA_NXZ 000000018007d360 f i libvcruntimed:undname.obj
 0002:0000e380       ??D?$_Optional_construct_base@_K@std@@QEGAAAEA_KXZ 000000018007d380 f i libvcruntimed:undname.obj
 0002:0000e440       ??H@YA?AVDName@@AEBUStringLiteral@@AEBV0@@Z 000000018007d440 f i libvcruntimed:undname.obj
 0002:0000e4a0       ??H@YA?AVDName@@DAEBV0@@Z  000000018007d4a0 f i libvcruntimed:undname.obj
 0002:0000e500       ??H@YA?AVDName@@W4DNameStatus@@AEBV0@@Z 000000018007d500 f i libvcruntimed:undname.obj
 0002:0000e560       ??HDName@@QEBA?AV0@AEBUStringLiteral@@@Z 000000018007d560 f   libvcruntimed:undname.obj
 0002:0000e5b0       ??HDName@@QEBA?AV0@AEBV0@@Z 000000018007d5b0 f   libvcruntimed:undname.obj
 0002:0000e600       ??HDName@@QEBA?AV0@D@Z     000000018007d600 f   libvcruntimed:undname.obj
 0002:0000e650       ??HDName@@QEBA?AV0@PEAV0@@Z 000000018007d650 f   libvcruntimed:undname.obj
 0002:0000e6a0       ??HDName@@QEBA?AV0@W4DNameStatus@@@Z 000000018007d6a0 f   libvcruntimed:undname.obj
 0002:0000e6f0       ??HStringLiteral@@QEBA?AU0@H@Z 000000018007d6f0 f i libvcruntimed:undname.obj
 0002:0000e740       ??YDName@@QEAAAEAV0@AEBUStringLiteral@@@Z 000000018007d740 f   libvcruntimed:undname.obj
 0002:0000e850       ??YDName@@QEAAAEAV0@AEBV0@@Z 000000018007d850 f   libvcruntimed:undname.obj
 0002:0000e940       ??YDName@@QEAAAEAV0@D@Z    000000018007d940 f   libvcruntimed:undname.obj
 0002:0000ea10       ??YDName@@QEAAAEAV0@PEAV0@@Z 000000018007da10 f   libvcruntimed:undname.obj
 0002:0000eb30       ??YDName@@QEAAAEAV0@W4DNameStatus@@@Z 000000018007db30 f   libvcruntimed:undname.obj
 0002:0000ebc0       ??YReplicator@@QEAAAEAV0@AEBVDName@@@Z 000000018007dbc0 f   libvcruntimed:undname.obj
 0002:0000ecb0       ??_5DName@@QEAAAEAV0@AEBV0@@Z 000000018007dcb0 f   libvcruntimed:undname.obj
 0002:0000ed40       ??__K_l@@YA?AUStringLiteral@@PEBD_K@Z 000000018007dd40 f i libvcruntimed:undname.obj
 0002:0000ed80       ?Constructor@_HeapManager@@QEAAXP6APEAX_K@ZP6AXPEAX@Z@Z 000000018007dd80 f i libvcruntimed:undname.obj
 0002:0000edf0       ?Destructor@_HeapManager@@QEAAXXZ 000000018007ddf0 f i libvcruntimed:undname.obj
 0002:0000eeb0       ?UScore@UnDecorator@@SA?AUStringLiteral@@W4Tokens@@@Z 000000018007deb0 f   libvcruntimed:undname.obj
 0002:0000ef60       ?composeDeclaration@UnDecorator@@CA?AVDName@@AEBV2@@Z 000000018007df60 f i libvcruntimed:undname.obj
 0002:00011e20       ?doAccessSpecifiers@UnDecorator@@SAHXZ 0000000180080e20 f i libvcruntimed:undname.obj
 0002:00011e60       ?doAllocationLanguage@UnDecorator@@SAHXZ 0000000180080e60 f i libvcruntimed:undname.obj
 0002:00011ea0       ?doAllocationModel@UnDecorator@@SAHXZ 0000000180080ea0 f i libvcruntimed:undname.obj
 0002:00011ee0       ?doEcsu@UnDecorator@@SAHXZ 0000000180080ee0 f i libvcruntimed:undname.obj
 0002:00011f20       ?doEllipsis@UnDecorator@@SAHXZ 0000000180080f20 f i libvcruntimed:undname.obj
 0002:00011f60       ?doFunctionReturns@UnDecorator@@SAHXZ 0000000180080f60 f i libvcruntimed:undname.obj
 0002:00011fa0       ?doMSKeywords@UnDecorator@@SAHXZ 0000000180080fa0 f i libvcruntimed:undname.obj
 0002:00011fe0       ?doMemberTypes@UnDecorator@@SAHXZ 0000000180080fe0 f i libvcruntimed:undname.obj
 0002:00012020       ?doNameOnly@UnDecorator@@SAHXZ 0000000180081020 f i libvcruntimed:undname.obj
 0002:00012030       ?doNoIdentCharCheck@UnDecorator@@SAHXZ 0000000180081030 f i libvcruntimed:undname.obj
 0002:00012040       ?doPchar@DName@@AEAAXD@Z   0000000180081040 f   libvcruntimed:undname.obj
 0002:000120f0       ?doPtr64@UnDecorator@@SAHXZ 00000001800810f0 f i libvcruntimed:undname.obj
 0002:00012130       ?doRestrictionSpec@UnDecorator@@SAHXZ 0000000180081130 f i libvcruntimed:undname.obj
 0002:00012170       ?doThisTypes@UnDecorator@@SAHXZ 0000000180081170 f i libvcruntimed:undname.obj
 0002:000121b0       ?doThrowTypes@UnDecorator@@SAHXZ 00000001800811b0 f i libvcruntimed:undname.obj
 0002:000121f0       ?doTypeOnly@UnDecorator@@SAHXZ 00000001800811f0 f i libvcruntimed:undname.obj
 0002:00012200       ?doUnderScore@UnDecorator@@SAHXZ 0000000180081200 f i libvcruntimed:undname.obj
 0002:00012240       ?getAddressOf@UnDecorator@@CA?AVDName@@XZ 0000000180081240 f   libvcruntimed:undname.obj
 0002:00012300       ?getArgumentList@UnDecorator@@CA?AVDName@@XZ 0000000180081300 f   libvcruntimed:undname.obj
 0002:000124f0       ?getArgumentTypes@UnDecorator@@CA?AVDName@@XZ 00000001800814f0 f   libvcruntimed:undname.obj
 0002:00012850       ?getArrayAccess@UnDecorator@@CA?AVDName@@XZ 0000000180081850 f   libvcruntimed:undname.obj
 0002:00012930       ?getArrayObject@UnDecorator@@CA?AVDName@@XZ 0000000180081930 f   libvcruntimed:undname.obj
 0002:00012ab0       ?getArrayType@UnDecorator@@CA?AVDName@@AEBV2@@Z 0000000180081ab0 f i libvcruntimed:undname.obj
 0002:00012f60       ?getBasedType@UnDecorator@@CA?AVDName@@XZ 0000000180081f60 f   libvcruntimed:undname.obj
 0002:00013110       ?getBasicDataType@UnDecorator@@CA?AVDName@@AEBV2@@Z 0000000180082110 f   libvcruntimed:undname.obj
 0002:000142a0       ?getCHPEName@UnDecorator@@QEAAPEADPEADH@Z 00000001800832a0 f i libvcruntimed:undname.obj
 0002:000144e0       ?getCallIndex@UnDecorator@@CA?AVDName@@XZ 00000001800834e0 f i libvcruntimed:undname.obj
 0002:00014510       ?getCallingConvention@UnDecorator@@CA?AVDName@@XZ 0000000180083510 f   libvcruntimed:undname.obj
 0002:000149d0       ?getDataIndirectType@UnDecorator@@CA?AVDName@@AEBV2@W4IndirectionKind@@0H@Z 00000001800839d0 f   libvcruntimed:undname.obj
 0002:000159c0       ?getDataIndirectType@UnDecorator@@CA?AVDName@@XZ 00000001800849c0 f i libvcruntimed:undname.obj
 0002:00015a30       ?getDataType@UnDecorator@@CA?AVDName@@PEAV2@@Z 0000000180084a30 f   libvcruntimed:undname.obj
 0002:00015c40       ?getDecoratedName@UnDecorator@@CA?AVDName@@XZ 0000000180084c40 f   libvcruntimed:undname.obj
 0002:00016250       ?getDimension@UnDecorator@@CA?AVDName@@_N@Z 0000000180085250 f   libvcruntimed:undname.obj
 0002:000165c0       ?getDispatchTarget@UnDecorator@@CA?AVDName@@XZ 00000001800855c0 f   libvcruntimed:undname.obj
 0002:00016690       ?getDisplacement@UnDecorator@@CA?AVDName@@XZ 0000000180085690 f i libvcruntimed:undname.obj
 0002:000166c0       ?getECSUDataType@UnDecorator@@CA?AVDName@@XZ 00000001800856c0 f   libvcruntimed:undname.obj
 0002:00016bf0       ?getECSUName@UnDecorator@@CA?AVDName@@XZ 0000000180085bf0 f i libvcruntimed:undname.obj
 0002:00016c20       ?getEnumType@UnDecorator@@CA?AVDName@@XZ 0000000180085c20 f i libvcruntimed:undname.obj
 0002:00016f30       ?getExtendedDataIndirectType@UnDecorator@@CA?AVDName@@AEAW4IndirectionKind@@AEA_NH@Z 0000000180085f30 f   libvcruntimed:undname.obj
 0002:00017360       ?getExternalDataType@UnDecorator@@CA?AVDName@@AEBV2@@Z 0000000180086360 f i libvcruntimed:undname.obj
 0002:00017460       ?getFloatingPoint@UnDecorator@@CA?AVDName@@H@Z 0000000180086460 f   libvcruntimed:undname.obj
 0002:00017640       ?getFunctionIndirectType@UnDecorator@@CA?AVDName@@AEBV2@@Z 0000000180086640 f   libvcruntimed:undname.obj
 0002:00017dc0       ?getGuardNumber@UnDecorator@@CA?AVDName@@XZ 0000000180086dc0 f i libvcruntimed:undname.obj
 0002:00017df0       ?getLastChar@DName@@QEBADXZ 0000000180086df0 f i libvcruntimed:undname.obj
 0002:00017e50       ?getLastChar@DNameStatusNode@@UEBADXZ 0000000180086e50 f i libvcruntimed:undname.obj
 0002:00017ea0       ?getLastChar@charNode@@UEBADXZ 0000000180086ea0 f i libvcruntimed:undname.obj
 0002:00017ec0       ?getLastChar@pDNameNode@@UEBADXZ 0000000180086ec0 f i libvcruntimed:undname.obj
 0002:00017f10       ?getLastChar@pairNode@@UEBADXZ 0000000180086f10 f i libvcruntimed:undname.obj
 0002:00017fb0       ?getLastChar@pcharNode@@UEBADXZ 0000000180086fb0 f i libvcruntimed:undname.obj
 0002:00018000       ?getLexicalFrame@UnDecorator@@CA?AVDName@@XZ 0000000180087000 f i libvcruntimed:undname.obj
 0002:00018060       ?getMemberAccess@UnDecorator@@CA?AVDName@@XZ 0000000180087060 f   libvcruntimed:undname.obj
 0002:00018130       ?getMemoryWithBuffer@_HeapManager@@QEAAPEAX_K@Z 0000000180087130 f   libvcruntimed:undname.obj
 0002:000182d0       ?getMemoryWithoutBuffer@_HeapManager@@QEAAPEAX_K@Z 00000001800872d0 f   libvcruntimed:undname.obj
 0002:00018330       ?getNoexcept@UnDecorator@@CA?AVDName@@XZ 0000000180087330 f   libvcruntimed:undname.obj
 0002:000183e0       ?getNumberOfDimensions@UnDecorator@@CAHXZ 00000001800873e0 f   libvcruntimed:undname.obj
 0002:000184e0       ?getOperatorName@UnDecorator@@CA?AVDName@@_NPEA_N@Z 00000001800874e0 f i libvcruntimed:undname.obj
 0002:00019780       ?getPointerToMember@UnDecorator@@CA?AVDName@@XZ 0000000180088780 f   libvcruntimed:undname.obj
 0002:00019900       ?getPointerType@UnDecorator@@CA?AVDName@@AEBV2@0@Z 0000000180088900 f i libvcruntimed:undname.obj
 0002:00019950       ?getPointerTypeArray@UnDecorator@@CA?AVDName@@AEBV2@0@Z 0000000180088950 f i libvcruntimed:undname.obj
 0002:000199a0       ?getPrimaryDataType@UnDecorator@@CA?AVDName@@AEBV2@@Z 00000001800889a0 f   libvcruntimed:undname.obj
 0002:0001a0d0       ?getPtrRefDataType@UnDecorator@@CA?AVDName@@AEBV2@H@Z 00000001800890d0 f   libvcruntimed:undname.obj
 0002:0001a590       ?getPtrRefType@UnDecorator@@CA?AVDName@@AEBV2@0W4IndirectionKind@@@Z 0000000180089590 f   libvcruntimed:undname.obj
 0002:0001a860       ?getReferenceType@UnDecorator@@CA?AVDName@@AEBV2@0W4IndirectionKind@@@Z 0000000180089860 f i libvcruntimed:undname.obj
 0002:0001a8b0       ?getRestrictionSpec@UnDecorator@@CA?AVDName@@XZ 00000001800898b0 f   libvcruntimed:undname.obj
 0002:0001aba0       ?getReturnType@UnDecorator@@CA?AVDName@@PEAV2@@Z 0000000180089ba0 f   libvcruntimed:undname.obj
 0002:0001ac10       ?getScope@UnDecorator@@CA?AVDName@@XZ 0000000180089c10 f   libvcruntimed:undname.obj
 0002:0001b530       ?getScopedName@UnDecorator@@CA?AVDName@@XZ 000000018008a530 f   libvcruntimed:undname.obj
 0002:0001b7b0       ?getSignedDimension@UnDecorator@@CA?AVDName@@XZ 000000018008a7b0 f   libvcruntimed:undname.obj
 0002:0001b850       ?getStorageConvention@UnDecorator@@CA?AVDName@@XZ 000000018008a850 f i libvcruntimed:undname.obj
 0002:0001b880       ?getString@DName@@QEBAPEADPEAD0@Z 000000018008a880 f i libvcruntimed:undname.obj
 0002:0001b910       ?getString@DName@@QEBAPEADPEADH@Z 000000018008a910 f i libvcruntimed:undname.obj
 0002:0001b9f0       ?getString@DNameStatusNode@@UEBAPEADPEAD0@Z 000000018008a9f0 f i libvcruntimed:undname.obj
 0002:0001ba50       ?getString@charNode@@UEBAPEADPEAD0@Z 000000018008aa50 f i libvcruntimed:undname.obj
 0002:0001baa0       ?getString@pDNameNode@@UEBAPEADPEAD0@Z 000000018008aaa0 f i libvcruntimed:undname.obj
 0002:0001bb20       ?getString@pairNode@@UEBAPEADPEAD0@Z 000000018008ab20 f i libvcruntimed:undname.obj
 0002:0001bc20       ?getString@pcharNode@@UEBAPEADPEAD0@Z 000000018008ac20 f i libvcruntimed:undname.obj
 0002:0001bc70       ?getStringEncoding@UnDecorator@@CA?AVDName@@W4PrefixKind@@H@Z 000000018008ac70 f   libvcruntimed:undname.obj
 0002:0001bde0       ?getStringHelper@@YAPEADPEADPEBD1H@Z 000000018008ade0 f i libvcruntimed:undname.obj
 0002:0001be60       ?getStringObject@UnDecorator@@CA?AVDName@@XZ 000000018008ae60 f   libvcruntimed:undname.obj
 0002:0001bf40       ?getSymbolName@UnDecorator@@CA?AVDName@@XZ 000000018008af40 f i libvcruntimed:undname.obj
 0002:0001bff0       ?getTemplateArgumentList@UnDecorator@@CA?AVDName@@XZ 000000018008aff0 f   libvcruntimed:undname.obj
 0002:0001c3c0       ?getTemplateName@UnDecorator@@CA?AVDName@@_N@Z 000000018008b3c0 f   libvcruntimed:undname.obj
 0002:0001c660       ?getTemplateNonTypeArgument@UnDecorator@@CA?AVDName@@XZ 000000018008b660 f   libvcruntimed:undname.obj
 0002:0001d100       ?getTemplateTypeArgument@UnDecorator@@CA?AVDName@@XZ 000000018008c100 f   libvcruntimed:undname.obj
 0002:0001d420       ?getThisType@UnDecorator@@CA?AVDName@@XZ 000000018008c420 f i libvcruntimed:undname.obj
 0002:0001d490       ?getThrowTypes@UnDecorator@@CA?AVDName@@XZ 000000018008c490 f   libvcruntimed:undname.obj
 0002:0001d4d0       ?getTypeEncoding@UnDecorator@@CAHXZ 000000018008c4d0 f i libvcruntimed:undname.obj
 0002:0001e390       ?getUndecoratedName@UnDecorator@@QEAAPEADPEADH@Z 000000018008d390 f i libvcruntimed:undname.obj
 0002:0001e600       ?getUnionObject@UnDecorator@@CA?AVDName@@XZ 000000018008d600 f   libvcruntimed:undname.obj
 0002:0001e750       ?getVCallThunkType@UnDecorator@@CA?AVDName@@XZ 000000018008d750 f i libvcruntimed:undname.obj
 0002:0001e820       ?getValue@UnDecorator@@CA?AV?$optional@_K@std@@XZ 000000018008d820 f   libvcruntimed:undname.obj
 0002:0001e920       ?getValueObject@UnDecorator@@CA?AVDName@@XZ 000000018008d920 f   libvcruntimed:undname.obj
 0002:0001ec00       ?getVbTableType@UnDecorator@@CA?AVDName@@AEBV2@@Z 000000018008dc00 f i libvcruntimed:undname.obj
 0002:0001ec30       ?getVdispMapType@UnDecorator@@CA?AVDName@@AEBV2@@Z 000000018008dc30 f i libvcruntimed:undname.obj
 0002:0001ed00       ?getVfTableType@UnDecorator@@CA?AVDName@@AEBV2@@Z 000000018008dd00 f i libvcruntimed:undname.obj
 0002:0001f060       ?getZName@UnDecorator@@CA?AVDName@@_N0@Z 000000018008e060 f   libvcruntimed:undname.obj
 0002:0001f5b0       ?get_current_character_and_increment_buffer@UnDecorator@@CADXZ 000000018008e5b0 f i libvcruntimed:undname.obj
 0002:0001f5f0       ?haveTemplateParameters@UnDecorator@@SAHXZ 000000018008e5f0 f i libvcruntimed:undname.obj
 0002:0001f600       ?increment_buffer@UnDecorator@@CA_N_K@Z 000000018008e600 f i libvcruntimed:undname.obj
 0002:0001f670       ?increment_buffer_no_check@UnDecorator@@CAXXZ 000000018008e670 f i libvcruntimed:undname.obj
 0002:0001f690       ?increment_buffer_no_check@UnDecorator@@CAX_K@Z 000000018008e690 f i libvcruntimed:undname.obj
 0002:0001f6f0       ?isArray@DName@@QEBAHXZ    000000018008e6f0 f i libvcruntimed:undname.obj
 0002:0001f710       ?isComArray@DName@@QEBAHXZ 000000018008e710 f i libvcruntimed:undname.obj
 0002:0001f730       ?isEmpty@DName@@QEBAHXZ    000000018008e730 f i libvcruntimed:undname.obj
 0002:0001f770       ?isFull@Replicator@@QEBAHXZ 000000018008e770 f i libvcruntimed:undname.obj
 0002:0001f7b0       ?isNoTE@DName@@QEBAHXZ     000000018008e7b0 f i libvcruntimed:undname.obj
 0002:0001f7d0       ?isPinPtr@DName@@QEBAHXZ   000000018008e7d0 f i libvcruntimed:undname.obj
 0002:0001f7f0       ?isPtrRef@DName@@QEBAHXZ   000000018008e7f0 f i libvcruntimed:undname.obj
 0002:0001f810       ?isUDC@DName@@QEBAHXZ      000000018008e810 f i libvcruntimed:undname.obj
 0002:0001f870       ?isUDTThunk@DName@@QEBAHXZ 000000018008e870 f i libvcruntimed:undname.obj
 0002:0001f8d0       ?isVCallThunk@DName@@QEBAHXZ 000000018008e8d0 f i libvcruntimed:undname.obj
 0002:0001f8f0       ?isValid@DName@@QEBAHXZ    000000018008e8f0 f i libvcruntimed:undname.obj
 0002:0001f940       ?length@DName@@QEBAHXZ     000000018008e940 f i libvcruntimed:undname.obj
 0002:0001f9a0       ?length@DNameStatusNode@@UEBAHXZ 000000018008e9a0 f i libvcruntimed:undname.obj
 0002:0001f9c0       ?length@charNode@@UEBAHXZ  000000018008e9c0 f i libvcruntimed:undname.obj
 0002:0001f9d0       ?length@pDNameNode@@UEBAHXZ 000000018008e9d0 f i libvcruntimed:undname.obj
 0002:0001fa20       ?length@pairNode@@UEBAHXZ  000000018008ea20 f i libvcruntimed:undname.obj
 0002:0001fad0       ?length@pcharNode@@UEBAHXZ 000000018008ead0 f i libvcruntimed:undname.obj
 0002:0001faf0       ?make@DNameStatusNode@@SAPEBV1@W4DNameStatus@@@Z 000000018008eaf0 f i libvcruntimed:undname.obj
 0002:0001fb50       ?parseDecoratedName@UnDecorator@@CA?AVDName@@XZ 000000018008eb50 f   libvcruntimed:undname.obj
 0002:0001fdd0       ?raw_length@DNameStatusNode@@UEBAHXZ 000000018008edd0 f i libvcruntimed:undname.obj
 0002:0001fdf0       ?raw_length@charNode@@UEBAHXZ 000000018008edf0 f i libvcruntimed:undname.obj
 0002:0001fe10       ?raw_length@pDNameNode@@UEBAHXZ 000000018008ee10 f i libvcruntimed:undname.obj
 0002:0001fe20       ?raw_length@pairNode@@UEBAHXZ 000000018008ee20 f i libvcruntimed:undname.obj
 0002:0001fe40       ?raw_length@pcharNode@@UEBAHXZ 000000018008ee40 f i libvcruntimed:undname.obj
 0002:0001fe60       ?setIsArray@DName@@QEAAXXZ 000000018008ee60 f i libvcruntimed:undname.obj
 0002:0001fe80       ?setIsComArray@DName@@QEAAXXZ 000000018008ee80 f i libvcruntimed:undname.obj
 0002:0001fea0       ?setIsNoTE@DName@@QEAAXXZ  000000018008eea0 f i libvcruntimed:undname.obj
 0002:0001fec0       ?setIsPinPtr@DName@@QEAAXXZ 000000018008eec0 f i libvcruntimed:undname.obj
 0002:0001fee0       ?setIsUDC@DName@@QEAAXXZ   000000018008eee0 f i libvcruntimed:undname.obj
 0002:0001ff20       ?setIsVCallThunk@DName@@QEAAXXZ 000000018008ef20 f i libvcruntimed:undname.obj
 0002:0001ff40       ?setPtrRef@DName@@QEAAAEAV1@XZ 000000018008ef40 f i libvcruntimed:undname.obj
 0002:0001ff70       ?status@DName@@QEBA?AW4DNameStatus@@XZ 000000018008ef70 f i libvcruntimed:undname.obj
 0002:000200e0       __unDName                  000000018008f0e0 f   libvcruntimed:undname.obj
 0002:00020150       __unDNameEx                000000018008f150 f   libvcruntimed:undname.obj
 0002:00020240       snprintf                   000000018008f240 f i libvcruntimed:undname.obj
 0002:000202b0       unDNameGenerateCHPE        000000018008f2b0 f   libvcruntimed:undname.obj
 0002:00020380       vsnprintf                  000000018008f380 f i libvcruntimed:undname.obj
 0002:00020420       ??$?RU__vcrt_ptd@@@__crt_internal_free_policy@@QEBAXQEBU__vcrt_ptd@@@Z 000000018008f420 f i libvcruntimed:per_thread_data.obj
 0002:00020450       ??0?$__crt_unique_heap_ptr@U__vcrt_ptd@@U__crt_internal_free_policy@@@@QEAA@QEAU__vcrt_ptd@@@Z 000000018008f450 f i libvcruntimed:per_thread_data.obj
 0002:000204b0       ??1?$__crt_unique_heap_ptr@U__vcrt_ptd@@U__crt_internal_free_policy@@@@QEAA@XZ 000000018008f4b0 f i libvcruntimed:per_thread_data.obj
 0002:00020500       ??B?$__crt_unique_heap_ptr@U__vcrt_ptd@@U__crt_internal_free_policy@@@@QEBA_NXZ 000000018008f500 f i libvcruntimed:per_thread_data.obj
 0002:00020520       ?detach@?$__crt_unique_heap_ptr@U__vcrt_ptd@@U__crt_internal_free_policy@@@@QEAAPEAU__vcrt_ptd@@XZ 000000018008f520 f i libvcruntimed:per_thread_data.obj
 0002:00020560       ?get@?$__crt_unique_heap_ptr@U__vcrt_ptd@@U__crt_internal_free_policy@@@@QEBAPEAU__vcrt_ptd@@XZ 000000018008f560 f i libvcruntimed:per_thread_data.obj
 0002:00020580       ?is_valid@?$__crt_unique_heap_ptr@U__vcrt_ptd@@U__crt_internal_free_policy@@@@QEBA_NXZ 000000018008f580 f i libvcruntimed:per_thread_data.obj
 0002:000205c0       ?release@?$__crt_unique_heap_ptr@U__vcrt_ptd@@U__crt_internal_free_policy@@@@QEAAXXZ 000000018008f5c0 f i libvcruntimed:per_thread_data.obj
 0002:00020650       __vcrt_freefls             000000018008f650 f   libvcruntimed:per_thread_data.obj
 0002:000206a0       __vcrt_freeptd_for_this_thread 000000018008f6a0 f   libvcruntimed:per_thread_data.obj
 0002:000206f0       __vcrt_getptd              000000018008f6f0 f   libvcruntimed:per_thread_data.obj
 0002:00020720       __vcrt_getptd_noexit       000000018008f720 f   libvcruntimed:per_thread_data.obj
 0002:00020930       __vcrt_getptd_noinit       000000018008f930 f   libvcruntimed:per_thread_data.obj
 0002:000209b0       __vcrt_initialize_ptd      000000018008f9b0 f   libvcruntimed:per_thread_data.obj
 0002:00020a10       __vcrt_uninitialize_ptd    000000018008fa10 f   libvcruntimed:per_thread_data.obj
 0002:00020a50       __vcrt_initialize_locks    000000018008fa50 f   libvcruntimed:locks.obj
 0002:00020ae0       __vcrt_lock                000000018008fae0 f   libvcruntimed:locks.obj
 0002:00020b20       __vcrt_uninitialize_locks  000000018008fb20 f   libvcruntimed:locks.obj
 0002:00020b90       __vcrt_unlock              000000018008fb90 f   libvcruntimed:locks.obj
 0002:00020bd0       ??$__crt_interlocked_exchange_pointer@$$A6AXXZP6AXXZ@@YAP6AXXZPEDS6AXXZQ6AXXZ@Z 000000018008fbd0 f i libvcruntimed:purevirt.obj
 0002:00020bf0       ??$__crt_interlocked_read_pointer@$$A6AXXZ@@YAP6AXXZPEDS6AXXZ@Z 000000018008fbf0 f i libvcruntimed:purevirt.obj
 0002:00020c10       _get_purecall_handler      000000018008fc10 f   libvcruntimed:purevirt.obj
 0002:00020c30       _purecall                  000000018008fc30 f   libvcruntimed:purevirt.obj
 0002:00020c80       _set_purecall_handler      000000018008fc80 f   libvcruntimed:purevirt.obj
 0002:00020cb0       ??$?0AEAViterator@TryBlockMap4@FH4@@AEAV012@$0A@@?$pair@Viterator@TryBlockMap4@FH4@@V123@@std@@QEAA@AEAViterator@TryBlockMap4@FH4@@0@Z 000000018008fcb0 f i libvcruntimed:risctrnsctrl.obj
 0002:00020d00       ??$?0AEAViterator@TryBlockMap@__FrameHandler3@@AEAV012@$0A@@?$pair@Viterator@TryBlockMap@__FrameHandler3@@V123@@std@@QEAA@AEAViterator@TryBlockMap@__FrameHandler3@@0@Z 000000018008fd00 f i libvcruntimed:risctrnsctrl.obj
 0002:00020f60       ??$_CallSETranslator@V__FrameHandler3@@@@YAHPEAUEHExceptionRecord@@PEA_KPEAU_CONTEXT@@PEAU_xDISPATCHER_CONTEXT@@PEBU_s_FuncInfo@@K1H@Z 000000018008ff60 f i libvcruntimed:risctrnsctrl.obj
 0002:00021020       ??$_CallSETranslator@V__FrameHandler4@@@@YAHPEAUEHExceptionRecord@@PEA_KPEAU_CONTEXT@@PEAU_xDISPATCHER_CONTEXT@@PEAUFuncInfo4@FH4@@K1H@Z 0000000180090020 f i libvcruntimed:risctrnsctrl.obj
 0002:000210e0       ??0FuncInfo4@FH4@@QEAA@XZ  00000001800900e0 f i libvcruntimed:risctrnsctrl.obj
 0002:00021160       ??0FuncInfoHeader@FH4@@QEAA@XZ 0000000180090160 f i libvcruntimed:risctrnsctrl.obj
 0002:00021180       ??0iterator@TryBlockMap4@FH4@@QEAA@AEAV12@I@Z 0000000180090180 f i libvcruntimed:risctrnsctrl.obj
 0002:000211c0       ??0iterator@TryBlockMap@__FrameHandler3@@QEAA@AEAV12@I@Z 00000001800901c0 f i libvcruntimed:risctrnsctrl.obj
 0002:00021200       ??4iterator@TryBlockMap4@FH4@@QEAAAEAV012@AEBV012@@Z 0000000180090200 f i libvcruntimed:risctrnsctrl.obj
 0002:00021230       ??9iterator@TryBlockMap4@FH4@@QEBA_NAEBV012@@Z 0000000180090230 f i libvcruntimed:risctrnsctrl.obj
 0002:00021280       ??Diterator@TryBlockMap4@FH4@@QEAA?AUTryBlockMapEntry4@2@XZ 0000000180090280 f i libvcruntimed:risctrnsctrl.obj
 0002:000212c0       ??Eiterator@TryBlockMap4@FH4@@QEAAAEAV012@XZ 00000001800902c0 f i libvcruntimed:risctrnsctrl.obj
 0002:00021300       ?CatchTryBlock@__FrameHandler3@@SAPEBU_s_TryBlockMapEntry@@PEBU_s_FuncInfo@@H@Z 0000000180090300 f   libvcruntimed:risctrnsctrl.obj
 0002:000213b0       ?DecompFuncInfo@FH4@@YA_JPEAEAEAUFuncInfo4@1@_KH@Z 00000001800903b0 f i libvcruntimed:risctrnsctrl.obj
 0002:00021400       ?DecompFuncInfo@FH4@@YA_JPEAEAEAUFuncInfo4@1@_KH_N@Z 0000000180090400 f i libvcruntimed:risctrnsctrl.obj
 0002:00021660       ?DecompTryBlock@TryBlockMap4@FH4@@AEAAXXZ 0000000180090660 f i libvcruntimed:risctrnsctrl.obj
 0002:000216f0       ?ExecutionInCatch@__FrameHandler3@@SA_NPEAU_xDISPATCHER_CONTEXT@@PEBU_s_FuncInfo@@@Z 00000001800906f0 f   libvcruntimed:risctrnsctrl.obj
 0002:00021760       ?ExecutionInCatch@__FrameHandler4@@SA_NPEAU_xDISPATCHER_CONTEXT@@PEAUFuncInfo4@FH4@@@Z 0000000180090760 f   libvcruntimed:risctrnsctrl.obj
 0002:00021780       ?FrameUnwindToEmptyState@__FrameHandler3@@SAXPEA_KPEAU_xDISPATCHER_CONTEXT@@PEBU_s_FuncInfo@@@Z 0000000180090780 f   libvcruntimed:risctrnsctrl.obj
 0002:00021840       ?FrameUnwindToEmptyState@__FrameHandler4@@SAXPEA_KPEAU_xDISPATCHER_CONTEXT@@PEAUFuncInfo4@FH4@@@Z 0000000180090840 f   libvcruntimed:risctrnsctrl.obj
 0002:000218b0       ?GetEstablisherFrame@__FrameHandler3@@SAPEA_KPEA_KPEAU_xDISPATCHER_CONTEXT@@PEBU_s_FuncInfo@@0@Z 00000001800908b0 f   libvcruntimed:risctrnsctrl.obj
 0002:00021a80       ?GetEstablisherFrame@__FrameHandler4@@SAPEA_KPEA_KPEAU_xDISPATCHER_CONTEXT@@PEAUFuncInfo4@FH4@@0@Z 0000000180090a80 f   libvcruntimed:risctrnsctrl.obj
 0002:00021b00       ?GetRangeOfTrysToCheck@__FrameHandler3@@SA?AU?$pair@Viterator@TryBlockMap@__FrameHandler3@@V123@@std@@AEAVTryBlockMap@1@HPEAU_xDISPATCHER_CONTEXT@@PEBU_s_FuncInfo@@H@Z 0000000180090b00 f   libvcruntimed:risctrnsctrl.obj
 0002:00021dd0       ?GetRangeOfTrysToCheck@__FrameHandler4@@SA?AU?$pair@Viterator@TryBlockMap4@FH4@@V123@@std@@AEAVTryBlockMap4@FH4@@HPEAU_xDISPATCHER_CONTEXT@@PEAUFuncInfo4@5@H@Z 0000000180090dd0 f   libvcruntimed:risctrnsctrl.obj
 0002:00022000       ?ReadInt@FH4@@YAHPEAPEAE@Z 0000000180091000 f i libvcruntimed:risctrnsctrl.obj
 0002:00022040       ?ReadUnsigned@FH4@@YAIPEAPEAE@Z 0000000180091040 f i libvcruntimed:risctrnsctrl.obj
 0002:000220f0       ?UnwindNestedFrames@__FrameHandler3@@SAXPEA_KPEAUEHExceptionRecord@@PEAU_CONTEXT@@0PEAXPEBU_s_FuncInfo@@HHPEBU_s_HandlerType@@PEAU_xDISPATCHER_CONTEXT@@E@Z 00000001800910f0 f   libvcruntimed:risctrnsctrl.obj
 0002:000222c0       ?UnwindNestedFrames@__FrameHandler4@@SAXPEA_KPEAUEHExceptionRecord@@PEAU_CONTEXT@@0PEAXPEAUFuncInfo4@FH4@@HHPEAUHandlerType4@5@PEAU_xDISPATCHER_CONTEXT@@E@Z 00000001800912c0 f   libvcruntimed:risctrnsctrl.obj
 0002:00022500       ?begin@TryBlockMap4@FH4@@QEAA?AViterator@12@XZ 0000000180091500 f i libvcruntimed:risctrnsctrl.obj
 0002:00022540       ?end@TryBlockMap4@FH4@@QEAA?AViterator@12@XZ 0000000180091540 f i libvcruntimed:risctrnsctrl.obj
 0002:00022580       ?imageRelToByteBuffer@FH4@@YAPEAE_KH@Z 0000000180091580 f i libvcruntimed:risctrnsctrl.obj
 0002:000225a0       ?incrementToSentinel@iterator@TryBlockMap4@FH4@@QEAAXXZ 00000001800915a0 f i libvcruntimed:risctrnsctrl.obj
 0002:000225c0       ?setBuffer@TryBlockMap4@FH4@@QEAAXViterator@12@@Z 00000001800915c0 f i libvcruntimed:risctrnsctrl.obj
 0002:00022650       _CreateFrameInfo           0000000180091650 f   libvcruntimed:risctrnsctrl.obj
 0002:000226e0       _FindAndUnlinkFrame        00000001800916e0 f   libvcruntimed:risctrnsctrl.obj
 0002:00022780       _GetImageBase              0000000180091780 f   libvcruntimed:risctrnsctrl.obj
 0002:000227a0       _GetThrowImageBase         00000001800917a0 f   libvcruntimed:risctrnsctrl.obj
 0002:000227c0       _SetImageBase              00000001800917c0 f   libvcruntimed:risctrnsctrl.obj
 0002:000227f0       _SetThrowImageBase         00000001800917f0 f   libvcruntimed:risctrnsctrl.obj
 0002:00022820       __CxxFrameHandler          0000000180091820 f   libvcruntimed:risctrnsctrl.obj
 0002:00022870       __CxxFrameHandler2         0000000180091870 f   libvcruntimed:risctrnsctrl.obj
 0002:000228c0       __CxxFrameHandler3         00000001800918c0 f   libvcruntimed:risctrnsctrl.obj
 0002:000229d0       __CxxFrameHandler4         00000001800919d0 f   libvcruntimed:risctrnsctrl.obj
 0002:00022b20       ??$__crt_interlocked_exchange_pointer@UHINSTANCE__@@PEAU1@@@YAPEAUHINSTANCE__@@PEDSEAU0@QEAU0@@Z 0000000180091b20 f i libvcruntimed:winapi_downlevel.obj
 0002:00022b40       ??$__crt_interlocked_exchange_pointer@UHINSTANCE__@@PEAX@@YAPEAUHINSTANCE__@@PEDSEAU0@QEAX@Z 0000000180091b40 f i libvcruntimed:winapi_downlevel.obj
 0002:00022b60       ??$__crt_interlocked_exchange_pointer@XPEAX@@YAPEAXPEDSEAXQEAX@Z 0000000180091b60 f i libvcruntimed:winapi_downlevel.obj
 0002:00022b80       ??$__crt_interlocked_read_pointer@UHINSTANCE__@@@@YAPEAUHINSTANCE__@@PEDSEAU0@@Z 0000000180091b80 f i libvcruntimed:winapi_downlevel.obj
 0002:00022ba0       ??$__crt_interlocked_read_pointer@X@@YAPEAXPEDSEAX@Z 0000000180091ba0 f i libvcruntimed:winapi_downlevel.obj
 0002:00023200       __vcrt_FlsAlloc            0000000180092200 f   libvcruntimed:winapi_downlevel.obj
 0002:00023260       __vcrt_FlsFree             0000000180092260 f   libvcruntimed:winapi_downlevel.obj
 0002:000232d0       __vcrt_FlsGetValue         00000001800922d0 f   libvcruntimed:winapi_downlevel.obj
 0002:00023340       __vcrt_FlsSetValue         0000000180092340 f   libvcruntimed:winapi_downlevel.obj
 0002:000233c0       __vcrt_InitializeCriticalSectionEx 00000001800923c0 f   libvcruntimed:winapi_downlevel.obj
 0002:00023440       ?GetCurrentState@__FrameHandler3@@SAHPEA_KPEAU_xDISPATCHER_CONTEXT@@PEBU_s_FuncInfo@@@Z 0000000180092440 f   libvcruntimed:ehstate.obj
 0002:000234b0       ?GetUnwindTryBlock@__FrameHandler3@@SAHPEA_KPEAU_xDISPATCHER_CONTEXT@@PEBU_s_FuncInfo@@@Z 00000001800924b0 f   libvcruntimed:ehstate.obj
 0002:00023510       ?SetState@__FrameHandler3@@SAXPEA_KPEBU_s_FuncInfo@@H@Z 0000000180092510 f   libvcruntimed:ehstate.obj
 0002:00023550       ?SetUnwindTryBlock@__FrameHandler3@@SAXPEA_KPEAU_xDISPATCHER_CONTEXT@@PEBU_s_FuncInfo@@H@Z 0000000180092550 f   libvcruntimed:ehstate.obj
 0002:000235e0       ?StateFromControlPc@__FrameHandler3@@SAHPEBU_s_FuncInfo@@PEAU_xDISPATCHER_CONTEXT@@@Z 00000001800925e0 f   libvcruntimed:ehstate.obj
 0002:00023630       ?StateFromControlPc@__FrameHandler4@@SAHPEAUFuncInfo4@FH4@@PEAU_xDISPATCHER_CONTEXT@@@Z 0000000180092630 f   libvcruntimed:ehstate.obj
 0002:00023680       ?StateFromIp@__FrameHandler3@@SAHPEBU_s_FuncInfo@@PEAU_xDISPATCHER_CONTEXT@@_K@Z 0000000180092680 f   libvcruntimed:ehstate.obj
 0002:000237b0       ?StateFromIp@__FrameHandler4@@SAHPEAUFuncInfo4@FH4@@PEAU_xDISPATCHER_CONTEXT@@_K@Z 00000001800927b0 f   libvcruntimed:ehstate.obj
 0002:000238d0       ?__FuncRelToRealOffset@@YA_KPEAU_xDISPATCHER_CONTEXT@@I@Z 00000001800928d0 f i libvcruntimed:ehstate.obj
 0002:00023910       ?__RVAtoRealOffset@@YA_KPEAU_xDISPATCHER_CONTEXT@@H@Z 0000000180092910 f i libvcruntimed:ehstate.obj
 0002:00026460       ??$TypeMatchHelper@V__FrameHandler3@@@@YAHPEBU_s_HandlerType@@PEBU_s_CatchableType@@PEBU_s_ThrowInfo@@@Z 0000000180095460 f i libvcruntimed:frame.obj
 0002:000266e0       ??$TypeMatchHelper@V__FrameHandler4@@@@YAHPEAUHandlerType4@FH4@@PEBU_s_CatchableType@@PEBU_s_ThrowInfo@@@Z 00000001800956e0 f i libvcruntimed:frame.obj
 0002:00026970       ??$__InternalCxxFrameHandler@V__FrameHandler3@@@@YA?AW4_EXCEPTION_DISPOSITION@@PEAUEHExceptionRecord@@PEA_KPEAU_CONTEXT@@PEAU_xDISPATCHER_CONTEXT@@PEBU_s_FuncInfo@@H1E@Z 0000000180095970 f i libvcruntimed:frame.obj
 0002:00026f10       ??$__InternalCxxFrameHandler@V__FrameHandler4@@@@YA?AW4_EXCEPTION_DISPOSITION@@PEAUEHExceptionRecord@@PEA_KPEAU_CONTEXT@@PEAU_xDISPATCHER_CONTEXT@@PEAUFuncInfo4@FH4@@H1E@Z 0000000180095f10 f i libvcruntimed:frame.obj
 0002:000274d0       ??$__InternalCxxFrameHandlerWrapper@V__FrameHandler3@@@@YA?AW4_EXCEPTION_DISPOSITION@@PEAUEHExceptionRecord@@PEA_KPEAU_CONTEXT@@PEAU_xDISPATCHER_CONTEXT@@PEBU_s_FuncInfo@@H1E@Z 00000001800964d0 f i libvcruntimed:frame.obj
 0002:00027550       ??$__InternalCxxFrameHandlerWrapper@V__FrameHandler4@@@@YA?AW4_EXCEPTION_DISPOSITION@@PEAUEHExceptionRecord@@PEA_KPEAU_CONTEXT@@PEAU_xDISPATCHER_CONTEXT@@PEAUFuncInfo4@FH4@@H1E@Z 0000000180096550 f i libvcruntimed:frame.obj
 0002:00027600       ??0HandlerMap4@FH4@@QEAA@PEBUTryBlockMapEntry4@1@_KH@Z 0000000180096600 f i libvcruntimed:frame.obj
 0002:00027710       ??0HandlerMap@__FrameHandler3@@QEAA@PEBU_s_TryBlockMapEntry@@_KI@Z 0000000180096710 f i libvcruntimed:frame.obj
 0002:00027770       ??0HandlerType4@FH4@@QEAA@XZ 0000000180096770 f i libvcruntimed:frame.obj
 0002:000277a0       ??0TryBlockMap4@FH4@@QEAA@PEBUFuncInfo4@1@_K@Z 00000001800967a0 f i libvcruntimed:frame.obj
 0002:00027890       ??0TryBlockMap@__FrameHandler3@@QEAA@PEBU_s_FuncInfo@@_K@Z 0000000180096890 f i libvcruntimed:frame.obj
 0002:000278d0       ??0UWMap4@FH4@@QEAA@PEBUFuncInfo4@1@_K@Z 00000001800968d0 f i libvcruntimed:frame.obj
 0002:00027990       ??0bad_exception@std@@QEAA@AEBV01@@Z 0000000180096990 f i libvcruntimed:frame.obj
 0002:000279e0       ??0bad_exception@std@@QEAA@XZ 00000001800969e0 f i libvcruntimed:frame.obj
 0002:00027a30       ??0exception@std@@QEAA@AEBV01@@Z 0000000180096a30 f i libvcruntimed:frame.obj
 0002:00027aa0       ??0exception@std@@QEAA@QEBDH@Z 0000000180096aa0 f i libvcruntimed:frame.obj
 0002:00027b00       ??0iterator@HandlerMap4@FH4@@QEAA@AEAV12@I@Z 0000000180096b00 f i libvcruntimed:frame.obj
 0002:00027b40       ??0iterator@HandlerMap@__FrameHandler3@@QEAA@AEAV12@I@Z 0000000180096b40 f i libvcruntimed:frame.obj
 0002:00027b80       ??0iterator@UWMap4@FH4@@QEAA@AEAV12@PEAE@Z 0000000180096b80 f i libvcruntimed:frame.obj
 0002:00027bc0       ??1bad_exception@std@@UEAA@XZ 0000000180096bc0 f i libvcruntimed:frame.obj
 0002:00027be0       ??1exception@std@@UEAA@XZ  0000000180096be0 f i libvcruntimed:frame.obj
 0002:00027c20       ??4iterator@UWMap4@FH4@@QEAAAEAV012@AEBV012@@Z 0000000180096c20 f i libvcruntimed:frame.obj
 0002:00027c80       ??8iterator@HandlerMap4@FH4@@QEBA_NAEBV012@@Z 0000000180096c80 f i libvcruntimed:frame.obj
 0002:00027cd0       ??8iterator@HandlerMap@__FrameHandler3@@QEBA_NAEBV012@@Z 0000000180096cd0 f i libvcruntimed:frame.obj
 0002:00027d20       ??8type_info@@QEBA_NAEBV0@@Z 0000000180096d20 f i libvcruntimed:frame.obj
 0002:00027dc0       ??9iterator@HandlerMap4@FH4@@QEBA_NAEBV012@@Z 0000000180096dc0 f i libvcruntimed:frame.obj
 0002:00027e10       ??9iterator@HandlerMap@__FrameHandler3@@QEBA_NAEBV012@@Z 0000000180096e10 f i libvcruntimed:frame.obj
 0002:00027e60       ??Diterator@HandlerMap4@FH4@@QEAA?AUHandlerType4@2@XZ 0000000180096e60 f i libvcruntimed:frame.obj
 0002:00027ea0       ??Diterator@HandlerMap@__FrameHandler3@@QEAA?BU_s_HandlerType@@XZ 0000000180096ea0 f i libvcruntimed:frame.obj
 0002:00027ef0       ??Diterator@TryBlockMap@__FrameHandler3@@QEAA?BU_s_TryBlockMapEntry@@XZ 0000000180096ef0 f i libvcruntimed:frame.obj
 0002:00027f60       ??Diterator@UWMap4@FH4@@QEAA?AUUnwindMapEntry4@2@XZ 0000000180096f60 f i libvcruntimed:frame.obj
 0002:00027ff0       ??Eiterator@HandlerMap4@FH4@@QEAAAEAV012@XZ 0000000180096ff0 f i libvcruntimed:frame.obj
 0002:00028030       ??Eiterator@HandlerMap@__FrameHandler3@@QEAAAEAV012@XZ 0000000180097030 f i libvcruntimed:frame.obj
 0002:00028060       ??Eiterator@TryBlockMap@__FrameHandler3@@QEAAAEAV012@XZ 0000000180097060 f i libvcruntimed:frame.obj
 0002:00028090       ??Eiterator@UWMap4@FH4@@QEAAAEAV012@XZ 0000000180097090 f i libvcruntimed:frame.obj
 0002:000280e0       ??Giterator@UWMap4@FH4@@QEBA_JAEBV012@@Z 00000001800970e0 f i libvcruntimed:frame.obj
 0002:00028110       ??Miterator@TryBlockMap4@FH4@@QEBA_NAEBV012@@Z 0000000180097110 f i libvcruntimed:frame.obj
 0002:00028160       ??Miterator@TryBlockMap@__FrameHandler3@@QEBA_NAEBV012@@Z 0000000180097160 f i libvcruntimed:frame.obj
 0002:000281b0       ??Oiterator@UWMap4@FH4@@QEBA_NAEBV012@@Z 00000001800971b0 f i libvcruntimed:frame.obj
 0002:00028200       ??Piterator@UWMap4@FH4@@QEBA_NAEBV012@@Z 0000000180097200 f i libvcruntimed:frame.obj
 0002:00028250       ??_Ebad_exception@std@@UEAAPEAXI@Z 0000000180097250 f i libvcruntimed:frame.obj
 0002:00028250       ??_Gbad_exception@std@@UEAAPEAXI@Z 0000000180097250 f i libvcruntimed:frame.obj
 0002:000282a0       ??_Eexception@std@@UEAAPEAXI@Z 00000001800972a0 f i libvcruntimed:frame.obj
 0002:000282a0       ??_Gexception@std@@UEAAPEAXI@Z 00000001800972a0 f i libvcruntimed:frame.obj
 0002:000282f0       ?BuildCatchObject@__FrameHandler3@@SAXPEAUEHExceptionRecord@@PEAXPEBU_s_HandlerType@@PEBU_s_CatchableType@@@Z 00000001800972f0 f   libvcruntimed:frame.obj
 0002:00028340       ?BuildCatchObject@__FrameHandler4@@SAXPEAUEHExceptionRecord@@PEAXPEAUHandlerType4@FH4@@PEBU_s_CatchableType@@@Z 0000000180097340 f   libvcruntimed:frame.obj
 0002:00028390       ?BuildCatchObjectHelper@__FrameHandler3@@SAHPEAUEHExceptionRecord@@PEAXPEBU_s_HandlerType@@PEBU_s_CatchableType@@@Z 0000000180097390 f   libvcruntimed:frame.obj
 0002:000283e0       ?BuildCatchObjectHelper@__FrameHandler4@@SAHPEAUEHExceptionRecord@@PEAXPEAUHandlerType4@FH4@@PEBU_s_CatchableType@@@Z 00000001800973e0 f   libvcruntimed:frame.obj
 0002:00028430       ?CxxCallCatchBlock@__FrameHandler3@@SAPEAXPEAU_EXCEPTION_RECORD@@@Z 0000000180097430 f   libvcruntimed:frame.obj
 0002:00028720       ?CxxCallCatchBlock@__FrameHandler4@@SAPEAXPEAU_EXCEPTION_RECORD@@@Z 0000000180097720 f   libvcruntimed:frame.obj
 0002:00028b20       ?DecompHandler@HandlerMap4@FH4@@AEAAXXZ 0000000180097b20 f i libvcruntimed:frame.obj
 0002:00028fd0       ?FrameUnwindToState@__FrameHandler3@@SAXPEA_KPEAU_xDISPATCHER_CONTEXT@@PEBU_s_FuncInfo@@H@Z 0000000180097fd0 f   libvcruntimed:frame.obj
 0002:000292b0       ?FrameUnwindToState@__FrameHandler4@@SAXPEA_KPEAU_xDISPATCHER_CONTEXT@@PEAUFuncInfo4@FH4@@H@Z 00000001800982b0 f   libvcruntimed:frame.obj
 0002:00029690       ?GetHandlerSearchState@__FrameHandler3@@SAHPEA_KPEAU_xDISPATCHER_CONTEXT@@PEBU_s_FuncInfo@@@Z 0000000180098690 f i libvcruntimed:frame.obj
 0002:00029770       ?GetHandlerSearchState@__FrameHandler4@@SAHPEA_KPEAU_xDISPATCHER_CONTEXT@@PEAUFuncInfo4@FH4@@@Z 0000000180098770 f i libvcruntimed:frame.obj
 0002:00029820       ?GetMaxState@__FrameHandler3@@SAHPEAU_xDISPATCHER_CONTEXT@@PEBU_s_FuncInfo@@@Z 0000000180098820 f i libvcruntimed:frame.obj
 0002:00029840       ?GetMaxState@__FrameHandler4@@SAHPEAU_xDISPATCHER_CONTEXT@@PEAUFuncInfo4@FH4@@@Z 0000000180098840 f i libvcruntimed:frame.obj
 0002:00029af0       ?ReadEntry@UWMap4@FH4@@AEAAXPEAPEAE@Z 0000000180098af0 f i libvcruntimed:frame.obj
 0002:00029bc0       ?TypeMatch@__FrameHandler3@@SAHPEBU_s_HandlerType@@PEBU_s_CatchableType@@PEBU_s_ThrowInfo@@@Z 0000000180098bc0 f   libvcruntimed:frame.obj
 0002:00029c00       ?TypeMatch@__FrameHandler4@@SAHPEAUHandlerType4@FH4@@PEBU_s_CatchableType@@PEBU_s_ThrowInfo@@@Z 0000000180098c00 f   libvcruntimed:frame.obj
 0002:00029c40       ?WalkBack@UWMap4@FH4@@AEAAXPEAPEAE@Z 0000000180098c40 f i libvcruntimed:frame.obj
 0002:00029ca0       ?WalkBack@iterator@UWMap4@FH4@@QEAAXXZ 0000000180098ca0 f i libvcruntimed:frame.obj
 0002:00029ce0       ?WalkForward@UWMap4@FH4@@AEAAXPEAPEAE@Z 0000000180098ce0 f i libvcruntimed:frame.obj
 0002:00029d10       ?_CallMemberFunction1@@YAXQEAX00@Z 0000000180098d10 f i libvcruntimed:frame.obj
 0002:00029d60       ?_CallMemberFunction2@@YAXQEAX00H@Z 0000000180098d60 f i libvcruntimed:frame.obj
 0002:00029e10       ?begin@HandlerMap4@FH4@@QEAA?AViterator@12@XZ 0000000180098e10 f i libvcruntimed:frame.obj
 0002:00029e50       ?begin@HandlerMap@__FrameHandler3@@QEAA?AViterator@12@XZ 0000000180098e50 f i libvcruntimed:frame.obj
 0002:00029e90       ?begin@UWMap4@FH4@@QEAA?AViterator@12@XZ 0000000180098e90 f i libvcruntimed:frame.obj
 0002:00029ed0       ?end@HandlerMap4@FH4@@QEAA?AViterator@12@XZ 0000000180098ed0 f i libvcruntimed:frame.obj
 0002:00029f10       ?end@HandlerMap@__FrameHandler3@@QEAA?AViterator@12@XZ 0000000180098f10 f i libvcruntimed:frame.obj
 0002:00029f50       ?getESTypes@__FrameHandler3@@SAPEBU_s_ESTypeList@@PEBU_s_FuncInfo@@@Z 0000000180098f50 f i libvcruntimed:frame.obj
 0002:00029fa0       ?getESTypes@__FrameHandler4@@SAPEBU_s_ESTypeList@@PEAUFuncInfo4@FH4@@@Z 0000000180098fa0 f i libvcruntimed:frame.obj
 0002:00029fb0       ?getLastEntry@HandlerMap4@FH4@@QEAAPEAUHandlerType4@2@XZ 0000000180098fb0 f i libvcruntimed:frame.obj
 0002:0002a000       ?getLastEntry@HandlerMap@__FrameHandler3@@QEAAPEBU_s_HandlerType@@XZ 0000000180099000 f i libvcruntimed:frame.obj
 0002:0002a030       ?getMagicNum@__FrameHandler3@@SAIPEBU_s_FuncInfo@@@Z 0000000180099030 f i libvcruntimed:frame.obj
 0002:0002a050       ?getMagicNum@__FrameHandler4@@SAIPEAUFuncInfo4@FH4@@@Z 0000000180099050 f i libvcruntimed:frame.obj
 0002:0002a060       ?getNumTryBlocks@TryBlockMap4@FH4@@QEAAIXZ 0000000180099060 f i libvcruntimed:frame.obj
 0002:0002a070       ?getNumTryBlocks@TryBlockMap@__FrameHandler3@@QEAAIXZ 0000000180099070 f i libvcruntimed:frame.obj
 0002:0002a090       ?getStartStop@UWMap4@FH4@@QEAAXHHAEAViterator@12@0@Z 0000000180099090 f i libvcruntimed:frame.obj
 0002:0002a200       ?getStateFromIterators@UWMap4@FH4@@SAHAEBViterator@12@H0H0@Z 0000000180099200 f i libvcruntimed:frame.obj
 0002:0002a390       ?isEHs@__FrameHandler3@@SA_NPEBU_s_FuncInfo@@@Z 0000000180099390 f i libvcruntimed:frame.obj
 0002:0002a3d0       ?isEHs@__FrameHandler4@@SA_NPEAUFuncInfo4@FH4@@@Z 00000001800993d0 f i libvcruntimed:frame.obj
 0002:0002a3f0       ?isNoExcept@__FrameHandler3@@SA_NPEBU_s_FuncInfo@@@Z 00000001800993f0 f i libvcruntimed:frame.obj
 0002:0002a430       ?isNoExcept@__FrameHandler4@@SA_NPEAUFuncInfo4@FH4@@@Z 0000000180099430 f i libvcruntimed:frame.obj
 0002:0002a450       ?reset@HandlerType4@FH4@@QEAAXXZ 0000000180099450 f i libvcruntimed:frame.obj
 0002:0002a4d0       ?resetBuffer@HandlerMap4@FH4@@QEAAXXZ 00000001800994d0 f i libvcruntimed:frame.obj
 0002:0002a500       ?setBuffer@HandlerMap4@FH4@@QEAAXI@Z 0000000180099500 f i libvcruntimed:frame.obj
 0002:0002a570       ?what@exception@std@@UEBAPEBDXZ 0000000180099570 f i libvcruntimed:frame.obj
 0002:0002a5c0       __BuildCatchObject         00000001800995c0 f   libvcruntimed:frame.obj
 0002:0002a610       __BuildCatchObjectHelper   0000000180099610 f   libvcruntimed:frame.obj
 0002:0002a660       __TypeMatch                0000000180099660 f   libvcruntimed:frame.obj
 0002:0002a6a0       __vcrt_EncodePointer       00000001800996a0 f i libvcruntimed:frame.obj
 0002:0002a710       _CallSettingFrame          0000000180099710 f   libvcruntimed:handlers.obj
 0002:0002a760       _CallSettingFrame_LookupContinuationIndex 0000000180099760 f   libvcruntimed:handlers.obj
 0002:0002a7a0       _CallSettingFrame_NotifyContinuationAddr 00000001800997a0 f   libvcruntimed:handlers.obj
 0002:0002a7d0       _CallSettingFrameEncoded   00000001800997d0 f   libvcruntimed:handlers.obj
 0002:0002a830       ??$?RD@__crt_public_free_policy@@QEBAXQEBD@Z 0000000180099830 f i libvcruntimed:std_exception.obj
 0002:0002a860       ??0?$__crt_unique_heap_ptr@DU__crt_public_free_policy@@@@QEAA@QEAD@Z 0000000180099860 f i libvcruntimed:std_exception.obj
 0002:0002a890       ??1?$__crt_unique_heap_ptr@DU__crt_public_free_policy@@@@QEAA@XZ 0000000180099890 f i libvcruntimed:std_exception.obj
 0002:0002a8b0       ??B?$__crt_unique_heap_ptr@DU__crt_public_free_policy@@@@QEBA_NXZ 00000001800998b0 f i libvcruntimed:std_exception.obj
 0002:0002a8d0       ?detach@?$__crt_unique_heap_ptr@DU__crt_public_free_policy@@@@QEAAPEADXZ 00000001800998d0 f i libvcruntimed:std_exception.obj
 0002:0002a910       ?get@?$__crt_unique_heap_ptr@DU__crt_public_free_policy@@@@QEBAPEADXZ 0000000180099910 f i libvcruntimed:std_exception.obj
 0002:0002a930       ?is_valid@?$__crt_unique_heap_ptr@DU__crt_public_free_policy@@@@QEBA_NXZ 0000000180099930 f i libvcruntimed:std_exception.obj
 0002:0002a970       ?release@?$__crt_unique_heap_ptr@DU__crt_public_free_policy@@@@QEAAXXZ 0000000180099970 f i libvcruntimed:std_exception.obj
 0002:0002a9b0       __std_exception_copy       00000001800999b0 f   libvcruntimed:std_exception.obj
 0002:0002ab40       __std_exception_destroy    0000000180099b40 f   libvcruntimed:std_exception.obj
 0002:0002ab90       _CxxThrowException         0000000180099b90 f   libvcruntimed:throw.obj
 0002:0002c4a0       ??1?$__crt_simd_cleanup_guard@$00@@QEAA@XZ 000000018009b4a0 f i libucrtd:strnlen.obj
 0002:0002c4b0       ??1?$__crt_simd_cleanup_guard@$0A@@@QEAA@XZ 000000018009b4b0 f i libucrtd:strnlen.obj
 0002:0002c4c0       ?compare_equals@?$__crt_simd_traits@$00E@@SA?AT__m256i@@T2@0@Z 000000018009b4c0 f i libucrtd:strnlen.obj
 0002:0002c510       ?compare_equals@?$__crt_simd_traits@$00G@@SA?AT__m256i@@T2@0@Z 000000018009b510 f i libucrtd:strnlen.obj
 0002:0002c560       ?compare_equals@?$__crt_simd_traits@$0A@E@@SA?AT__m128i@@T2@0@Z 000000018009b560 f i libucrtd:strnlen.obj
 0002:0002c5a0       ?compare_equals@?$__crt_simd_traits@$0A@G@@SA?AT__m128i@@T2@0@Z 000000018009b5a0 f i libucrtd:strnlen.obj
 0002:0002c5e0       ?compute_byte_mask@?$__crt_simd_pack_traits@$00@@SAHT__m256i@@@Z 000000018009b5e0 f i libucrtd:strnlen.obj
 0002:0002c600       ?compute_byte_mask@?$__crt_simd_pack_traits@$0A@@@SAHT__m128i@@@Z 000000018009b600 f i libucrtd:strnlen.obj
 0002:0002c620       ?get_zero_pack@?$__crt_simd_pack_traits@$00@@SA?AT__m256i@@XZ 000000018009b620 f i libucrtd:strnlen.obj
 0002:0002c650       ?get_zero_pack@?$__crt_simd_pack_traits@$0A@@@SA?AT__m128i@@XZ 000000018009b650 f i libucrtd:strnlen.obj
 0002:0002c670       strnlen                    000000018009b670 f   libucrtd:strnlen.obj
 0002:0002c6a0       wcslen                     000000018009b6a0 f   libucrtd:strnlen.obj
 0002:0002c6d0       wcsnlen                    000000018009b6d0 f   libucrtd:strnlen.obj
 0002:0002c700       ??$?RU?$__crt_report_hook_node@D@@@__crt_internal_free_policy@@QEBAXQEBU?$__crt_report_hook_node@D@@@Z 000000018009b700 f i libucrtd:dbgrpt.obj
 0002:0002c730       ??$?RU?$__crt_report_hook_node@_W@@@__crt_internal_free_policy@@QEBAXQEBU?$__crt_report_hook_node@_W@@@Z 000000018009b730 f i libucrtd:dbgrpt.obj
 0002:0002de50       ??$get_module_file_name@AEAPEAUHINSTANCE__@@AEAY0BAF@DK@?$__crt_char_traits@D@@SAKAEAPEAUHINSTANCE__@@AEAY0BAF@D$$QEAK@Z 000000018009ce50 f i libucrtd:dbgrpt.obj
 0002:0002de90       ??$get_module_file_name@AEAPEAUHINSTANCE__@@AEAY0BAF@_WK@?$__crt_char_traits@_W@@SAKAEAPEAUHINSTANCE__@@AEAY0BAF@_W$$QEAK@Z 000000018009ce90 f i libucrtd:dbgrpt.obj
 0002:0002ded0       ??$tcscpy_s@AEAY0BAF@D_KPEBD@?$__crt_char_traits@D@@SAHAEAY0BAF@D$$QEA_K$$QEAPEBD@Z 000000018009ced0 f i libucrtd:dbgrpt.obj
 0002:0002df10       ??$tcscpy_s@AEAY0BAF@_W_KPEB_W@?$__crt_char_traits@_W@@SAHAEAY0BAF@_W$$QEA_K$$QEAPEB_W@Z 000000018009cf10 f i libucrtd:dbgrpt.obj
 0002:0002df50       ??$tcslen@AEAY0BAF@D@?$__crt_char_traits@D@@SA_KAEAY0BAF@D@Z 000000018009cf50 f i libucrtd:dbgrpt.obj
 0002:0002df70       ??$tcslen@AEAY0BAF@_W@?$__crt_char_traits@_W@@SA_KAEAY0BAF@_W@Z 000000018009cf70 f i libucrtd:dbgrpt.obj
 0002:0002df90       ??$tcslen@AEBQEBD@?$__crt_char_traits@D@@SA_KAEBQEBD@Z 000000018009cf90 f i libucrtd:dbgrpt.obj
 0002:0002dfc0       ??$tcslen@AEBQEB_W@?$__crt_char_traits@_W@@SA_KAEBQEB_W@Z 000000018009cfc0 f i libucrtd:dbgrpt.obj
 0002:0002e130       ??0?$__crt_unique_heap_ptr@U?$__crt_report_hook_node@D@@U__crt_internal_free_policy@@@@QEAA@QEAU?$__crt_report_hook_node@D@@@Z 000000018009d130 f i libucrtd:dbgrpt.obj
 0002:0002e160       ??0?$__crt_unique_heap_ptr@U?$__crt_report_hook_node@_W@@U__crt_internal_free_policy@@@@QEAA@QEAU?$__crt_report_hook_node@_W@@@Z 000000018009d160 f i libucrtd:dbgrpt.obj
 0002:0002e190       ??1?$__crt_unique_heap_ptr@U?$__crt_report_hook_node@D@@U__crt_internal_free_policy@@@@QEAA@XZ 000000018009d190 f i libucrtd:dbgrpt.obj
 0002:0002e1b0       ??1?$__crt_unique_heap_ptr@U?$__crt_report_hook_node@_W@@U__crt_internal_free_policy@@@@QEAA@XZ 000000018009d1b0 f i libucrtd:dbgrpt.obj
 0002:0002e1d0       ??B?$__crt_unique_heap_ptr@U?$__crt_report_hook_node@D@@U__crt_internal_free_policy@@@@QEBA_NXZ 000000018009d1d0 f i libucrtd:dbgrpt.obj
 0002:0002e1f0       ??B?$__crt_unique_heap_ptr@U?$__crt_report_hook_node@_W@@U__crt_internal_free_policy@@@@QEBA_NXZ 000000018009d1f0 f i libucrtd:dbgrpt.obj
 0002:0002eab0       ?detach@?$__crt_unique_heap_ptr@U?$__crt_report_hook_node@D@@U__crt_internal_free_policy@@@@QEAAPEAU?$__crt_report_hook_node@D@@XZ 000000018009dab0 f i libucrtd:dbgrpt.obj
 0002:0002eaf0       ?detach@?$__crt_unique_heap_ptr@U?$__crt_report_hook_node@_W@@U__crt_internal_free_policy@@@@QEAAPEAU?$__crt_report_hook_node@_W@@XZ 000000018009daf0 f i libucrtd:dbgrpt.obj
 0002:0002eb30       ?get@?$__crt_unique_heap_ptr@U?$__crt_report_hook_node@D@@U__crt_internal_free_policy@@@@QEBAPEAU?$__crt_report_hook_node@D@@XZ 000000018009db30 f i libucrtd:dbgrpt.obj
 0002:0002eb50       ?get@?$__crt_unique_heap_ptr@U?$__crt_report_hook_node@_W@@U__crt_internal_free_policy@@@@QEBAPEAU?$__crt_report_hook_node@_W@@XZ 000000018009db50 f i libucrtd:dbgrpt.obj
 0002:0002ebd0       ?is_valid@?$__crt_unique_heap_ptr@U?$__crt_report_hook_node@D@@U__crt_internal_free_policy@@@@QEBA_NXZ 000000018009dbd0 f i libucrtd:dbgrpt.obj
 0002:0002ec10       ?is_valid@?$__crt_unique_heap_ptr@U?$__crt_report_hook_node@_W@@U__crt_internal_free_policy@@@@QEBA_NXZ 000000018009dc10 f i libucrtd:dbgrpt.obj
 0002:0002ec50       ?release@?$__crt_unique_heap_ptr@U?$__crt_report_hook_node@D@@U__crt_internal_free_policy@@@@QEAAXXZ 000000018009dc50 f i libucrtd:dbgrpt.obj
 0002:0002ec90       ?release@?$__crt_unique_heap_ptr@U?$__crt_report_hook_node@_W@@U__crt_internal_free_policy@@@@QEAAXXZ 000000018009dc90 f i libucrtd:dbgrpt.obj
 0002:0002ecd0       _CrtDbgReport              000000018009dcd0 f   libucrtd:dbgrpt.obj
 0002:0002ed70       _CrtDbgReportW             000000018009dd70 f   libucrtd:dbgrpt.obj
 0002:0002ee10       _CrtSetReportHook2         000000018009de10 f   libucrtd:dbgrpt.obj
 0002:0002ee40       _CrtSetReportHookW2        000000018009de40 f   libucrtd:dbgrpt.obj
 0002:0002ee70       __acrt_MessageWindowA      000000018009de70 f   libucrtd:dbgrpt.obj
 0002:0002eed0       __acrt_MessageWindowW      000000018009ded0 f   libucrtd:dbgrpt.obj
 0002:0002ef30       _invoke_watson_if_error    000000018009df30 f i libucrtd:dbgrpt.obj
 0002:0002ef90       _invoke_watson_if_oneof    000000018009df90 f i libucrtd:dbgrpt.obj
 0002:0002f010       _snwprintf_s               000000018009e010 f i libucrtd:dbgrpt.obj
 0002:0002f0b0       _vsnwprintf_s_l            000000018009e0b0 f i libucrtd:dbgrpt.obj
 0002:0002f150       _initterm                  000000018009e150 f   libucrtd:initterm.obj
 0002:0002f1d0       _initterm_e                000000018009e1d0 f   libucrtd:initterm.obj
 0002:0002f2e0       _seh_filter_dll            000000018009e2e0 f   libucrtd:exception_filter.obj
 0002:0002f320       _seh_filter_exe            000000018009e320 f   libucrtd:exception_filter.obj
 0002:0002f690       ??$?B$$A6AXPEAXK0@Z@__crt_fast_encoded_nullptr_t@@QEBAP6AXPEAXK0@ZXZ 000000018009e690 f i libucrtd:exit.obj
 0002:0002f780       ??$__crt_fast_decode_pointer@P6AXPEAXK0@Z@@YAP6AXPEAXK0@ZQ6AX0K0@Z@Z 000000018009e780 f i libucrtd:exit.obj
 0002:0002f7d0       ??$__crt_fast_encode_pointer@P6AXPEAXK0@Z@@YAP6AXPEAXK0@ZQ6AX0K0@Z@Z 000000018009e7d0 f i libucrtd:exit.obj
 0002:0002f820       ??$__crt_get_proc_address@P6AXI@Z@@YAP6AXI@ZQEAUHINSTANCE__@@QEBD@Z 000000018009e820 f i libucrtd:exit.obj
 0002:0002f850       ??$__crt_interlocked_read@J@@YAJPEDJ@Z 000000018009e850 f i libucrtd:exit.obj
 0002:0002f930       ??0?$__crt_unique_handle_t@U__crt_hmodule_traits@@@@QEAA@QEAUHINSTANCE__@@@Z 000000018009e930 f i libucrtd:exit.obj
 0002:0002f960       ??1?$__crt_unique_handle_t@U__crt_hmodule_traits@@@@QEAA@XZ 000000018009e960 f i libucrtd:exit.obj
 0002:0002fb10       ?__acrt_select_exit_lock@@YA?AW4__acrt_lock_id@@XZ 000000018009eb10 f i libucrtd:exit.obj
 0002:0002fb20       ?__crt_fast_encode_pointer@@YA?AU__crt_fast_encoded_nullptr_t@@$$T@Z 000000018009eb20 f i libucrtd:exit.obj
 0002:0002fb40       ?__crt_interlocked_read_32@@YAHPEDH@Z 000000018009eb40 f i libucrtd:exit.obj
 0002:0002fb70       ?__crt_rotate_pointer_value@@YA_K_KH@Z 000000018009eb70 f i libucrtd:exit.obj
 0002:0002fbb0       ?close@?$__crt_unique_handle_t@U__crt_hmodule_traits@@@@QEAAXXZ 000000018009ebb0 f i libucrtd:exit.obj
 0002:0002fc00       ?close@__crt_hmodule_traits@@SA_NPEAUHINSTANCE__@@@Z 000000018009ec00 f i libucrtd:exit.obj
 0002:0002fd80       ?get@?$__crt_unique_handle_t@U__crt_hmodule_traits@@@@QEBAPEAUHINSTANCE__@@XZ 000000018009ed80 f i libucrtd:exit.obj
 0002:0002fda0       ?get_address_of@?$__crt_unique_handle_t@U__crt_hmodule_traits@@@@QEAAPEAPEAUHINSTANCE__@@XZ 000000018009eda0 f i libucrtd:exit.obj
 0002:0002fdb0       ?get_invalid_value@__crt_hmodule_traits@@SAPEAUHINSTANCE__@@XZ 000000018009edb0 f i libucrtd:exit.obj
 0002:0002ffb0       _Exit                      000000018009efb0 f   libucrtd:exit.obj
 0002:0002ffe0       __acrt_initialize_thread_local_exit_callback 000000018009efe0 f   libucrtd:exit.obj
 0002:00030000       _c_exit                    000000018009f000 f   libucrtd:exit.obj
 0002:00030030       _cexit                     000000018009f030 f   libucrtd:exit.obj
 0002:00030050       _exit                      000000018009f050 f   libucrtd:exit.obj
 0002:00030080       _is_c_termination_complete 000000018009f080 f   libucrtd:exit.obj
 0002:000300a0       _register_thread_local_exe_atexit_callback 000000018009f0a0 f   libucrtd:exit.obj
 0002:00030100       exit                       000000018009f100 f   libucrtd:exit.obj
 0002:00030130       quick_exit                 000000018009f130 f   libucrtd:exit.obj
 0002:00030160       ??$?RE@__crt_internal_free_policy@@QEBAXQEBE@Z 000000018009f160 f i libucrtd:argv_parsing.obj
 0002:00030190       ??$?RPEAD@__crt_internal_free_policy@@QEBAXQEBQEAD@Z 000000018009f190 f i libucrtd:argv_parsing.obj
 0002:000301c0       ??$?RPEA_W@__crt_internal_free_policy@@QEBAXQEBQEA_W@Z 000000018009f1c0 f i libucrtd:argv_parsing.obj
 0002:00030af0       ??$get_module_file_name@$$TAEAY0BAF@DH@?$__crt_char_traits@D@@SAK$$QEA$$TAEAY0BAF@D$$QEAH@Z 000000018009faf0 f i libucrtd:argv_parsing.obj
 0002:00030b30       ??$get_module_file_name@$$TAEAY0BAF@_WH@?$__crt_char_traits@_W@@SAK$$QEA$$TAEAY0BAF@_W$$QEAH@Z 000000018009fb30 f i libucrtd:argv_parsing.obj
 0002:000317c0       ??$set_program_name@PEAD@?$__crt_char_traits@D@@SAX$$QEAPEAD@Z 00000001800a07c0 f i libucrtd:argv_parsing.obj
 0002:000317f0       ??$set_program_name@PEA_W@?$__crt_char_traits@_W@@SAX$$QEAPEA_W@Z 00000001800a07f0 f i libucrtd:argv_parsing.obj
 0002:00031880       ??0?$__crt_unique_heap_ptr@EU__crt_internal_free_policy@@@@QEAA@QEAE@Z 00000001800a0880 f i libucrtd:argv_parsing.obj
 0002:000318b0       ??0?$__crt_unique_heap_ptr@PEADU__crt_internal_free_policy@@@@QEAA@QEAPEAD@Z 00000001800a08b0 f i libucrtd:argv_parsing.obj
 0002:000318e0       ??0?$__crt_unique_heap_ptr@PEA_WU__crt_internal_free_policy@@@@QEAA@QEAPEA_W@Z 00000001800a08e0 f i libucrtd:argv_parsing.obj
 0002:00031910       ??1?$__crt_unique_heap_ptr@EU__crt_internal_free_policy@@@@QEAA@XZ 00000001800a0910 f i libucrtd:argv_parsing.obj
 0002:00031930       ??1?$__crt_unique_heap_ptr@PEADU__crt_internal_free_policy@@@@QEAA@XZ 00000001800a0930 f i libucrtd:argv_parsing.obj
 0002:00031950       ??1?$__crt_unique_heap_ptr@PEA_WU__crt_internal_free_policy@@@@QEAA@XZ 00000001800a0950 f i libucrtd:argv_parsing.obj
 0002:00031970       ??B?$__crt_unique_heap_ptr@EU__crt_internal_free_policy@@@@QEBA_NXZ 00000001800a0970 f i libucrtd:argv_parsing.obj
 0002:00031a70       ?detach@?$__crt_unique_heap_ptr@EU__crt_internal_free_policy@@@@QEAAPEAEXZ 00000001800a0a70 f i libucrtd:argv_parsing.obj
 0002:00031ab0       ?detach@?$__crt_unique_heap_ptr@PEADU__crt_internal_free_policy@@@@QEAAPEAPEADXZ 00000001800a0ab0 f i libucrtd:argv_parsing.obj
 0002:00031af0       ?detach@?$__crt_unique_heap_ptr@PEA_WU__crt_internal_free_policy@@@@QEAAPEAPEA_WXZ 00000001800a0af0 f i libucrtd:argv_parsing.obj
 0002:00031bc0       ?get@?$__crt_unique_heap_ptr@EU__crt_internal_free_policy@@@@QEBAPEAEXZ 00000001800a0bc0 f i libucrtd:argv_parsing.obj
 0002:00031be0       ?get@?$__crt_unique_heap_ptr@PEADU__crt_internal_free_policy@@@@QEBAPEAPEADXZ 00000001800a0be0 f i libucrtd:argv_parsing.obj
 0002:00031c00       ?get@?$__crt_unique_heap_ptr@PEA_WU__crt_internal_free_policy@@@@QEBAPEAPEA_WXZ 00000001800a0c00 f i libucrtd:argv_parsing.obj
 0002:00031c20       ?get_address_of@?$__crt_unique_heap_ptr@PEADU__crt_internal_free_policy@@@@QEAAPEAPEAPEADXZ 00000001800a0c20 f i libucrtd:argv_parsing.obj
 0002:00031c30       ?get_address_of@?$__crt_unique_heap_ptr@PEA_WU__crt_internal_free_policy@@@@QEAAPEAPEAPEA_WXZ 00000001800a0c30 f i libucrtd:argv_parsing.obj
 0002:00031c80       ?is_valid@?$__crt_unique_heap_ptr@EU__crt_internal_free_policy@@@@QEBA_NXZ 00000001800a0c80 f i libucrtd:argv_parsing.obj
 0002:00031cc0       ?release@?$__crt_unique_heap_ptr@EU__crt_internal_free_policy@@@@QEAAXXZ 00000001800a0cc0 f i libucrtd:argv_parsing.obj
 0002:00031d00       ?release@?$__crt_unique_heap_ptr@PEADU__crt_internal_free_policy@@@@QEAAXXZ 00000001800a0d00 f i libucrtd:argv_parsing.obj
 0002:00031d40       ?release@?$__crt_unique_heap_ptr@PEA_WU__crt_internal_free_policy@@@@QEAAXXZ 00000001800a0d40 f i libucrtd:argv_parsing.obj
 0002:00031de0       __acrt_allocate_buffer_for_argv 00000001800a0de0 f   libucrtd:argv_parsing.obj
 0002:00031f40       _configure_narrow_argv     00000001800a0f40 f   libucrtd:argv_parsing.obj
 0002:00031f60       _configure_wide_argv       00000001800a0f60 f   libucrtd:argv_parsing.obj
 0002:00031f80       _set_pgmptr                00000001800a0f80 f i libucrtd:argv_parsing.obj
 0002:00031fa0       _set_wpgmptr               00000001800a0fa0 f i libucrtd:argv_parsing.obj
 0002:00031fc0       ??$?R_W@__crt_internal_free_policy@@QEBAXQEB_W@Z 00000001800a0fc0 f i libucrtd:environment_initialization.obj
 0002:00032be0       ??$get_environment_from_os@$$V@?$__crt_char_traits@D@@SAPEADXZ 00000001800a1be0 f i libucrtd:environment_initialization.obj
 0002:00032c00       ??$get_environment_from_os@$$V@?$__crt_char_traits@_W@@SAPEA_WXZ 00000001800a1c00 f i libucrtd:environment_initialization.obj
 0002:00032fe0       ??$set_variable_in_environment_nolock@PEADH@?$__crt_char_traits@D@@SAH$$QEAPEAD$$QEAH@Z 00000001800a1fe0 f i libucrtd:environment_initialization.obj
 0002:00033010       ??$set_variable_in_environment_nolock@PEA_WH@?$__crt_char_traits@_W@@SAH$$QEAPEA_W$$QEAH@Z 00000001800a2010 f i libucrtd:environment_initialization.obj
 0002:00033040       ??$tcscpy_s@PEADAEB_KAEAPEAD@?$__crt_char_traits@D@@SAH$$QEAPEADAEB_KAEAPEAD@Z 00000001800a2040 f i libucrtd:environment_initialization.obj
 0002:00033090       ??$tcscpy_s@PEA_WAEB_KAEAPEA_W@?$__crt_char_traits@_W@@SAH$$QEAPEA_WAEB_KAEAPEA_W@Z 00000001800a2090 f i libucrtd:environment_initialization.obj
 0002:000330e0       ??$tcslen@AEAPEAD@?$__crt_char_traits@D@@SA_KAEAPEAD@Z 00000001800a20e0 f i libucrtd:environment_initialization.obj
 0002:00033110       ??$tcslen@AEAPEA_W@?$__crt_char_traits@_W@@SA_KAEAPEA_W@Z 00000001800a2110 f i libucrtd:environment_initialization.obj
 0002:00033140       ??$uninitialize@A6AXAEAPEAPEAD@_E@?$dual_state_global@PEAPEAD@__crt_state_management@@QEAAXA6AXAEAPEAPEAD@_E@Z 00000001800a2140 f i libucrtd:environment_initialization.obj
 0002:000331d0       ??$uninitialize@A6AXAEAPEAPEA_W@_E@?$dual_state_global@PEAPEA_W@__crt_state_management@@QEAAXA6AXAEAPEAPEA_W@_E@Z 00000001800a21d0 f i libucrtd:environment_initialization.obj
 0002:000332e0       ??0?$__crt_unique_heap_ptr@_WU__crt_internal_free_policy@@@@QEAA@QEA_W@Z 00000001800a22e0 f i libucrtd:environment_initialization.obj
 0002:00033310       ??1?$__crt_unique_heap_ptr@_WU__crt_internal_free_policy@@@@QEAA@XZ 00000001800a2310 f i libucrtd:environment_initialization.obj
 0002:00033330       ??B?$__crt_unique_heap_ptr@PEADU__crt_internal_free_policy@@@@QEBA_NXZ 00000001800a2330 f i libucrtd:environment_initialization.obj
 0002:00033350       ??B?$__crt_unique_heap_ptr@PEA_WU__crt_internal_free_policy@@@@QEBA_NXZ 00000001800a2350 f i libucrtd:environment_initialization.obj
 0002:00033370       ??B?$__crt_unique_heap_ptr@_WU__crt_internal_free_policy@@@@QEBA_NXZ 00000001800a2370 f i libucrtd:environment_initialization.obj
 0002:00033390       ?__crt_compute_required_transform_buffer_count@@YA_KIQEBD@Z 00000001800a2390 f i libucrtd:environment_initialization.obj
 0002:000333e0       ?__crt_compute_required_transform_buffer_count@@YA_KIQEB_W@Z 00000001800a23e0 f i libucrtd:environment_initialization.obj
 0002:00033440       ?__crt_transform_string@@YA_KIQEBDQEA_W_K@Z 00000001800a2440 f i libucrtd:environment_initialization.obj
 0002:000334b0       ?__crt_transform_string@@YA_KIQEB_WQEAD_K@Z 00000001800a24b0 f i libucrtd:environment_initialization.obj
 0002:00033530       ?detach@?$__crt_unique_heap_ptr@DU__crt_internal_free_policy@@@@QEAAPEADXZ 00000001800a2530 f i libucrtd:environment_initialization.obj
 0002:00033570       ?detach@?$__crt_unique_heap_ptr@_WU__crt_internal_free_policy@@@@QEAAPEA_WXZ 00000001800a2570 f i libucrtd:environment_initialization.obj
 0002:000335b0       ?get@?$__crt_unique_heap_ptr@_WU__crt_internal_free_policy@@@@QEBAPEA_WXZ 00000001800a25b0 f i libucrtd:environment_initialization.obj
 0002:000335d0       ?get_current_state_index@__crt_state_management@@YA_KXZ 00000001800a25d0 f i libucrtd:environment_initialization.obj
 0002:00033660       ?initialize@?$dual_state_global@PEAPEAD@__crt_state_management@@QEAAXQEAPEAD@Z 00000001800a2660 f i libucrtd:environment_initialization.obj
 0002:000336c0       ?initialize@?$dual_state_global@PEAPEA_W@__crt_state_management@@QEAAXQEAPEA_W@Z 00000001800a26c0 f i libucrtd:environment_initialization.obj
 0002:00033720       ?is_valid@?$__crt_unique_heap_ptr@PEADU__crt_internal_free_policy@@@@QEBA_NXZ 00000001800a2720 f i libucrtd:environment_initialization.obj
 0002:00033760       ?is_valid@?$__crt_unique_heap_ptr@PEA_WU__crt_internal_free_policy@@@@QEBA_NXZ 00000001800a2760 f i libucrtd:environment_initialization.obj
 0002:000337a0       ?is_valid@?$__crt_unique_heap_ptr@_WU__crt_internal_free_policy@@@@QEBA_NXZ 00000001800a27a0 f i libucrtd:environment_initialization.obj
 0002:00033810       ?release@?$__crt_unique_heap_ptr@_WU__crt_internal_free_policy@@@@QEAAXXZ 00000001800a2810 f i libucrtd:environment_initialization.obj
 0002:00033850       ?value@?$dual_state_global@PEAPEAD@__crt_state_management@@QEAAAEAPEAPEADXZ 00000001800a2850 f i libucrtd:environment_initialization.obj
 0002:00033880       ?value@?$dual_state_global@PEAPEA_W@__crt_state_management@@QEAAAEAPEAPEA_WXZ 00000001800a2880 f i libucrtd:environment_initialization.obj
 0002:000338b0       __dcrt_get_or_create_narrow_environment_nolock 00000001800a28b0 f   libucrtd:environment_initialization.obj
 0002:000338d0       __dcrt_get_or_create_wide_environment_nolock 00000001800a28d0 f   libucrtd:environment_initialization.obj
 0002:000338f0       __dcrt_uninitialize_environments_nolock 00000001800a28f0 f   libucrtd:environment_initialization.obj
 0002:00033950       __p__environ               00000001800a2950 f   libucrtd:environment_initialization.obj
 0002:00033970       __p__wenviron              00000001800a2970 f   libucrtd:environment_initialization.obj
 0002:00033990       _get_initial_narrow_environment 00000001800a2990 f   libucrtd:environment_initialization.obj
 0002:000339b0       _get_initial_wide_environment 00000001800a29b0 f   libucrtd:environment_initialization.obj
 0002:000339d0       _initialize_narrow_environment 00000001800a29d0 f   libucrtd:environment_initialization.obj
 0002:000339f0       _initialize_wide_environment 00000001800a29f0 f   libucrtd:environment_initialization.obj
 0002:00033a10       ??$?B$$A6AXXZ@__crt_fast_encoded_nullptr_t@@QEBAP6AXXZXZ 00000001800a2a10 f i libucrtd:onexit.obj
 0002:00033a30       ??$?BP6AXXZ@__crt_fast_encoded_nullptr_t@@QEBAPEAP6AXXZXZ 00000001800a2a30 f i libucrtd:onexit.obj
 0002:00033a50       ??$?RP6AXXZ@__crt_internal_free_policy@@QEBAXQEBQ6AXXZ@Z 00000001800a2a50 f i libucrtd:onexit.obj
 0002:00033c40       ??$__crt_fast_decode_pointer@P6AXXZ@@YAP6AXXZQ6AXXZ@Z 00000001800a2c40 f i libucrtd:onexit.obj
 0002:00033c90       ??$__crt_fast_decode_pointer@PEAP6AXXZ@@YAPEAP6AXXZQEAP6AXXZ@Z 00000001800a2c90 f i libucrtd:onexit.obj
 0002:00033ce0       ??$__crt_fast_encode_pointer@P6AHXZ@@YAP6AHXZQ6AHXZ@Z 00000001800a2ce0 f i libucrtd:onexit.obj
 0002:00033d30       ??$__crt_fast_encode_pointer@P6AXXZ@@YAP6AXXZQ6AXXZ@Z 00000001800a2d30 f i libucrtd:onexit.obj
 0002:00033d80       ??$__crt_fast_encode_pointer@PEAP6AXXZ@@YAPEAP6AXXZQEAP6AXXZ@Z 00000001800a2d80 f i libucrtd:onexit.obj
 0002:00033f00       ??0?$__crt_unique_heap_ptr@P6AXXZU__crt_internal_free_policy@@@@QEAA@QEAP6AXXZ@Z 00000001800a2f00 f i libucrtd:onexit.obj
 0002:00033f30       ??1?$__crt_unique_heap_ptr@P6AXXZU__crt_internal_free_policy@@@@QEAA@XZ 00000001800a2f30 f i libucrtd:onexit.obj
 0002:00033f50       ??1scoped_global_state_reset@__crt_state_management@@QEAA@XZ 00000001800a2f50 f i libucrtd:onexit.obj
 0002:000346a0       ?detach@?$__crt_unique_heap_ptr@P6AXXZU__crt_internal_free_policy@@@@QEAAPEAP6AXXZXZ 00000001800a36a0 f i libucrtd:onexit.obj
 0002:000346e0       ?release@?$__crt_unique_heap_ptr@P6AXXZU__crt_internal_free_policy@@@@QEAAXXZ 00000001800a36e0 f i libucrtd:onexit.obj
 0002:00034720       _crt_at_quick_exit         00000001800a3720 f   libucrtd:onexit.obj
 0002:00034750       _crt_atexit                00000001800a3750 f   libucrtd:onexit.obj
 0002:00034780       _execute_onexit_table      00000001800a3780 f   libucrtd:onexit.obj
 0002:000347d0       _initialize_onexit_table   00000001800a37d0 f   libucrtd:onexit.obj
 0002:00034870       _register_onexit_function  00000001800a3870 f   libucrtd:onexit.obj
 0002:00034b50       ??$?BX@__crt_fast_encoded_nullptr_t@@QEBAPEAXXZ 00000001800a3b50 f i libucrtd:initialization.obj
 0002:00034b70       ??$__crt_fast_encode_pointer@PEAX@@YAPEAXQEAX@Z 00000001800a3b70 f i libucrtd:initialization.obj
 0002:00034cb0       ?initialize@?$dual_state_global@PEAU__crt_locale_data@@@__crt_state_management@@QEAAXQEAU__crt_locale_data@@@Z 00000001800a3cb0 f i libucrtd:initialization.obj
 0002:00034d10       __acrt_initialize          00000001800a3d10 f   libucrtd:initialization.obj
 0002:00034d40       __acrt_thread_attach       00000001800a3d40 f   libucrtd:initialization.obj
 0002:00034d60       __acrt_thread_detach       00000001800a3d60 f   libucrtd:initialization.obj
 0002:00034d80       __acrt_uninitialize        00000001800a3d80 f   libucrtd:initialization.obj
 0002:00034dc0       __acrt_uninitialize_critical 00000001800a3dc0 f   libucrtd:initialization.obj
 0002:00034e30       _get_terminate             00000001800a3e30 f   libucrtd:terminate.obj
 0002:00034e50       set_terminate              00000001800a3e50 f   libucrtd:terminate.obj
 0002:00034ea0       terminate                  00000001800a3ea0 f   libucrtd:terminate.obj
 0002:00035510       strcpy_s                   00000001800a4510 f   libucrtd:strcpy_s.obj
 0002:00035d60       strcat_s                   00000001800a4d60 f   libucrtd:strcat_s.obj
 0002:00035da0       ??$?0AEBV?$stream_output_adapter@D@__crt_stdio_output@@AEB_KAEBQEBDAEAV__crt_cached_ptd_host@@AEBQEAD@?$format_validation_base@DV?$stream_output_adapter@D@__crt_stdio_output@@@__crt_stdio_output@@IEAA@AEBV?$stream_output_adapter@D@1@AEB_KAEBQEBDAEAV__crt_cached_ptd_host@@AEBQEAD@Z 00000001800a4da0 f i libucrtd:output.obj
 0002:00035e10       ??$?0AEBV?$stream_output_adapter@D@__crt_stdio_output@@AEB_KAEBQEBDAEAV__crt_cached_ptd_host@@AEBQEAD@?$positional_parameter_base@DV?$stream_output_adapter@D@__crt_stdio_output@@@__crt_stdio_output@@IEAA@AEBV?$stream_output_adapter@D@1@AEB_KAEBQEBDAEAV__crt_cached_ptd_host@@AEBQEAD@Z 00000001800a4e10 f i libucrtd:output.obj
 0002:00035ee0       ??$?0AEBV?$stream_output_adapter@D@__crt_stdio_output@@AEB_KAEBQEBDAEAV__crt_cached_ptd_host@@AEBQEAD@?$standard_base@DV?$stream_output_adapter@D@__crt_stdio_output@@@__crt_stdio_output@@IEAA@AEBV?$stream_output_adapter@D@1@AEB_KAEBQEBDAEAV__crt_cached_ptd_host@@AEBQEAD@Z 00000001800a4ee0 f i libucrtd:output.obj
 0002:00035f60       ??$?0AEBV?$stream_output_adapter@_W@__crt_stdio_output@@AEB_KAEBQEB_WAEAV__crt_cached_ptd_host@@AEBQEAD@?$format_validation_base@_WV?$stream_output_adapter@_W@__crt_stdio_output@@@__crt_stdio_output@@IEAA@AEBV?$stream_output_adapter@_W@1@AEB_KAEBQEB_WAEAV__crt_cached_ptd_host@@AEBQEAD@Z 00000001800a4f60 f i libucrtd:output.obj
 0002:00035fd0       ??$?0AEBV?$stream_output_adapter@_W@__crt_stdio_output@@AEB_KAEBQEB_WAEAV__crt_cached_ptd_host@@AEBQEAD@?$positional_parameter_base@_WV?$stream_output_adapter@_W@__crt_stdio_output@@@__crt_stdio_output@@IEAA@AEBV?$stream_output_adapter@_W@1@AEB_KAEBQEB_WAEAV__crt_cached_ptd_host@@AEBQEAD@Z 00000001800a4fd0 f i libucrtd:output.obj
 0002:000360a0       ??$?0AEBV?$stream_output_adapter@_W@__crt_stdio_output@@AEB_KAEBQEB_WAEAV__crt_cached_ptd_host@@AEBQEAD@?$standard_base@_WV?$stream_output_adapter@_W@__crt_stdio_output@@@__crt_stdio_output@@IEAA@AEBV?$stream_output_adapter@_W@1@AEB_KAEBQEB_WAEAV__crt_cached_ptd_host@@AEBQEAD@Z 00000001800a50a0 f i libucrtd:output.obj
 0002:00036120       ??$?0AEBV?$string_output_adapter@D@__crt_stdio_output@@AEB_KAEBQEBDAEAV__crt_cached_ptd_host@@AEBQEAD@?$format_validation_base@DV?$string_output_adapter@D@__crt_stdio_output@@@__crt_stdio_output@@IEAA@AEBV?$string_output_adapter@D@1@AEB_KAEBQEBDAEAV__crt_cached_ptd_host@@AEBQEAD@Z 00000001800a5120 f i libucrtd:output.obj
 0002:00036190       ??$?0AEBV?$string_output_adapter@D@__crt_stdio_output@@AEB_KAEBQEBDAEAV__crt_cached_ptd_host@@AEBQEAD@?$positional_parameter_base@DV?$string_output_adapter@D@__crt_stdio_output@@@__crt_stdio_output@@IEAA@AEBV?$string_output_adapter@D@1@AEB_KAEBQEBDAEAV__crt_cached_ptd_host@@AEBQEAD@Z 00000001800a5190 f i libucrtd:output.obj
 0002:00036260       ??$?0AEBV?$string_output_adapter@D@__crt_stdio_output@@AEB_KAEBQEBDAEAV__crt_cached_ptd_host@@AEBQEAD@?$standard_base@DV?$string_output_adapter@D@__crt_stdio_output@@@__crt_stdio_output@@IEAA@AEBV?$string_output_adapter@D@1@AEB_KAEBQEBDAEAV__crt_cached_ptd_host@@AEBQEAD@Z 00000001800a5260 f i libucrtd:output.obj
 0002:000362e0       ??$?0AEBV?$string_output_adapter@_W@__crt_stdio_output@@AEB_KAEBQEB_WAEAV__crt_cached_ptd_host@@AEBQEAD@?$format_validation_base@_WV?$string_output_adapter@_W@__crt_stdio_output@@@__crt_stdio_output@@IEAA@AEBV?$string_output_adapter@_W@1@AEB_KAEBQEB_WAEAV__crt_cached_ptd_host@@AEBQEAD@Z 00000001800a52e0 f i libucrtd:output.obj
 0002:00036350       ??$?0AEBV?$string_output_adapter@_W@__crt_stdio_output@@AEB_KAEBQEB_WAEAV__crt_cached_ptd_host@@AEBQEAD@?$positional_parameter_base@_WV?$string_output_adapter@_W@__crt_stdio_output@@@__crt_stdio_output@@IEAA@AEBV?$string_output_adapter@_W@1@AEB_KAEBQEB_WAEAV__crt_cached_ptd_host@@AEBQEAD@Z 00000001800a5350 f i libucrtd:output.obj
 0002:00036420       ??$?0AEBV?$string_output_adapter@_W@__crt_stdio_output@@AEB_KAEBQEB_WAEAV__crt_cached_ptd_host@@AEBQEAD@?$standard_base@_WV?$string_output_adapter@_W@__crt_stdio_output@@@__crt_stdio_output@@IEAA@AEBV?$string_output_adapter@_W@1@AEB_KAEBQEB_WAEAV__crt_cached_ptd_host@@AEBQEAD@Z 00000001800a5420 f i libucrtd:output.obj
 0002:000369e0       ??$_tcstol_internal@DPEAPEAD$0A@@@YAJAEAV__crt_cached_ptd_host@@QEBDQEAPEADH@Z 00000001800a59e0 f i libucrtd:output.obj
 0002:00036a50       ??$_tcstol_internal@_WPEAPEA_W$0A@@@YAJAEAV__crt_cached_ptd_host@@QEB_WQEAPEA_WH@Z 00000001800a5a50 f i libucrtd:output.obj
 0002:0003b9d0       ??$count@D@formatting_buffer@__crt_stdio_output@@QEBA_KXZ 00000001800aa9d0 f i libucrtd:output.obj
 0002:0003ba30       ??$count@_W@formatting_buffer@__crt_stdio_output@@QEBA_KXZ 00000001800aaa30 f i libucrtd:output.obj
 0002:0003baa0       ??$data@D@formatting_buffer@__crt_stdio_output@@QEAAPEADXZ 00000001800aaaa0 f i libucrtd:output.obj
 0002:0003bb00       ??$data@_W@formatting_buffer@__crt_stdio_output@@QEAAPEA_WXZ 00000001800aab00 f i libucrtd:output.obj
 0002:0003bb60       ??$ensure_buffer_is_big_enough@D@formatting_buffer@__crt_stdio_output@@QEAA_N_KAEAV__crt_cached_ptd_host@@@Z 00000001800aab60 f i libucrtd:output.obj
 0002:0003bcf0       ??$ensure_buffer_is_big_enough@_W@formatting_buffer@__crt_stdio_output@@QEAA_N_KAEAV__crt_cached_ptd_host@@@Z 00000001800aacf0 f i libucrtd:output.obj
 0002:0003be80       ??$extract_argument_from_va_list@C_J@?$positional_parameter_base@DV?$stream_output_adapter@D@__crt_stdio_output@@@__crt_stdio_output@@IEAA_NAEA_J@Z 00000001800aae80 f i libucrtd:output.obj
 0002:0003c0b0       ??$extract_argument_from_va_list@C_J@?$positional_parameter_base@DV?$string_output_adapter@D@__crt_stdio_output@@@__crt_stdio_output@@IEAA_NAEA_J@Z 00000001800ab0b0 f i libucrtd:output.obj
 0002:0003c2e0       ??$extract_argument_from_va_list@C_J@?$positional_parameter_base@_WV?$stream_output_adapter@_W@__crt_stdio_output@@@__crt_stdio_output@@IEAA_NAEA_J@Z 00000001800ab2e0 f i libucrtd:output.obj
 0002:0003c510       ??$extract_argument_from_va_list@C_J@?$positional_parameter_base@_WV?$string_output_adapter@_W@__crt_stdio_output@@@__crt_stdio_output@@IEAA_NAEA_J@Z 00000001800ab510 f i libucrtd:output.obj
 0002:0003c740       ??$extract_argument_from_va_list@C_J@?$standard_base@DV?$stream_output_adapter@D@__crt_stdio_output@@@__crt_stdio_output@@IEAA_NAEA_J@Z 00000001800ab740 f i libucrtd:output.obj
 0002:0003c780       ??$extract_argument_from_va_list@C_J@?$standard_base@DV?$string_output_adapter@D@__crt_stdio_output@@@__crt_stdio_output@@IEAA_NAEA_J@Z 00000001800ab780 f i libucrtd:output.obj
 0002:0003c7c0       ??$extract_argument_from_va_list@C_J@?$standard_base@_WV?$stream_output_adapter@_W@__crt_stdio_output@@@__crt_stdio_output@@IEAA_NAEA_J@Z 00000001800ab7c0 f i libucrtd:output.obj
 0002:0003c800       ??$extract_argument_from_va_list@C_J@?$standard_base@_WV?$string_output_adapter@_W@__crt_stdio_output@@@__crt_stdio_output@@IEAA_NAEA_J@Z 00000001800ab800 f i libucrtd:output.obj
 0002:0003c840       ??$extract_argument_from_va_list@E_J@?$positional_parameter_base@DV?$stream_output_adapter@D@__crt_stdio_output@@@__crt_stdio_output@@IEAA_NAEA_J@Z 00000001800ab840 f i libucrtd:output.obj
 0002:0003ca70       ??$extract_argument_from_va_list@E_J@?$positional_parameter_base@DV?$string_output_adapter@D@__crt_stdio_output@@@__crt_stdio_output@@IEAA_NAEA_J@Z 00000001800aba70 f i libucrtd:output.obj
 0002:0003cca0       ??$extract_argument_from_va_list@E_J@?$positional_parameter_base@_WV?$stream_output_adapter@_W@__crt_stdio_output@@@__crt_stdio_output@@IEAA_NAEA_J@Z 00000001800abca0 f i libucrtd:output.obj
 0002:0003ced0       ??$extract_argument_from_va_list@E_J@?$positional_parameter_base@_WV?$string_output_adapter@_W@__crt_stdio_output@@@__crt_stdio_output@@IEAA_NAEA_J@Z 00000001800abed0 f i libucrtd:output.obj
 0002:0003d100       ??$extract_argument_from_va_list@E_J@?$standard_base@DV?$stream_output_adapter@D@__crt_stdio_output@@@__crt_stdio_output@@IEAA_NAEA_J@Z 00000001800ac100 f i libucrtd:output.obj
 0002:0003d140       ??$extract_argument_from_va_list@E_J@?$standard_base@DV?$string_output_adapter@D@__crt_stdio_output@@@__crt_stdio_output@@IEAA_NAEA_J@Z 00000001800ac140 f i libucrtd:output.obj
 0002:0003d180       ??$extract_argument_from_va_list@E_J@?$standard_base@_WV?$stream_output_adapter@_W@__crt_stdio_output@@@__crt_stdio_output@@IEAA_NAEA_J@Z 00000001800ac180 f i libucrtd:output.obj
 0002:0003d1c0       ??$extract_argument_from_va_list@E_J@?$standard_base@_WV?$string_output_adapter@_W@__crt_stdio_output@@@__crt_stdio_output@@IEAA_NAEA_J@Z 00000001800ac1c0 f i libucrtd:output.obj
 0002:0003d200       ??$extract_argument_from_va_list@F_J@?$positional_parameter_base@DV?$stream_output_adapter@D@__crt_stdio_output@@@__crt_stdio_output@@IEAA_NAEA_J@Z 00000001800ac200 f i libucrtd:output.obj
 0002:0003d430       ??$extract_argument_from_va_list@F_J@?$positional_parameter_base@DV?$string_output_adapter@D@__crt_stdio_output@@@__crt_stdio_output@@IEAA_NAEA_J@Z 00000001800ac430 f i libucrtd:output.obj
 0002:0003d660       ??$extract_argument_from_va_list@F_J@?$positional_parameter_base@_WV?$stream_output_adapter@_W@__crt_stdio_output@@@__crt_stdio_output@@IEAA_NAEA_J@Z 00000001800ac660 f i libucrtd:output.obj
 0002:0003d890       ??$extract_argument_from_va_list@F_J@?$positional_parameter_base@_WV?$string_output_adapter@_W@__crt_stdio_output@@@__crt_stdio_output@@IEAA_NAEA_J@Z 00000001800ac890 f i libucrtd:output.obj
 0002:0003dac0       ??$extract_argument_from_va_list@F_J@?$standard_base@DV?$stream_output_adapter@D@__crt_stdio_output@@@__crt_stdio_output@@IEAA_NAEA_J@Z 00000001800acac0 f i libucrtd:output.obj
 0002:0003db00       ??$extract_argument_from_va_list@F_J@?$standard_base@DV?$string_output_adapter@D@__crt_stdio_output@@@__crt_stdio_output@@IEAA_NAEA_J@Z 00000001800acb00 f i libucrtd:output.obj
 0002:0003db40       ??$extract_argument_from_va_list@F_J@?$standard_base@_WV?$stream_output_adapter@_W@__crt_stdio_output@@@__crt_stdio_output@@IEAA_NAEA_J@Z 00000001800acb40 f i libucrtd:output.obj
 0002:0003db80       ??$extract_argument_from_va_list@F_J@?$standard_base@_WV?$string_output_adapter@_W@__crt_stdio_output@@@__crt_stdio_output@@IEAA_NAEA_J@Z 00000001800acb80 f i libucrtd:output.obj
 0002:0003dbc0       ??$extract_argument_from_va_list@GD@?$positional_parameter_base@DV?$stream_output_adapter@D@__crt_stdio_output@@@__crt_stdio_output@@IEAA_NAEAD@Z 00000001800acbc0 f i libucrtd:output.obj
 0002:0003ddf0       ??$extract_argument_from_va_list@GD@?$positional_parameter_base@DV?$string_output_adapter@D@__crt_stdio_output@@@__crt_stdio_output@@IEAA_NAEAD@Z 00000001800acdf0 f i libucrtd:output.obj
 0002:0003e020       ??$extract_argument_from_va_list@GD@?$standard_base@DV?$stream_output_adapter@D@__crt_stdio_output@@@__crt_stdio_output@@IEAA_NAEAD@Z 00000001800ad020 f i libucrtd:output.obj
 0002:0003e060       ??$extract_argument_from_va_list@GD@?$standard_base@DV?$string_output_adapter@D@__crt_stdio_output@@@__crt_stdio_output@@IEAA_NAEAD@Z 00000001800ad060 f i libucrtd:output.obj
 0002:0003e0a0       ??$extract_argument_from_va_list@G_J@?$positional_parameter_base@DV?$stream_output_adapter@D@__crt_stdio_output@@@__crt_stdio_output@@IEAA_NAEA_J@Z 00000001800ad0a0 f i libucrtd:output.obj
 0002:0003e2d0       ??$extract_argument_from_va_list@G_J@?$positional_parameter_base@DV?$string_output_adapter@D@__crt_stdio_output@@@__crt_stdio_output@@IEAA_NAEA_J@Z 00000001800ad2d0 f i libucrtd:output.obj
 0002:0003e500       ??$extract_argument_from_va_list@G_J@?$positional_parameter_base@_WV?$stream_output_adapter@_W@__crt_stdio_output@@@__crt_stdio_output@@IEAA_NAEA_J@Z 00000001800ad500 f i libucrtd:output.obj
 0002:0003e730       ??$extract_argument_from_va_list@G_J@?$positional_parameter_base@_WV?$string_output_adapter@_W@__crt_stdio_output@@@__crt_stdio_output@@IEAA_NAEA_J@Z 00000001800ad730 f i libucrtd:output.obj
 0002:0003e960       ??$extract_argument_from_va_list@G_J@?$standard_base@DV?$stream_output_adapter@D@__crt_stdio_output@@@__crt_stdio_output@@IEAA_NAEA_J@Z 00000001800ad960 f i libucrtd:output.obj
 0002:0003e9a0       ??$extract_argument_from_va_list@G_J@?$standard_base@DV?$string_output_adapter@D@__crt_stdio_output@@@__crt_stdio_output@@IEAA_NAEA_J@Z 00000001800ad9a0 f i libucrtd:output.obj
 0002:0003e9e0       ??$extract_argument_from_va_list@G_J@?$standard_base@_WV?$stream_output_adapter@_W@__crt_stdio_output@@@__crt_stdio_output@@IEAA_NAEA_J@Z 00000001800ad9e0 f i libucrtd:output.obj
 0002:0003ea20       ??$extract_argument_from_va_list@G_J@?$standard_base@_WV?$string_output_adapter@_W@__crt_stdio_output@@@__crt_stdio_output@@IEAA_NAEA_J@Z 00000001800ada20 f i libucrtd:output.obj
 0002:0003ea60       ??$extract_argument_from_va_list@H_J@?$positional_parameter_base@DV?$stream_output_adapter@D@__crt_stdio_output@@@__crt_stdio_output@@IEAA_NAEA_J@Z 00000001800ada60 f i libucrtd:output.obj
 0002:0003ec90       ??$extract_argument_from_va_list@H_J@?$positional_parameter_base@DV?$string_output_adapter@D@__crt_stdio_output@@@__crt_stdio_output@@IEAA_NAEA_J@Z 00000001800adc90 f i libucrtd:output.obj
 0002:0003eec0       ??$extract_argument_from_va_list@H_J@?$positional_parameter_base@_WV?$stream_output_adapter@_W@__crt_stdio_output@@@__crt_stdio_output@@IEAA_NAEA_J@Z 00000001800adec0 f i libucrtd:output.obj
 0002:0003f0f0       ??$extract_argument_from_va_list@H_J@?$positional_parameter_base@_WV?$string_output_adapter@_W@__crt_stdio_output@@@__crt_stdio_output@@IEAA_NAEA_J@Z 00000001800ae0f0 f i libucrtd:output.obj
 0002:0003f320       ??$extract_argument_from_va_list@H_J@?$standard_base@DV?$stream_output_adapter@D@__crt_stdio_output@@@__crt_stdio_output@@IEAA_NAEA_J@Z 00000001800ae320 f i libucrtd:output.obj
 0002:0003f360       ??$extract_argument_from_va_list@H_J@?$standard_base@DV?$string_output_adapter@D@__crt_stdio_output@@@__crt_stdio_output@@IEAA_NAEA_J@Z 00000001800ae360 f i libucrtd:output.obj
 0002:0003f3a0       ??$extract_argument_from_va_list@H_J@?$standard_base@_WV?$stream_output_adapter@_W@__crt_stdio_output@@@__crt_stdio_output@@IEAA_NAEA_J@Z 00000001800ae3a0 f i libucrtd:output.obj
 0002:0003f3e0       ??$extract_argument_from_va_list@H_J@?$standard_base@_WV?$string_output_adapter@_W@__crt_stdio_output@@@__crt_stdio_output@@IEAA_NAEA_J@Z 00000001800ae3e0 f i libucrtd:output.obj
 0002:0003f420       ??$extract_argument_from_va_list@I_J@?$positional_parameter_base@DV?$stream_output_adapter@D@__crt_stdio_output@@@__crt_stdio_output@@IEAA_NAEA_J@Z 00000001800ae420 f i libucrtd:output.obj
 0002:0003f650       ??$extract_argument_from_va_list@I_J@?$positional_parameter_base@DV?$string_output_adapter@D@__crt_stdio_output@@@__crt_stdio_output@@IEAA_NAEA_J@Z 00000001800ae650 f i libucrtd:output.obj
 0002:0003f880       ??$extract_argument_from_va_list@I_J@?$positional_parameter_base@_WV?$stream_output_adapter@_W@__crt_stdio_output@@@__crt_stdio_output@@IEAA_NAEA_J@Z 00000001800ae880 f i libucrtd:output.obj
 0002:0003fab0       ??$extract_argument_from_va_list@I_J@?$positional_parameter_base@_WV?$string_output_adapter@_W@__crt_stdio_output@@@__crt_stdio_output@@IEAA_NAEA_J@Z 00000001800aeab0 f i libucrtd:output.obj
 0002:0003fce0       ??$extract_argument_from_va_list@I_J@?$standard_base@DV?$stream_output_adapter@D@__crt_stdio_output@@@__crt_stdio_output@@IEAA_NAEA_J@Z 00000001800aece0 f i libucrtd:output.obj
 0002:0003fd20       ??$extract_argument_from_va_list@I_J@?$standard_base@DV?$string_output_adapter@D@__crt_stdio_output@@@__crt_stdio_output@@IEAA_NAEA_J@Z 00000001800aed20 f i libucrtd:output.obj
 0002:0003fd60       ??$extract_argument_from_va_list@I_J@?$standard_base@_WV?$stream_output_adapter@_W@__crt_stdio_output@@@__crt_stdio_output@@IEAA_NAEA_J@Z 00000001800aed60 f i libucrtd:output.obj
 0002:0003fda0       ??$extract_argument_from_va_list@I_J@?$standard_base@_WV?$string_output_adapter@_W@__crt_stdio_output@@@__crt_stdio_output@@IEAA_NAEA_J@Z 00000001800aeda0 f i libucrtd:output.obj
 0002:0003fde0       ??$extract_argument_from_va_list@PEADPEAD@?$positional_parameter_base@DV?$stream_output_adapter@D@__crt_stdio_output@@@__crt_stdio_output@@IEAA_NAEAPEAD@Z 00000001800aede0 f i libucrtd:output.obj
 0002:00040010       ??$extract_argument_from_va_list@PEADPEAD@?$positional_parameter_base@DV?$string_output_adapter@D@__crt_stdio_output@@@__crt_stdio_output@@IEAA_NAEAPEAD@Z 00000001800af010 f i libucrtd:output.obj
 0002:00040240       ??$extract_argument_from_va_list@PEADPEAD@?$positional_parameter_base@_WV?$stream_output_adapter@_W@__crt_stdio_output@@@__crt_stdio_output@@IEAA_NAEAPEAD@Z 00000001800af240 f i libucrtd:output.obj
 0002:00040470       ??$extract_argument_from_va_list@PEADPEAD@?$positional_parameter_base@_WV?$string_output_adapter@_W@__crt_stdio_output@@@__crt_stdio_output@@IEAA_NAEAPEAD@Z 00000001800af470 f i libucrtd:output.obj
 0002:000406a0       ??$extract_argument_from_va_list@PEADPEAD@?$standard_base@DV?$stream_output_adapter@D@__crt_stdio_output@@@__crt_stdio_output@@IEAA_NAEAPEAD@Z 00000001800af6a0 f i libucrtd:output.obj
 0002:000406e0       ??$extract_argument_from_va_list@PEADPEAD@?$standard_base@DV?$string_output_adapter@D@__crt_stdio_output@@@__crt_stdio_output@@IEAA_NAEAPEAD@Z 00000001800af6e0 f i libucrtd:output.obj
 0002:00040720       ??$extract_argument_from_va_list@PEADPEAD@?$standard_base@_WV?$stream_output_adapter@_W@__crt_stdio_output@@@__crt_stdio_output@@IEAA_NAEAPEAD@Z 00000001800af720 f i libucrtd:output.obj
 0002:00040760       ??$extract_argument_from_va_list@PEADPEAD@?$standard_base@_WV?$string_output_adapter@_W@__crt_stdio_output@@@__crt_stdio_output@@IEAA_NAEAPEAD@Z 00000001800af760 f i libucrtd:output.obj
 0002:000407a0       ??$extract_argument_from_va_list@PEAUansi_string@?1??type_case_Z@?$output_processor@DV?$stream_output_adapter@D@__crt_stdio_output@@V?$format_validation_base@DV?$stream_output_adapter@D@__crt_stdio_output@@@2@@__crt_stdio_output@@AEAA_NXZ@PEAU1?1??234@AEAA_NXZ@@?$standard_base@DV?$stream_output_adapter@D@__crt_stdio_output@@@__crt_stdio_output@@IEAA_NAEAPEAUansi_string@?1??type_case_Z@?$output_processor@DV?$stream_output_adapter@D@__crt_stdio_output@@V?$format_validation_base@DV?$stream_output_adapter@D@__crt_stdio_output@@@2@@1@AEAA_NXZ@@Z 00000001800af7a0 f i libucrtd:output.obj
 0002:000407e0       ??$extract_argument_from_va_list@PEAUansi_string@?1??type_case_Z@?$output_processor@DV?$stream_output_adapter@D@__crt_stdio_output@@V?$positional_parameter_base@DV?$stream_output_adapter@D@__crt_stdio_output@@@2@@__crt_stdio_output@@AEAA_NXZ@PEAU1?1??234@AEAA_NXZ@@?$positional_parameter_base@DV?$stream_output_adapter@D@__crt_stdio_output@@@__crt_stdio_output@@IEAA_NAEAPEAUansi_string@?1??type_case_Z@?$output_processor@DV?$stream_output_adapter@D@__crt_stdio_output@@V?$positional_parameter_base@DV?$stream_output_adapter@D@__crt_stdio_output@@@2@@1@AEAA_NXZ@@Z 00000001800af7e0 f i libucrtd:output.obj
 0002:00040a10       ??$extract_argument_from_va_list@PEAUansi_string@?1??type_case_Z@?$output_processor@DV?$stream_output_adapter@D@__crt_stdio_output@@V?$positional_parameter_base@DV?$stream_output_adapter@D@__crt_stdio_output@@@2@@__crt_stdio_output@@AEAA_NXZ@PEAU1?1??234@AEAA_NXZ@@?$standard_base@DV?$stream_output_adapter@D@__crt_stdio_output@@@__crt_stdio_output@@IEAA_NAEAPEAUansi_string@?1??type_case_Z@?$output_processor@DV?$stream_output_adapter@D@__crt_stdio_output@@V?$positional_parameter_base@DV?$stream_output_adapter@D@__crt_stdio_output@@@2@@1@AEAA_NXZ@@Z 00000001800afa10 f i libucrtd:output.obj
 0002:00040a50       ??$extract_argument_from_va_list@PEAUansi_string@?1??type_case_Z@?$output_processor@DV?$stream_output_adapter@D@__crt_stdio_output@@V?$standard_base@DV?$stream_output_adapter@D@__crt_stdio_output@@@2@@__crt_stdio_output@@AEAA_NXZ@PEAU1?1??234@AEAA_NXZ@@?$standard_base@DV?$stream_output_adapter@D@__crt_stdio_output@@@__crt_stdio_output@@IEAA_NAEAPEAUansi_string@?1??type_case_Z@?$output_processor@DV?$stream_output_adapter@D@__crt_stdio_output@@V?$standard_base@DV?$stream_output_adapter@D@__crt_stdio_output@@@2@@1@AEAA_NXZ@@Z 00000001800afa50 f i libucrtd:output.obj
 0002:00040a90       ??$extract_argument_from_va_list@PEAUansi_string@?1??type_case_Z@?$output_processor@DV?$string_output_adapter@D@__crt_stdio_output@@V?$format_validation_base@DV?$string_output_adapter@D@__crt_stdio_output@@@2@@__crt_stdio_output@@AEAA_NXZ@PEAU1?1??234@AEAA_NXZ@@?$standard_base@DV?$string_output_adapter@D@__crt_stdio_output@@@__crt_stdio_output@@IEAA_NAEAPEAUansi_string@?1??type_case_Z@?$output_processor@DV?$string_output_adapter@D@__crt_stdio_output@@V?$format_validation_base@DV?$string_output_adapter@D@__crt_stdio_output@@@2@@1@AEAA_NXZ@@Z 00000001800afa90 f i libucrtd:output.obj
 0002:00040ad0       ??$extract_argument_from_va_list@PEAUansi_string@?1??type_case_Z@?$output_processor@DV?$string_output_adapter@D@__crt_stdio_output@@V?$positional_parameter_base@DV?$string_output_adapter@D@__crt_stdio_output@@@2@@__crt_stdio_output@@AEAA_NXZ@PEAU1?1??234@AEAA_NXZ@@?$positional_parameter_base@DV?$string_output_adapter@D@__crt_stdio_output@@@__crt_stdio_output@@IEAA_NAEAPEAUansi_string@?1??type_case_Z@?$output_processor@DV?$string_output_adapter@D@__crt_stdio_output@@V?$positional_parameter_base@DV?$string_output_adapter@D@__crt_stdio_output@@@2@@1@AEAA_NXZ@@Z 00000001800afad0 f i libucrtd:output.obj
 0002:00040d00       ??$extract_argument_from_va_list@PEAUansi_string@?1??type_case_Z@?$output_processor@DV?$string_output_adapter@D@__crt_stdio_output@@V?$positional_parameter_base@DV?$string_output_adapter@D@__crt_stdio_output@@@2@@__crt_stdio_output@@AEAA_NXZ@PEAU1?1??234@AEAA_NXZ@@?$standard_base@DV?$string_output_adapter@D@__crt_stdio_output@@@__crt_stdio_output@@IEAA_NAEAPEAUansi_string@?1??type_case_Z@?$output_processor@DV?$string_output_adapter@D@__crt_stdio_output@@V?$positional_parameter_base@DV?$string_output_adapter@D@__crt_stdio_output@@@2@@1@AEAA_NXZ@@Z 00000001800afd00 f i libucrtd:output.obj
 0002:00040d40       ??$extract_argument_from_va_list@PEAUansi_string@?1??type_case_Z@?$output_processor@DV?$string_output_adapter@D@__crt_stdio_output@@V?$standard_base@DV?$string_output_adapter@D@__crt_stdio_output@@@2@@__crt_stdio_output@@AEAA_NXZ@PEAU1?1??234@AEAA_NXZ@@?$standard_base@DV?$string_output_adapter@D@__crt_stdio_output@@@__crt_stdio_output@@IEAA_NAEAPEAUansi_string@?1??type_case_Z@?$output_processor@DV?$string_output_adapter@D@__crt_stdio_output@@V?$standard_base@DV?$string_output_adapter@D@__crt_stdio_output@@@2@@1@AEAA_NXZ@@Z 00000001800afd40 f i libucrtd:output.obj
 0002:00040d80       ??$extract_argument_from_va_list@PEAUansi_string@?1??type_case_Z@?$output_processor@_WV?$stream_output_adapter@_W@__crt_stdio_output@@V?$format_validation_base@_WV?$stream_output_adapter@_W@__crt_stdio_output@@@2@@__crt_stdio_output@@AEAA_NXZ@PEAU1?1??234@AEAA_NXZ@@?$standard_base@_WV?$stream_output_adapter@_W@__crt_stdio_output@@@__crt_stdio_output@@IEAA_NAEAPEAUansi_string@?1??type_case_Z@?$output_processor@_WV?$stream_output_adapter@_W@__crt_stdio_output@@V?$format_validation_base@_WV?$stream_output_adapter@_W@__crt_stdio_output@@@2@@1@AEAA_NXZ@@Z 00000001800afd80 f i libucrtd:output.obj
 0002:00040dc0       ??$extract_argument_from_va_list@PEAUansi_string@?1??type_case_Z@?$output_processor@_WV?$stream_output_adapter@_W@__crt_stdio_output@@V?$positional_parameter_base@_WV?$stream_output_adapter@_W@__crt_stdio_output@@@2@@__crt_stdio_output@@AEAA_NXZ@PEAU1?1??234@AEAA_NXZ@@?$positional_parameter_base@_WV?$stream_output_adapter@_W@__crt_stdio_output@@@__crt_stdio_output@@IEAA_NAEAPEAUansi_string@?1??type_case_Z@?$output_processor@_WV?$stream_output_adapter@_W@__crt_stdio_output@@V?$positional_parameter_base@_WV?$stream_output_adapter@_W@__crt_stdio_output@@@2@@1@AEAA_NXZ@@Z 00000001800afdc0 f i libucrtd:output.obj
 0002:00040ff0       ??$extract_argument_from_va_list@PEAUansi_string@?1??type_case_Z@?$output_processor@_WV?$stream_output_adapter@_W@__crt_stdio_output@@V?$positional_parameter_base@_WV?$stream_output_adapter@_W@__crt_stdio_output@@@2@@__crt_stdio_output@@AEAA_NXZ@PEAU1?1??234@AEAA_NXZ@@?$standard_base@_WV?$stream_output_adapter@_W@__crt_stdio_output@@@__crt_stdio_output@@IEAA_NAEAPEAUansi_string@?1??type_case_Z@?$output_processor@_WV?$stream_output_adapter@_W@__crt_stdio_output@@V?$positional_parameter_base@_WV?$stream_output_adapter@_W@__crt_stdio_output@@@2@@1@AEAA_NXZ@@Z 00000001800afff0 f i libucrtd:output.obj
 0002:00041030       ??$extract_argument_from_va_list@PEAUansi_string@?1??type_case_Z@?$output_processor@_WV?$stream_output_adapter@_W@__crt_stdio_output@@V?$standard_base@_WV?$stream_output_adapter@_W@__crt_stdio_output@@@2@@__crt_stdio_output@@AEAA_NXZ@PEAU1?1??234@AEAA_NXZ@@?$standard_base@_WV?$stream_output_adapter@_W@__crt_stdio_output@@@__crt_stdio_output@@IEAA_NAEAPEAUansi_string@?1??type_case_Z@?$output_processor@_WV?$stream_output_adapter@_W@__crt_stdio_output@@V?$standard_base@_WV?$stream_output_adapter@_W@__crt_stdio_output@@@2@@1@AEAA_NXZ@@Z 00000001800b0030 f i libucrtd:output.obj
 0002:00041070       ??$extract_argument_from_va_list@PEAUansi_string@?1??type_case_Z@?$output_processor@_WV?$string_output_adapter@_W@__crt_stdio_output@@V?$format_validation_base@_WV?$string_output_adapter@_W@__crt_stdio_output@@@2@@__crt_stdio_output@@AEAA_NXZ@PEAU1?1??234@AEAA_NXZ@@?$standard_base@_WV?$string_output_adapter@_W@__crt_stdio_output@@@__crt_stdio_output@@IEAA_NAEAPEAUansi_string@?1??type_case_Z@?$output_processor@_WV?$string_output_adapter@_W@__crt_stdio_output@@V?$format_validation_base@_WV?$string_output_adapter@_W@__crt_stdio_output@@@2@@1@AEAA_NXZ@@Z 00000001800b0070 f i libucrtd:output.obj
 0002:000410b0       ??$extract_argument_from_va_list@PEAUansi_string@?1??type_case_Z@?$output_processor@_WV?$string_output_adapter@_W@__crt_stdio_output@@V?$positional_parameter_base@_WV?$string_output_adapter@_W@__crt_stdio_output@@@2@@__crt_stdio_output@@AEAA_NXZ@PEAU1?1??234@AEAA_NXZ@@?$positional_parameter_base@_WV?$string_output_adapter@_W@__crt_stdio_output@@@__crt_stdio_output@@IEAA_NAEAPEAUansi_string@?1??type_case_Z@?$output_processor@_WV?$string_output_adapter@_W@__crt_stdio_output@@V?$positional_parameter_base@_WV?$string_output_adapter@_W@__crt_stdio_output@@@2@@1@AEAA_NXZ@@Z 00000001800b00b0 f i libucrtd:output.obj
 0002:000412e0       ??$extract_argument_from_va_list@PEAUansi_string@?1??type_case_Z@?$output_processor@_WV?$string_output_adapter@_W@__crt_stdio_output@@V?$positional_parameter_base@_WV?$string_output_adapter@_W@__crt_stdio_output@@@2@@__crt_stdio_output@@AEAA_NXZ@PEAU1?1??234@AEAA_NXZ@@?$standard_base@_WV?$string_output_adapter@_W@__crt_stdio_output@@@__crt_stdio_output@@IEAA_NAEAPEAUansi_string@?1??type_case_Z@?$output_processor@_WV?$string_output_adapter@_W@__crt_stdio_output@@V?$positional_parameter_base@_WV?$string_output_adapter@_W@__crt_stdio_output@@@2@@1@AEAA_NXZ@@Z 00000001800b02e0 f i libucrtd:output.obj
 0002:00041320       ??$extract_argument_from_va_list@PEAUansi_string@?1??type_case_Z@?$output_processor@_WV?$string_output_adapter@_W@__crt_stdio_output@@V?$standard_base@_WV?$string_output_adapter@_W@__crt_stdio_output@@@2@@__crt_stdio_output@@AEAA_NXZ@PEAU1?1??234@AEAA_NXZ@@?$standard_base@_WV?$string_output_adapter@_W@__crt_stdio_output@@@__crt_stdio_output@@IEAA_NAEAPEAUansi_string@?1??type_case_Z@?$output_processor@_WV?$string_output_adapter@_W@__crt_stdio_output@@V?$standard_base@_WV?$string_output_adapter@_W@__crt_stdio_output@@@2@@1@AEAA_NXZ@@Z 00000001800b0320 f i libucrtd:output.obj
 0002:00041360       ??$extract_argument_from_va_list@PEAXPEAX@?$positional_parameter_base@DV?$stream_output_adapter@D@__crt_stdio_output@@@__crt_stdio_output@@IEAA_NAEAPEAX@Z 00000001800b0360 f i libucrtd:output.obj
 0002:00041590       ??$extract_argument_from_va_list@PEAXPEAX@?$positional_parameter_base@DV?$string_output_adapter@D@__crt_stdio_output@@@__crt_stdio_output@@IEAA_NAEAPEAX@Z 00000001800b0590 f i libucrtd:output.obj
 0002:000417c0       ??$extract_argument_from_va_list@PEAXPEAX@?$positional_parameter_base@_WV?$stream_output_adapter@_W@__crt_stdio_output@@@__crt_stdio_output@@IEAA_NAEAPEAX@Z 00000001800b07c0 f i libucrtd:output.obj
 0002:000419f0       ??$extract_argument_from_va_list@PEAXPEAX@?$positional_parameter_base@_WV?$string_output_adapter@_W@__crt_stdio_output@@@__crt_stdio_output@@IEAA_NAEAPEAX@Z 00000001800b09f0 f i libucrtd:output.obj
 0002:00041c20       ??$extract_argument_from_va_list@PEAXPEAX@?$standard_base@DV?$stream_output_adapter@D@__crt_stdio_output@@@__crt_stdio_output@@IEAA_NAEAPEAX@Z 00000001800b0c20 f i libucrtd:output.obj
 0002:00041c60       ??$extract_argument_from_va_list@PEAXPEAX@?$standard_base@DV?$string_output_adapter@D@__crt_stdio_output@@@__crt_stdio_output@@IEAA_NAEAPEAX@Z 00000001800b0c60 f i libucrtd:output.obj
 0002:00041ca0       ??$extract_argument_from_va_list@PEAXPEAX@?$standard_base@_WV?$stream_output_adapter@_W@__crt_stdio_output@@@__crt_stdio_output@@IEAA_NAEAPEAX@Z 00000001800b0ca0 f i libucrtd:output.obj
 0002:00041ce0       ??$extract_argument_from_va_list@PEAXPEAX@?$standard_base@_WV?$string_output_adapter@_W@__crt_stdio_output@@@__crt_stdio_output@@IEAA_NAEAPEAX@Z 00000001800b0ce0 f i libucrtd:output.obj
 0002:00041d20       ??$extract_argument_from_va_list@U_CRT_DOUBLE@@U1@@?$positional_parameter_base@DV?$stream_output_adapter@D@__crt_stdio_output@@@__crt_stdio_output@@IEAA_NAEAU_CRT_DOUBLE@@@Z 00000001800b0d20 f i libucrtd:output.obj
 0002:00041fb0       ??$extract_argument_from_va_list@U_CRT_DOUBLE@@U1@@?$positional_parameter_base@DV?$string_output_adapter@D@__crt_stdio_output@@@__crt_stdio_output@@IEAA_NAEAU_CRT_DOUBLE@@@Z 00000001800b0fb0 f i libucrtd:output.obj
 0002:00042240       ??$extract_argument_from_va_list@U_CRT_DOUBLE@@U1@@?$positional_parameter_base@_WV?$stream_output_adapter@_W@__crt_stdio_output@@@__crt_stdio_output@@IEAA_NAEAU_CRT_DOUBLE@@@Z 00000001800b1240 f i libucrtd:output.obj
 0002:000424e0       ??$extract_argument_from_va_list@U_CRT_DOUBLE@@U1@@?$positional_parameter_base@_WV?$string_output_adapter@_W@__crt_stdio_output@@@__crt_stdio_output@@IEAA_NAEAU_CRT_DOUBLE@@@Z 00000001800b14e0 f i libucrtd:output.obj
 0002:00042780       ??$extract_argument_from_va_list@U_CRT_DOUBLE@@U1@@?$standard_base@DV?$stream_output_adapter@D@__crt_stdio_output@@@__crt_stdio_output@@IEAA_NAEAU_CRT_DOUBLE@@@Z 00000001800b1780 f i libucrtd:output.obj
 0002:000427d0       ??$extract_argument_from_va_list@U_CRT_DOUBLE@@U1@@?$standard_base@DV?$string_output_adapter@D@__crt_stdio_output@@@__crt_stdio_output@@IEAA_NAEAU_CRT_DOUBLE@@@Z 00000001800b17d0 f i libucrtd:output.obj
 0002:00042820       ??$extract_argument_from_va_list@U_CRT_DOUBLE@@U1@@?$standard_base@_WV?$stream_output_adapter@_W@__crt_stdio_output@@@__crt_stdio_output@@IEAA_NAEAU_CRT_DOUBLE@@@Z 00000001800b1820 f i libucrtd:output.obj
 0002:00042870       ??$extract_argument_from_va_list@U_CRT_DOUBLE@@U1@@?$standard_base@_WV?$string_output_adapter@_W@__crt_stdio_output@@@__crt_stdio_output@@IEAA_NAEAU_CRT_DOUBLE@@@Z 00000001800b1870 f i libucrtd:output.obj
 0002:000428c0       ??$extract_argument_from_va_list@_J_J@?$positional_parameter_base@DV?$stream_output_adapter@D@__crt_stdio_output@@@__crt_stdio_output@@IEAA_NAEA_J@Z 00000001800b18c0 f i libucrtd:output.obj
 0002:00042af0       ??$extract_argument_from_va_list@_J_J@?$positional_parameter_base@DV?$string_output_adapter@D@__crt_stdio_output@@@__crt_stdio_output@@IEAA_NAEA_J@Z 00000001800b1af0 f i libucrtd:output.obj
 0002:00042d20       ??$extract_argument_from_va_list@_J_J@?$positional_parameter_base@_WV?$stream_output_adapter@_W@__crt_stdio_output@@@__crt_stdio_output@@IEAA_NAEA_J@Z 00000001800b1d20 f i libucrtd:output.obj
 0002:00042f50       ??$extract_argument_from_va_list@_J_J@?$positional_parameter_base@_WV?$string_output_adapter@_W@__crt_stdio_output@@@__crt_stdio_output@@IEAA_NAEA_J@Z 00000001800b1f50 f i libucrtd:output.obj
 0002:00043180       ??$extract_argument_from_va_list@_J_J@?$standard_base@DV?$stream_output_adapter@D@__crt_stdio_output@@@__crt_stdio_output@@IEAA_NAEA_J@Z 00000001800b2180 f i libucrtd:output.obj
 0002:000431c0       ??$extract_argument_from_va_list@_J_J@?$standard_base@DV?$string_output_adapter@D@__crt_stdio_output@@@__crt_stdio_output@@IEAA_NAEA_J@Z 00000001800b21c0 f i libucrtd:output.obj
 0002:00043200       ??$extract_argument_from_va_list@_J_J@?$standard_base@_WV?$stream_output_adapter@_W@__crt_stdio_output@@@__crt_stdio_output@@IEAA_NAEA_J@Z 00000001800b2200 f i libucrtd:output.obj
 0002:00043240       ??$extract_argument_from_va_list@_J_J@?$standard_base@_WV?$string_output_adapter@_W@__crt_stdio_output@@@__crt_stdio_output@@IEAA_NAEA_J@Z 00000001800b2240 f i libucrtd:output.obj
 0002:00043280       ??$extract_argument_from_va_list@_K_J@?$positional_parameter_base@DV?$stream_output_adapter@D@__crt_stdio_output@@@__crt_stdio_output@@IEAA_NAEA_J@Z 00000001800b2280 f i libucrtd:output.obj
 0002:000434b0       ??$extract_argument_from_va_list@_K_J@?$positional_parameter_base@DV?$string_output_adapter@D@__crt_stdio_output@@@__crt_stdio_output@@IEAA_NAEA_J@Z 00000001800b24b0 f i libucrtd:output.obj
 0002:000436e0       ??$extract_argument_from_va_list@_K_J@?$positional_parameter_base@_WV?$stream_output_adapter@_W@__crt_stdio_output@@@__crt_stdio_output@@IEAA_NAEA_J@Z 00000001800b26e0 f i libucrtd:output.obj
 0002:00043910       ??$extract_argument_from_va_list@_K_J@?$positional_parameter_base@_WV?$string_output_adapter@_W@__crt_stdio_output@@@__crt_stdio_output@@IEAA_NAEA_J@Z 00000001800b2910 f i libucrtd:output.obj
 0002:00043b40       ??$extract_argument_from_va_list@_K_J@?$standard_base@DV?$stream_output_adapter@D@__crt_stdio_output@@@__crt_stdio_output@@IEAA_NAEA_J@Z 00000001800b2b40 f i libucrtd:output.obj
 0002:00043b80       ??$extract_argument_from_va_list@_K_J@?$standard_base@DV?$string_output_adapter@D@__crt_stdio_output@@@__crt_stdio_output@@IEAA_NAEA_J@Z 00000001800b2b80 f i libucrtd:output.obj
 0002:00043bc0       ??$extract_argument_from_va_list@_K_J@?$standard_base@_WV?$stream_output_adapter@_W@__crt_stdio_output@@@__crt_stdio_output@@IEAA_NAEA_J@Z 00000001800b2bc0 f i libucrtd:output.obj
 0002:00043c00       ??$extract_argument_from_va_list@_K_J@?$standard_base@_WV?$string_output_adapter@_W@__crt_stdio_output@@@__crt_stdio_output@@IEAA_NAEA_J@Z 00000001800b2c00 f i libucrtd:output.obj
 0002:00043c40       ??$extract_argument_from_va_list@_W_W@?$positional_parameter_base@DV?$stream_output_adapter@D@__crt_stdio_output@@@__crt_stdio_output@@IEAA_NAEA_W@Z 00000001800b2c40 f i libucrtd:output.obj
 0002:00043e70       ??$extract_argument_from_va_list@_W_W@?$positional_parameter_base@DV?$string_output_adapter@D@__crt_stdio_output@@@__crt_stdio_output@@IEAA_NAEA_W@Z 00000001800b2e70 f i libucrtd:output.obj
 0002:000440a0       ??$extract_argument_from_va_list@_W_W@?$positional_parameter_base@_WV?$stream_output_adapter@_W@__crt_stdio_output@@@__crt_stdio_output@@IEAA_NAEA_W@Z 00000001800b30a0 f i libucrtd:output.obj
 0002:000442d0       ??$extract_argument_from_va_list@_W_W@?$positional_parameter_base@_WV?$string_output_adapter@_W@__crt_stdio_output@@@__crt_stdio_output@@IEAA_NAEA_W@Z 00000001800b32d0 f i libucrtd:output.obj
 0002:00044500       ??$extract_argument_from_va_list@_W_W@?$standard_base@DV?$stream_output_adapter@D@__crt_stdio_output@@@__crt_stdio_output@@IEAA_NAEA_W@Z 00000001800b3500 f i libucrtd:output.obj
 0002:00044540       ??$extract_argument_from_va_list@_W_W@?$standard_base@DV?$string_output_adapter@D@__crt_stdio_output@@@__crt_stdio_output@@IEAA_NAEA_W@Z 00000001800b3540 f i libucrtd:output.obj
 0002:00044580       ??$extract_argument_from_va_list@_W_W@?$standard_base@_WV?$stream_output_adapter@_W@__crt_stdio_output@@@__crt_stdio_output@@IEAA_NAEA_W@Z 00000001800b3580 f i libucrtd:output.obj
 0002:000445c0       ??$extract_argument_from_va_list@_W_W@?$standard_base@_WV?$string_output_adapter@_W@__crt_stdio_output@@@__crt_stdio_output@@IEAA_NAEA_W@Z 00000001800b35c0 f i libucrtd:output.obj
 0002:00044600       ??$get_parameter_type@D@?$positional_parameter_base@DV?$stream_output_adapter@D@__crt_stdio_output@@@__crt_stdio_output@@CA?AW4parameter_type@01@PEAD@Z 00000001800b3600 f i libucrtd:output.obj
 0002:00044610       ??$get_parameter_type@D@?$positional_parameter_base@DV?$string_output_adapter@D@__crt_stdio_output@@@__crt_stdio_output@@CA?AW4parameter_type@01@PEAD@Z 00000001800b3610 f i libucrtd:output.obj
 0002:00044620       ??$get_parameter_type@D@?$positional_parameter_base@_WV?$stream_output_adapter@_W@__crt_stdio_output@@@__crt_stdio_output@@CA?AW4parameter_type@01@PEAD@Z 00000001800b3620 f i libucrtd:output.obj
 0002:00044630       ??$get_parameter_type@D@?$positional_parameter_base@_WV?$string_output_adapter@_W@__crt_stdio_output@@@__crt_stdio_output@@CA?AW4parameter_type@01@PEAD@Z 00000001800b3630 f i libucrtd:output.obj
 0002:00044640       ??$get_parameter_type@Uansi_string@?1??type_case_Z@?$output_processor@DV?$stream_output_adapter@D@__crt_stdio_output@@V?$positional_parameter_base@DV?$stream_output_adapter@D@__crt_stdio_output@@@2@@__crt_stdio_output@@AEAA_NXZ@@?$positional_parameter_base@DV?$stream_output_adapter@D@__crt_stdio_output@@@__crt_stdio_output@@CA?AW4parameter_type@01@PEAUansi_string@?1??type_case_Z@?$output_processor@DV?$stream_output_adapter@D@__crt_stdio_output@@V?$positional_parameter_base@DV?$stream_output_adapter@D@__crt_stdio_output@@@2@@1@AEAA_NXZ@@Z 00000001800b3640 f i libucrtd:output.obj
 0002:00044650       ??$get_parameter_type@Uansi_string@?1??type_case_Z@?$output_processor@DV?$string_output_adapter@D@__crt_stdio_output@@V?$positional_parameter_base@DV?$string_output_adapter@D@__crt_stdio_output@@@2@@__crt_stdio_output@@AEAA_NXZ@@?$positional_parameter_base@DV?$string_output_adapter@D@__crt_stdio_output@@@__crt_stdio_output@@CA?AW4parameter_type@01@PEAUansi_string@?1??type_case_Z@?$output_processor@DV?$string_output_adapter@D@__crt_stdio_output@@V?$positional_parameter_base@DV?$string_output_adapter@D@__crt_stdio_output@@@2@@1@AEAA_NXZ@@Z 00000001800b3650 f i libucrtd:output.obj
 0002:00044660       ??$get_parameter_type@Uansi_string@?1??type_case_Z@?$output_processor@_WV?$stream_output_adapter@_W@__crt_stdio_output@@V?$positional_parameter_base@_WV?$stream_output_adapter@_W@__crt_stdio_output@@@2@@__crt_stdio_output@@AEAA_NXZ@@?$positional_parameter_base@_WV?$stream_output_adapter@_W@__crt_stdio_output@@@__crt_stdio_output@@CA?AW4parameter_type@01@PEAUansi_string@?1??type_case_Z@?$output_processor@_WV?$stream_output_adapter@_W@__crt_stdio_output@@V?$positional_parameter_base@_WV?$stream_output_adapter@_W@__crt_stdio_output@@@2@@1@AEAA_NXZ@@Z 00000001800b3660 f i libucrtd:output.obj
 0002:00044670       ??$get_parameter_type@Uansi_string@?1??type_case_Z@?$output_processor@_WV?$string_output_adapter@_W@__crt_stdio_output@@V?$positional_parameter_base@_WV?$string_output_adapter@_W@__crt_stdio_output@@@2@@__crt_stdio_output@@AEAA_NXZ@@?$positional_parameter_base@_WV?$string_output_adapter@_W@__crt_stdio_output@@@__crt_stdio_output@@CA?AW4parameter_type@01@PEAUansi_string@?1??type_case_Z@?$output_processor@_WV?$string_output_adapter@_W@__crt_stdio_output@@V?$positional_parameter_base@_WV?$string_output_adapter@_W@__crt_stdio_output@@@2@@1@AEAA_NXZ@@Z 00000001800b3670 f i libucrtd:output.obj
 0002:00044680       ??$get_parameter_type@X@?$positional_parameter_base@DV?$stream_output_adapter@D@__crt_stdio_output@@@__crt_stdio_output@@CA?AW4parameter_type@01@PEAX@Z 00000001800b3680 f i libucrtd:output.obj
 0002:00044690       ??$get_parameter_type@X@?$positional_parameter_base@DV?$string_output_adapter@D@__crt_stdio_output@@@__crt_stdio_output@@CA?AW4parameter_type@01@PEAX@Z 00000001800b3690 f i libucrtd:output.obj
 0002:000446a0       ??$get_parameter_type@X@?$positional_parameter_base@_WV?$stream_output_adapter@_W@__crt_stdio_output@@@__crt_stdio_output@@CA?AW4parameter_type@01@PEAX@Z 00000001800b36a0 f i libucrtd:output.obj
 0002:000446b0       ??$get_parameter_type@X@?$positional_parameter_base@_WV?$string_output_adapter@_W@__crt_stdio_output@@@__crt_stdio_output@@CA?AW4parameter_type@01@PEAX@Z 00000001800b36b0 f i libucrtd:output.obj
 0002:000446c0       ??$is_character_specifier@D@?$positional_parameter_base@DV?$stream_output_adapter@D@__crt_stdio_output@@@__crt_stdio_output@@CA_ND@Z 00000001800b36c0 f i libucrtd:output.obj
 0002:00044710       ??$is_character_specifier@D@?$positional_parameter_base@DV?$string_output_adapter@D@__crt_stdio_output@@@__crt_stdio_output@@CA_ND@Z 00000001800b3710 f i libucrtd:output.obj
 0002:00044760       ??$is_character_specifier@_W@?$positional_parameter_base@_WV?$stream_output_adapter@_W@__crt_stdio_output@@@__crt_stdio_output@@CA_N_W@Z 00000001800b3760 f i libucrtd:output.obj
 0002:000447b0       ??$is_character_specifier@_W@?$positional_parameter_base@_WV?$string_output_adapter@_W@__crt_stdio_output@@@__crt_stdio_output@@CA_N_W@Z 00000001800b37b0 f i libucrtd:output.obj
 0002:00044800       ??$is_integral_specifier@D@?$positional_parameter_base@DV?$stream_output_adapter@D@__crt_stdio_output@@@__crt_stdio_output@@CA_ND@Z 00000001800b3800 f i libucrtd:output.obj
 0002:00044880       ??$is_integral_specifier@D@?$positional_parameter_base@DV?$string_output_adapter@D@__crt_stdio_output@@@__crt_stdio_output@@CA_ND@Z 00000001800b3880 f i libucrtd:output.obj
 0002:00044900       ??$is_integral_specifier@_W@?$positional_parameter_base@_WV?$stream_output_adapter@_W@__crt_stdio_output@@@__crt_stdio_output@@CA_N_W@Z 00000001800b3900 f i libucrtd:output.obj
 0002:00044990       ??$is_integral_specifier@_W@?$positional_parameter_base@_WV?$string_output_adapter@_W@__crt_stdio_output@@@__crt_stdio_output@@CA_N_W@Z 00000001800b3990 f i libucrtd:output.obj
 0002:00044a20       ??$is_overflow_condition@K@__crt_strtox@@YA_NIK@Z 00000001800b3a20 f i libucrtd:output.obj
 0002:00044aa0       ??$is_pointer_specifier@D@?$positional_parameter_base@DV?$stream_output_adapter@D@__crt_stdio_output@@@__crt_stdio_output@@CA_ND@Z 00000001800b3aa0 f i libucrtd:output.obj
 0002:00044ae0       ??$is_pointer_specifier@D@?$positional_parameter_base@DV?$string_output_adapter@D@__crt_stdio_output@@@__crt_stdio_output@@CA_ND@Z 00000001800b3ae0 f i libucrtd:output.obj
 0002:00044b20       ??$is_pointer_specifier@_W@?$positional_parameter_base@_WV?$stream_output_adapter@_W@__crt_stdio_output@@@__crt_stdio_output@@CA_N_W@Z 00000001800b3b20 f i libucrtd:output.obj
 0002:00044b60       ??$is_pointer_specifier@_W@?$positional_parameter_base@_WV?$string_output_adapter@_W@__crt_stdio_output@@@__crt_stdio_output@@CA_N_W@Z 00000001800b3b60 f i libucrtd:output.obj
 0002:00044ba0       ??$is_string_specifier@D@?$positional_parameter_base@DV?$stream_output_adapter@D@__crt_stdio_output@@@__crt_stdio_output@@CA_ND@Z 00000001800b3ba0 f i libucrtd:output.obj
 0002:00044bf0       ??$is_string_specifier@D@?$positional_parameter_base@DV?$string_output_adapter@D@__crt_stdio_output@@@__crt_stdio_output@@CA_ND@Z 00000001800b3bf0 f i libucrtd:output.obj
 0002:00044c40       ??$is_string_specifier@_W@?$positional_parameter_base@_WV?$stream_output_adapter@_W@__crt_stdio_output@@@__crt_stdio_output@@CA_N_W@Z 00000001800b3c40 f i libucrtd:output.obj
 0002:00044c90       ??$is_string_specifier@_W@?$positional_parameter_base@_WV?$string_output_adapter@_W@__crt_stdio_output@@@__crt_stdio_output@@CA_N_W@Z 00000001800b3c90 f i libucrtd:output.obj
 0002:00044ce0       ??$is_wide_character_specifier@D@__crt_stdio_output@@YA_N_KDW4length_modifier@0@@Z 00000001800b3ce0 f i libucrtd:output.obj
 0002:00044da0       ??$is_wide_character_specifier@_W@__crt_stdio_output@@YA_N_K_WW4length_modifier@0@@Z 00000001800b3da0 f i libucrtd:output.obj
 0002:00044ea0       ??$make_c_string_character_source@DPEAPEAD@__crt_strtox@@YA?AV?$c_string_character_source@D@0@QEBDQEAPEAD@Z 00000001800b3ea0 f i libucrtd:output.obj
 0002:00044ee0       ??$make_c_string_character_source@_WPEAPEA_W@__crt_strtox@@YA?AV?$c_string_character_source@_W@0@QEB_WQEAPEA_W@Z 00000001800b3ee0 f i libucrtd:output.obj
 0002:00044f20       ??$parse_integer@KV?$c_string_character_source@D@__crt_strtox@@$0A@@__crt_strtox@@YAKAEAV__crt_cached_ptd_host@@V?$c_string_character_source@D@0@H_N@Z 00000001800b3f20 f i libucrtd:output.obj
 0002:000454c0       ??$parse_integer@KV?$c_string_character_source@_W@__crt_strtox@@$0A@@__crt_strtox@@YAKAEAV__crt_cached_ptd_host@@V?$c_string_character_source@_W@0@H_N@Z 00000001800b44c0 f i libucrtd:output.obj
 0002:00045a60       ??$peek_va_arg@C@__crt_stdio_output@@YACPEAD@Z 00000001800b4a60 f i libucrtd:output.obj
 0002:00045ad0       ??$peek_va_arg@E@__crt_stdio_output@@YAEPEAD@Z 00000001800b4ad0 f i libucrtd:output.obj
 0002:00045b40       ??$peek_va_arg@F@__crt_stdio_output@@YAFPEAD@Z 00000001800b4b40 f i libucrtd:output.obj
 0002:00045bb0       ??$peek_va_arg@G@__crt_stdio_output@@YAGPEAD@Z 00000001800b4bb0 f i libucrtd:output.obj
 0002:00045c20       ??$peek_va_arg@H@__crt_stdio_output@@YAHPEAD@Z 00000001800b4c20 f i libucrtd:output.obj
 0002:00045c90       ??$peek_va_arg@I@__crt_stdio_output@@YAIPEAD@Z 00000001800b4c90 f i libucrtd:output.obj
 0002:00045d00       ??$peek_va_arg@PEAD@__crt_stdio_output@@YAPEADPEAD@Z 00000001800b4d00 f i libucrtd:output.obj
 0002:00045d70       ??$peek_va_arg@PEAUansi_string@?1??type_case_Z@?$output_processor@DV?$stream_output_adapter@D@__crt_stdio_output@@V?$positional_parameter_base@DV?$stream_output_adapter@D@__crt_stdio_output@@@2@@__crt_stdio_output@@AEAA_NXZ@@__crt_stdio_output@@YAPEAUansi_string@?1??type_case_Z@?$output_processor@DV?$stream_output_adapter@D@__crt_stdio_output@@V?$positional_parameter_base@DV?$stream_output_adapter@D@__crt_stdio_output@@@2@@0@AEAA_NXZ@PEAD@Z 00000001800b4d70 f i libucrtd:output.obj
 0002:00045de0       ??$peek_va_arg@PEAUansi_string@?1??type_case_Z@?$output_processor@DV?$string_output_adapter@D@__crt_stdio_output@@V?$positional_parameter_base@DV?$string_output_adapter@D@__crt_stdio_output@@@2@@__crt_stdio_output@@AEAA_NXZ@@__crt_stdio_output@@YAPEAUansi_string@?1??type_case_Z@?$output_processor@DV?$string_output_adapter@D@__crt_stdio_output@@V?$positional_parameter_base@DV?$string_output_adapter@D@__crt_stdio_output@@@2@@0@AEAA_NXZ@PEAD@Z 00000001800b4de0 f i libucrtd:output.obj
 0002:00045e50       ??$peek_va_arg@PEAUansi_string@?1??type_case_Z@?$output_processor@_WV?$stream_output_adapter@_W@__crt_stdio_output@@V?$positional_parameter_base@_WV?$stream_output_adapter@_W@__crt_stdio_output@@@2@@__crt_stdio_output@@AEAA_NXZ@@__crt_stdio_output@@YAPEAUansi_string@?1??type_case_Z@?$output_processor@_WV?$stream_output_adapter@_W@__crt_stdio_output@@V?$positional_parameter_base@_WV?$stream_output_adapter@_W@__crt_stdio_output@@@2@@0@AEAA_NXZ@PEAD@Z 00000001800b4e50 f i libucrtd:output.obj
 0002:00045ec0       ??$peek_va_arg@PEAUansi_string@?1??type_case_Z@?$output_processor@_WV?$string_output_adapter@_W@__crt_stdio_output@@V?$positional_parameter_base@_WV?$string_output_adapter@_W@__crt_stdio_output@@@2@@__crt_stdio_output@@AEAA_NXZ@@__crt_stdio_output@@YAPEAUansi_string@?1??type_case_Z@?$output_processor@_WV?$string_output_adapter@_W@__crt_stdio_output@@V?$positional_parameter_base@_WV?$string_output_adapter@_W@__crt_stdio_output@@@2@@0@AEAA_NXZ@PEAD@Z 00000001800b4ec0 f i libucrtd:output.obj
 0002:00045f30       ??$peek_va_arg@PEAX@__crt_stdio_output@@YAPEAXPEAD@Z 00000001800b4f30 f i libucrtd:output.obj
 0002:00045fa0       ??$peek_va_arg@U_CRT_DOUBLE@@@__crt_stdio_output@@YA?AU_CRT_DOUBLE@@PEAD@Z 00000001800b4fa0 f i libucrtd:output.obj
 0002:00046010       ??$peek_va_arg@_J@__crt_stdio_output@@YA_JPEAD@Z 00000001800b5010 f i libucrtd:output.obj
 0002:00046080       ??$peek_va_arg@_K@__crt_stdio_output@@YA_KPEAD@Z 00000001800b5080 f i libucrtd:output.obj
 0002:000460f0       ??$peek_va_arg@_W@__crt_stdio_output@@YA_WPEAD@Z 00000001800b50f0 f i libucrtd:output.obj
 0002:00046160       ??$puttc_nolock_internal@AEBDPEAU_iobuf@@AEAV__crt_cached_ptd_host@@@?$__crt_char_traits@D@@SAHAEBD$$QEAPEAU_iobuf@@AEAV__crt_cached_ptd_host@@@Z 00000001800b5160 f i libucrtd:output.obj
 0002:000461b0       ??$puttc_nolock_internal@AEB_WPEAU_iobuf@@AEAV__crt_cached_ptd_host@@@?$__crt_char_traits@_W@@SAGAEB_W$$QEAPEAU_iobuf@@AEAV__crt_cached_ptd_host@@@Z 00000001800b51b0 f i libucrtd:output.obj
 0002:000461f0       ??$read_va_arg@C@__crt_stdio_output@@YACAEAPEAD@Z 00000001800b51f0 f i libucrtd:output.obj
 0002:00046270       ??$read_va_arg@E@__crt_stdio_output@@YAEAEAPEAD@Z 00000001800b5270 f i libucrtd:output.obj
 0002:000462f0       ??$read_va_arg@F@__crt_stdio_output@@YAFAEAPEAD@Z 00000001800b52f0 f i libucrtd:output.obj
 0002:00046370       ??$read_va_arg@G@__crt_stdio_output@@YAGAEAPEAD@Z 00000001800b5370 f i libucrtd:output.obj
 0002:000463f0       ??$read_va_arg@H@__crt_stdio_output@@YAHAEAPEAD@Z 00000001800b53f0 f i libucrtd:output.obj
 0002:00046470       ??$read_va_arg@I@__crt_stdio_output@@YAIAEAPEAD@Z 00000001800b5470 f i libucrtd:output.obj
 0002:000464f0       ??$read_va_arg@PEAD@__crt_stdio_output@@YAPEADAEAPEAD@Z 00000001800b54f0 f i libucrtd:output.obj
 0002:00046570       ??$read_va_arg@PEAUansi_string@?1??type_case_Z@?$output_processor@DV?$stream_output_adapter@D@__crt_stdio_output@@V?$format_validation_base@DV?$stream_output_adapter@D@__crt_stdio_output@@@2@@__crt_stdio_output@@AEAA_NXZ@@__crt_stdio_output@@YAPEAUansi_string@?1??type_case_Z@?$output_processor@DV?$stream_output_adapter@D@__crt_stdio_output@@V?$format_validation_base@DV?$stream_output_adapter@D@__crt_stdio_output@@@2@@0@AEAA_NXZ@AEAPEAD@Z 00000001800b5570 f i libucrtd:output.obj
 0002:000465f0       ??$read_va_arg@PEAUansi_string@?1??type_case_Z@?$output_processor@DV?$stream_output_adapter@D@__crt_stdio_output@@V?$positional_parameter_base@DV?$stream_output_adapter@D@__crt_stdio_output@@@2@@__crt_stdio_output@@AEAA_NXZ@@__crt_stdio_output@@YAPEAUansi_string@?1??type_case_Z@?$output_processor@DV?$stream_output_adapter@D@__crt_stdio_output@@V?$positional_parameter_base@DV?$stream_output_adapter@D@__crt_stdio_output@@@2@@0@AEAA_NXZ@AEAPEAD@Z 00000001800b55f0 f i libucrtd:output.obj
 0002:00046670       ??$read_va_arg@PEAUansi_string@?1??type_case_Z@?$output_processor@DV?$stream_output_adapter@D@__crt_stdio_output@@V?$standard_base@DV?$stream_output_adapter@D@__crt_stdio_output@@@2@@__crt_stdio_output@@AEAA_NXZ@@__crt_stdio_output@@YAPEAUansi_string@?1??type_case_Z@?$output_processor@DV?$stream_output_adapter@D@__crt_stdio_output@@V?$standard_base@DV?$stream_output_adapter@D@__crt_stdio_output@@@2@@0@AEAA_NXZ@AEAPEAD@Z 00000001800b5670 f i libucrtd:output.obj
 0002:000466f0       ??$read_va_arg@PEAUansi_string@?1??type_case_Z@?$output_processor@DV?$string_output_adapter@D@__crt_stdio_output@@V?$format_validation_base@DV?$string_output_adapter@D@__crt_stdio_output@@@2@@__crt_stdio_output@@AEAA_NXZ@@__crt_stdio_output@@YAPEAUansi_string@?1??type_case_Z@?$output_processor@DV?$string_output_adapter@D@__crt_stdio_output@@V?$format_validation_base@DV?$string_output_adapter@D@__crt_stdio_output@@@2@@0@AEAA_NXZ@AEAPEAD@Z 00000001800b56f0 f i libucrtd:output.obj
 0002:00046770       ??$read_va_arg@PEAUansi_string@?1??type_case_Z@?$output_processor@DV?$string_output_adapter@D@__crt_stdio_output@@V?$positional_parameter_base@DV?$string_output_adapter@D@__crt_stdio_output@@@2@@__crt_stdio_output@@AEAA_NXZ@@__crt_stdio_output@@YAPEAUansi_string@?1??type_case_Z@?$output_processor@DV?$string_output_adapter@D@__crt_stdio_output@@V?$positional_parameter_base@DV?$string_output_adapter@D@__crt_stdio_output@@@2@@0@AEAA_NXZ@AEAPEAD@Z 00000001800b5770 f i libucrtd:output.obj
 0002:000467f0       ??$read_va_arg@PEAUansi_string@?1??type_case_Z@?$output_processor@DV?$string_output_adapter@D@__crt_stdio_output@@V?$standard_base@DV?$string_output_adapter@D@__crt_stdio_output@@@2@@__crt_stdio_output@@AEAA_NXZ@@__crt_stdio_output@@YAPEAUansi_string@?1??type_case_Z@?$output_processor@DV?$string_output_adapter@D@__crt_stdio_output@@V?$standard_base@DV?$string_output_adapter@D@__crt_stdio_output@@@2@@0@AEAA_NXZ@AEAPEAD@Z 00000001800b57f0 f i libucrtd:output.obj
 0002:00046870       ??$read_va_arg@PEAUansi_string@?1??type_case_Z@?$output_processor@_WV?$stream_output_adapter@_W@__crt_stdio_output@@V?$format_validation_base@_WV?$stream_output_adapter@_W@__crt_stdio_output@@@2@@__crt_stdio_output@@AEAA_NXZ@@__crt_stdio_output@@YAPEAUansi_string@?1??type_case_Z@?$output_processor@_WV?$stream_output_adapter@_W@__crt_stdio_output@@V?$format_validation_base@_WV?$stream_output_adapter@_W@__crt_stdio_output@@@2@@0@AEAA_NXZ@AEAPEAD@Z 00000001800b5870 f i libucrtd:output.obj
 0002:000468f0       ??$read_va_arg@PEAUansi_string@?1??type_case_Z@?$output_processor@_WV?$stream_output_adapter@_W@__crt_stdio_output@@V?$positional_parameter_base@_WV?$stream_output_adapter@_W@__crt_stdio_output@@@2@@__crt_stdio_output@@AEAA_NXZ@@__crt_stdio_output@@YAPEAUansi_string@?1??type_case_Z@?$output_processor@_WV?$stream_output_adapter@_W@__crt_stdio_output@@V?$positional_parameter_base@_WV?$stream_output_adapter@_W@__crt_stdio_output@@@2@@0@AEAA_NXZ@AEAPEAD@Z 00000001800b58f0 f i libucrtd:output.obj
 0002:00046970       ??$read_va_arg@PEAUansi_string@?1??type_case_Z@?$output_processor@_WV?$stream_output_adapter@_W@__crt_stdio_output@@V?$standard_base@_WV?$stream_output_adapter@_W@__crt_stdio_output@@@2@@__crt_stdio_output@@AEAA_NXZ@@__crt_stdio_output@@YAPEAUansi_string@?1??type_case_Z@?$output_processor@_WV?$stream_output_adapter@_W@__crt_stdio_output@@V?$standard_base@_WV?$stream_output_adapter@_W@__crt_stdio_output@@@2@@0@AEAA_NXZ@AEAPEAD@Z 00000001800b5970 f i libucrtd:output.obj
 0002:000469f0       ??$read_va_arg@PEAUansi_string@?1??type_case_Z@?$output_processor@_WV?$string_output_adapter@_W@__crt_stdio_output@@V?$format_validation_base@_WV?$string_output_adapter@_W@__crt_stdio_output@@@2@@__crt_stdio_output@@AEAA_NXZ@@__crt_stdio_output@@YAPEAUansi_string@?1??type_case_Z@?$output_processor@_WV?$string_output_adapter@_W@__crt_stdio_output@@V?$format_validation_base@_WV?$string_output_adapter@_W@__crt_stdio_output@@@2@@0@AEAA_NXZ@AEAPEAD@Z 00000001800b59f0 f i libucrtd:output.obj
 0002:00046a70       ??$read_va_arg@PEAUansi_string@?1??type_case_Z@?$output_processor@_WV?$string_output_adapter@_W@__crt_stdio_output@@V?$positional_parameter_base@_WV?$string_output_adapter@_W@__crt_stdio_output@@@2@@__crt_stdio_output@@AEAA_NXZ@@__crt_stdio_output@@YAPEAUansi_string@?1??type_case_Z@?$output_processor@_WV?$string_output_adapter@_W@__crt_stdio_output@@V?$positional_parameter_base@_WV?$string_output_adapter@_W@__crt_stdio_output@@@2@@0@AEAA_NXZ@AEAPEAD@Z 00000001800b5a70 f i libucrtd:output.obj
 0002:00046af0       ??$read_va_arg@PEAUansi_string@?1??type_case_Z@?$output_processor@_WV?$string_output_adapter@_W@__crt_stdio_output@@V?$standard_base@_WV?$string_output_adapter@_W@__crt_stdio_output@@@2@@__crt_stdio_output@@AEAA_NXZ@@__crt_stdio_output@@YAPEAUansi_string@?1??type_case_Z@?$output_processor@_WV?$string_output_adapter@_W@__crt_stdio_output@@V?$standard_base@_WV?$string_output_adapter@_W@__crt_stdio_output@@@2@@0@AEAA_NXZ@AEAPEAD@Z 00000001800b5af0 f i libucrtd:output.obj
 0002:00046b70       ??$read_va_arg@PEAX@__crt_stdio_output@@YAPEAXAEAPEAD@Z 00000001800b5b70 f i libucrtd:output.obj
 0002:00046bf0       ??$read_va_arg@U_CRT_DOUBLE@@@__crt_stdio_output@@YA?AU_CRT_DOUBLE@@AEAPEAD@Z 00000001800b5bf0 f i libucrtd:output.obj
 0002:00046c70       ??$read_va_arg@_J@__crt_stdio_output@@YA_JAEAPEAD@Z 00000001800b5c70 f i libucrtd:output.obj
 0002:00046cf0       ??$read_va_arg@_K@__crt_stdio_output@@YA_KAEAPEAD@Z 00000001800b5cf0 f i libucrtd:output.obj
 0002:00046d70       ??$read_va_arg@_W@__crt_stdio_output@@YA_WAEAPEAD@Z 00000001800b5d70 f i libucrtd:output.obj
 0002:00046df0       ??$scratch_count@D@formatting_buffer@__crt_stdio_output@@QEBA_KXZ 00000001800b5df0 f i libucrtd:output.obj
 0002:00046e10       ??$scratch_data@D@formatting_buffer@__crt_stdio_output@@QEAAPEADXZ 00000001800b5e10 f i libucrtd:output.obj
 0002:00046ea0       ??$type_case_integer@$07@?$output_processor@DV?$stream_output_adapter@D@__crt_stdio_output@@V?$format_validation_base@DV?$stream_output_adapter@D@__crt_stdio_output@@@2@@__crt_stdio_output@@AEAA_N_N@Z 00000001800b5ea0 f i libucrtd:output.obj
 0002:00047430       ??$type_case_integer@$07@?$output_processor@DV?$stream_output_adapter@D@__crt_stdio_output@@V?$positional_parameter_base@DV?$stream_output_adapter@D@__crt_stdio_output@@@2@@__crt_stdio_output@@AEAA_N_N@Z 00000001800b6430 f i libucrtd:output.obj
 0002:000479c0       ??$type_case_integer@$07@?$output_processor@DV?$stream_output_adapter@D@__crt_stdio_output@@V?$standard_base@DV?$stream_output_adapter@D@__crt_stdio_output@@@2@@__crt_stdio_output@@AEAA_N_N@Z 00000001800b69c0 f i libucrtd:output.obj
 0002:00047f50       ??$type_case_integer@$07@?$output_processor@DV?$string_output_adapter@D@__crt_stdio_output@@V?$format_validation_base@DV?$string_output_adapter@D@__crt_stdio_output@@@2@@__crt_stdio_output@@AEAA_N_N@Z 00000001800b6f50 f i libucrtd:output.obj
 0002:000484e0       ??$type_case_integer@$07@?$output_processor@DV?$string_output_adapter@D@__crt_stdio_output@@V?$positional_parameter_base@DV?$string_output_adapter@D@__crt_stdio_output@@@2@@__crt_stdio_output@@AEAA_N_N@Z 00000001800b74e0 f i libucrtd:output.obj
 0002:00048a70       ??$type_case_integer@$07@?$output_processor@DV?$string_output_adapter@D@__crt_stdio_output@@V?$standard_base@DV?$string_output_adapter@D@__crt_stdio_output@@@2@@__crt_stdio_output@@AEAA_N_N@Z 00000001800b7a70 f i libucrtd:output.obj
 0002:00049000       ??$type_case_integer@$07@?$output_processor@_WV?$stream_output_adapter@_W@__crt_stdio_output@@V?$format_validation_base@_WV?$stream_output_adapter@_W@__crt_stdio_output@@@2@@__crt_stdio_output@@AEAA_N_N@Z 00000001800b8000 f i libucrtd:output.obj
 0002:000495a0       ??$type_case_integer@$07@?$output_processor@_WV?$stream_output_adapter@_W@__crt_stdio_output@@V?$positional_parameter_base@_WV?$stream_output_adapter@_W@__crt_stdio_output@@@2@@__crt_stdio_output@@AEAA_N_N@Z 00000001800b85a0 f i libucrtd:output.obj
 0002:00049b40       ??$type_case_integer@$07@?$output_processor@_WV?$stream_output_adapter@_W@__crt_stdio_output@@V?$standard_base@_WV?$stream_output_adapter@_W@__crt_stdio_output@@@2@@__crt_stdio_output@@AEAA_N_N@Z 00000001800b8b40 f i libucrtd:output.obj
 0002:0004a0e0       ??$type_case_integer@$07@?$output_processor@_WV?$string_output_adapter@_W@__crt_stdio_output@@V?$format_validation_base@_WV?$string_output_adapter@_W@__crt_stdio_output@@@2@@__crt_stdio_output@@AEAA_N_N@Z 00000001800b90e0 f i libucrtd:output.obj
 0002:0004a680       ??$type_case_integer@$07@?$output_processor@_WV?$string_output_adapter@_W@__crt_stdio_output@@V?$positional_parameter_base@_WV?$string_output_adapter@_W@__crt_stdio_output@@@2@@__crt_stdio_output@@AEAA_N_N@Z 00000001800b9680 f i libucrtd:output.obj
 0002:0004ac20       ??$type_case_integer@$07@?$output_processor@_WV?$string_output_adapter@_W@__crt_stdio_output@@V?$standard_base@_WV?$string_output_adapter@_W@__crt_stdio_output@@@2@@__crt_stdio_output@@AEAA_N_N@Z 00000001800b9c20 f i libucrtd:output.obj
 0002:0004b1c0       ??$type_case_integer@$09@?$output_processor@DV?$stream_output_adapter@D@__crt_stdio_output@@V?$format_validation_base@DV?$stream_output_adapter@D@__crt_stdio_output@@@2@@__crt_stdio_output@@AEAA_N_N@Z 00000001800ba1c0 f i libucrtd:output.obj
 0002:0004b750       ??$type_case_integer@$09@?$output_processor@DV?$stream_output_adapter@D@__crt_stdio_output@@V?$positional_parameter_base@DV?$stream_output_adapter@D@__crt_stdio_output@@@2@@__crt_stdio_output@@AEAA_N_N@Z 00000001800ba750 f i libucrtd:output.obj
 0002:0004bce0       ??$type_case_integer@$09@?$output_processor@DV?$stream_output_adapter@D@__crt_stdio_output@@V?$standard_base@DV?$stream_output_adapter@D@__crt_stdio_output@@@2@@__crt_stdio_output@@AEAA_N_N@Z 00000001800bace0 f i libucrtd:output.obj
 0002:0004c270       ??$type_case_integer@$09@?$output_processor@DV?$string_output_adapter@D@__crt_stdio_output@@V?$format_validation_base@DV?$string_output_adapter@D@__crt_stdio_output@@@2@@__crt_stdio_output@@AEAA_N_N@Z 00000001800bb270 f i libucrtd:output.obj
 0002:0004c800       ??$type_case_integer@$09@?$output_processor@DV?$string_output_adapter@D@__crt_stdio_output@@V?$positional_parameter_base@DV?$string_output_adapter@D@__crt_stdio_output@@@2@@__crt_stdio_output@@AEAA_N_N@Z 00000001800bb800 f i libucrtd:output.obj
 0002:0004cd90       ??$type_case_integer@$09@?$output_processor@DV?$string_output_adapter@D@__crt_stdio_output@@V?$standard_base@DV?$string_output_adapter@D@__crt_stdio_output@@@2@@__crt_stdio_output@@AEAA_N_N@Z 00000001800bbd90 f i libucrtd:output.obj
 0002:0004d320       ??$type_case_integer@$09@?$output_processor@_WV?$stream_output_adapter@_W@__crt_stdio_output@@V?$format_validation_base@_WV?$stream_output_adapter@_W@__crt_stdio_output@@@2@@__crt_stdio_output@@AEAA_N_N@Z 00000001800bc320 f i libucrtd:output.obj
 0002:0004d8c0       ??$type_case_integer@$09@?$output_processor@_WV?$stream_output_adapter@_W@__crt_stdio_output@@V?$positional_parameter_base@_WV?$stream_output_adapter@_W@__crt_stdio_output@@@2@@__crt_stdio_output@@AEAA_N_N@Z 00000001800bc8c0 f i libucrtd:output.obj
 0002:0004de60       ??$type_case_integer@$09@?$output_processor@_WV?$stream_output_adapter@_W@__crt_stdio_output@@V?$standard_base@_WV?$stream_output_adapter@_W@__crt_stdio_output@@@2@@__crt_stdio_output@@AEAA_N_N@Z 00000001800bce60 f i libucrtd:output.obj
 0002:0004e400       ??$type_case_integer@$09@?$output_processor@_WV?$string_output_adapter@_W@__crt_stdio_output@@V?$format_validation_base@_WV?$string_output_adapter@_W@__crt_stdio_output@@@2@@__crt_stdio_output@@AEAA_N_N@Z 00000001800bd400 f i libucrtd:output.obj
 0002:0004e9a0       ??$type_case_integer@$09@?$output_processor@_WV?$string_output_adapter@_W@__crt_stdio_output@@V?$positional_parameter_base@_WV?$string_output_adapter@_W@__crt_stdio_output@@@2@@__crt_stdio_output@@AEAA_N_N@Z 00000001800bd9a0 f i libucrtd:output.obj
 0002:0004ef40       ??$type_case_integer@$09@?$output_processor@_WV?$string_output_adapter@_W@__crt_stdio_output@@V?$standard_base@_WV?$string_output_adapter@_W@__crt_stdio_output@@@2@@__crt_stdio_output@@AEAA_N_N@Z 00000001800bdf40 f i libucrtd:output.obj
 0002:0004f4e0       ??$type_case_integer@$0BA@@?$output_processor@DV?$stream_output_adapter@D@__crt_stdio_output@@V?$format_validation_base@DV?$stream_output_adapter@D@__crt_stdio_output@@@2@@__crt_stdio_output@@AEAA_N_N@Z 00000001800be4e0 f i libucrtd:output.obj
 0002:0004fa70       ??$type_case_integer@$0BA@@?$output_processor@DV?$stream_output_adapter@D@__crt_stdio_output@@V?$positional_parameter_base@DV?$stream_output_adapter@D@__crt_stdio_output@@@2@@__crt_stdio_output@@AEAA_N_N@Z 00000001800bea70 f i libucrtd:output.obj
 0002:00050000       ??$type_case_integer@$0BA@@?$output_processor@DV?$stream_output_adapter@D@__crt_stdio_output@@V?$standard_base@DV?$stream_output_adapter@D@__crt_stdio_output@@@2@@__crt_stdio_output@@AEAA_N_N@Z 00000001800bf000 f i libucrtd:output.obj
 0002:00050590       ??$type_case_integer@$0BA@@?$output_processor@DV?$string_output_adapter@D@__crt_stdio_output@@V?$format_validation_base@DV?$string_output_adapter@D@__crt_stdio_output@@@2@@__crt_stdio_output@@AEAA_N_N@Z 00000001800bf590 f i libucrtd:output.obj
 0002:00050b20       ??$type_case_integer@$0BA@@?$output_processor@DV?$string_output_adapter@D@__crt_stdio_output@@V?$positional_parameter_base@DV?$string_output_adapter@D@__crt_stdio_output@@@2@@__crt_stdio_output@@AEAA_N_N@Z 00000001800bfb20 f i libucrtd:output.obj
 0002:000510b0       ??$type_case_integer@$0BA@@?$output_processor@DV?$string_output_adapter@D@__crt_stdio_output@@V?$standard_base@DV?$string_output_adapter@D@__crt_stdio_output@@@2@@__crt_stdio_output@@AEAA_N_N@Z 00000001800c00b0 f i libucrtd:output.obj
 0002:00051640       ??$type_case_integer@$0BA@@?$output_processor@_WV?$stream_output_adapter@_W@__crt_stdio_output@@V?$format_validation_base@_WV?$stream_output_adapter@_W@__crt_stdio_output@@@2@@__crt_stdio_output@@AEAA_N_N@Z 00000001800c0640 f i libucrtd:output.obj
 0002:00051be0       ??$type_case_integer@$0BA@@?$output_processor@_WV?$stream_output_adapter@_W@__crt_stdio_output@@V?$positional_parameter_base@_WV?$stream_output_adapter@_W@__crt_stdio_output@@@2@@__crt_stdio_output@@AEAA_N_N@Z 00000001800c0be0 f i libucrtd:output.obj
 0002:00052180       ??$type_case_integer@$0BA@@?$output_processor@_WV?$stream_output_adapter@_W@__crt_stdio_output@@V?$standard_base@_WV?$stream_output_adapter@_W@__crt_stdio_output@@@2@@__crt_stdio_output@@AEAA_N_N@Z 00000001800c1180 f i libucrtd:output.obj
 0002:00052720       ??$type_case_integer@$0BA@@?$output_processor@_WV?$string_output_adapter@_W@__crt_stdio_output@@V?$format_validation_base@_WV?$string_output_adapter@_W@__crt_stdio_output@@@2@@__crt_stdio_output@@AEAA_N_N@Z 00000001800c1720 f i libucrtd:output.obj
 0002:00052cc0       ??$type_case_integer@$0BA@@?$output_processor@_WV?$string_output_adapter@_W@__crt_stdio_output@@V?$positional_parameter_base@_WV?$string_output_adapter@_W@__crt_stdio_output@@@2@@__crt_stdio_output@@AEAA_N_N@Z 00000001800c1cc0 f i libucrtd:output.obj
 0002:00053260       ??$type_case_integer@$0BA@@?$output_processor@_WV?$string_output_adapter@_W@__crt_stdio_output@@V?$standard_base@_WV?$string_output_adapter@_W@__crt_stdio_output@@@2@@__crt_stdio_output@@AEAA_N_N@Z 00000001800c2260 f i libucrtd:output.obj
 0002:00053800       ??$type_case_integer_parse_into_buffer@I$07@?$output_processor@DV?$stream_output_adapter@D@__crt_stdio_output@@V?$format_validation_base@DV?$stream_output_adapter@D@__crt_stdio_output@@@2@@__crt_stdio_output@@AEAAXI_N@Z 00000001800c2800 f i libucrtd:output.obj
 0002:00053970       ??$type_case_integer_parse_into_buffer@I$07@?$output_processor@DV?$stream_output_adapter@D@__crt_stdio_output@@V?$positional_parameter_base@DV?$stream_output_adapter@D@__crt_stdio_output@@@2@@__crt_stdio_output@@AEAAXI_N@Z 00000001800c2970 f i libucrtd:output.obj
 0002:00053ae0       ??$type_case_integer_parse_into_buffer@I$07@?$output_processor@DV?$stream_output_adapter@D@__crt_stdio_output@@V?$standard_base@DV?$stream_output_adapter@D@__crt_stdio_output@@@2@@__crt_stdio_output@@AEAAXI_N@Z 00000001800c2ae0 f i libucrtd:output.obj
 0002:00053c50       ??$type_case_integer_parse_into_buffer@I$07@?$output_processor@DV?$string_output_adapter@D@__crt_stdio_output@@V?$format_validation_base@DV?$string_output_adapter@D@__crt_stdio_output@@@2@@__crt_stdio_output@@AEAAXI_N@Z 00000001800c2c50 f i libucrtd:output.obj
 0002:00053dc0       ??$type_case_integer_parse_into_buffer@I$07@?$output_processor@DV?$string_output_adapter@D@__crt_stdio_output@@V?$positional_parameter_base@DV?$string_output_adapter@D@__crt_stdio_output@@@2@@__crt_stdio_output@@AEAAXI_N@Z 00000001800c2dc0 f i libucrtd:output.obj
 0002:00053f30       ??$type_case_integer_parse_into_buffer@I$07@?$output_processor@DV?$string_output_adapter@D@__crt_stdio_output@@V?$standard_base@DV?$string_output_adapter@D@__crt_stdio_output@@@2@@__crt_stdio_output@@AEAAXI_N@Z 00000001800c2f30 f i libucrtd:output.obj
 0002:000540a0       ??$type_case_integer_parse_into_buffer@I$07@?$output_processor@_WV?$stream_output_adapter@_W@__crt_stdio_output@@V?$format_validation_base@_WV?$stream_output_adapter@_W@__crt_stdio_output@@@2@@__crt_stdio_output@@AEAAXI_N@Z 00000001800c30a0 f i libucrtd:output.obj
 0002:00054230       ??$type_case_integer_parse_into_buffer@I$07@?$output_processor@_WV?$stream_output_adapter@_W@__crt_stdio_output@@V?$positional_parameter_base@_WV?$stream_output_adapter@_W@__crt_stdio_output@@@2@@__crt_stdio_output@@AEAAXI_N@Z 00000001800c3230 f i libucrtd:output.obj
 0002:000543c0       ??$type_case_integer_parse_into_buffer@I$07@?$output_processor@_WV?$stream_output_adapter@_W@__crt_stdio_output@@V?$standard_base@_WV?$stream_output_adapter@_W@__crt_stdio_output@@@2@@__crt_stdio_output@@AEAAXI_N@Z 00000001800c33c0 f i libucrtd:output.obj
 0002:00054550       ??$type_case_integer_parse_into_buffer@I$07@?$output_processor@_WV?$string_output_adapter@_W@__crt_stdio_output@@V?$format_validation_base@_WV?$string_output_adapter@_W@__crt_stdio_output@@@2@@__crt_stdio_output@@AEAAXI_N@Z 00000001800c3550 f i libucrtd:output.obj
 0002:000546e0       ??$type_case_integer_parse_into_buffer@I$07@?$output_processor@_WV?$string_output_adapter@_W@__crt_stdio_output@@V?$positional_parameter_base@_WV?$string_output_adapter@_W@__crt_stdio_output@@@2@@__crt_stdio_output@@AEAAXI_N@Z 00000001800c36e0 f i libucrtd:output.obj
 0002:00054870       ??$type_case_integer_parse_into_buffer@I$07@?$output_processor@_WV?$string_output_adapter@_W@__crt_stdio_output@@V?$standard_base@_WV?$string_output_adapter@_W@__crt_stdio_output@@@2@@__crt_stdio_output@@AEAAXI_N@Z 00000001800c3870 f i libucrtd:output.obj
 0002:00054a00       ??$type_case_integer_parse_into_buffer@I$09@?$output_processor@DV?$stream_output_adapter@D@__crt_stdio_output@@V?$format_validation_base@DV?$stream_output_adapter@D@__crt_stdio_output@@@2@@__crt_stdio_output@@AEAAXI_N@Z 00000001800c3a00 f i libucrtd:output.obj
 0002:00054b70       ??$type_case_integer_parse_into_buffer@I$09@?$output_processor@DV?$stream_output_adapter@D@__crt_stdio_output@@V?$positional_parameter_base@DV?$stream_output_adapter@D@__crt_stdio_output@@@2@@__crt_stdio_output@@AEAAXI_N@Z 00000001800c3b70 f i libucrtd:output.obj
 0002:00054ce0       ??$type_case_integer_parse_into_buffer@I$09@?$output_processor@DV?$stream_output_adapter@D@__crt_stdio_output@@V?$standard_base@DV?$stream_output_adapter@D@__crt_stdio_output@@@2@@__crt_stdio_output@@AEAAXI_N@Z 00000001800c3ce0 f i libucrtd:output.obj
 0002:00054e50       ??$type_case_integer_parse_into_buffer@I$09@?$output_processor@DV?$string_output_adapter@D@__crt_stdio_output@@V?$format_validation_base@DV?$string_output_adapter@D@__crt_stdio_output@@@2@@__crt_stdio_output@@AEAAXI_N@Z 00000001800c3e50 f i libucrtd:output.obj
 0002:00054fc0       ??$type_case_integer_parse_into_buffer@I$09@?$output_processor@DV?$string_output_adapter@D@__crt_stdio_output@@V?$positional_parameter_base@DV?$string_output_adapter@D@__crt_stdio_output@@@2@@__crt_stdio_output@@AEAAXI_N@Z 00000001800c3fc0 f i libucrtd:output.obj
 0002:00055130       ??$type_case_integer_parse_into_buffer@I$09@?$output_processor@DV?$string_output_adapter@D@__crt_stdio_output@@V?$standard_base@DV?$string_output_adapter@D@__crt_stdio_output@@@2@@__crt_stdio_output@@AEAAXI_N@Z 00000001800c4130 f i libucrtd:output.obj
 0002:000552a0       ??$type_case_integer_parse_into_buffer@I$09@?$output_processor@_WV?$stream_output_adapter@_W@__crt_stdio_output@@V?$format_validation_base@_WV?$stream_output_adapter@_W@__crt_stdio_output@@@2@@__crt_stdio_output@@AEAAXI_N@Z 00000001800c42a0 f i libucrtd:output.obj
 0002:00055430       ??$type_case_integer_parse_into_buffer@I$09@?$output_processor@_WV?$stream_output_adapter@_W@__crt_stdio_output@@V?$positional_parameter_base@_WV?$stream_output_adapter@_W@__crt_stdio_output@@@2@@__crt_stdio_output@@AEAAXI_N@Z 00000001800c4430 f i libucrtd:output.obj
 0002:000555c0       ??$type_case_integer_parse_into_buffer@I$09@?$output_processor@_WV?$stream_output_adapter@_W@__crt_stdio_output@@V?$standard_base@_WV?$stream_output_adapter@_W@__crt_stdio_output@@@2@@__crt_stdio_output@@AEAAXI_N@Z 00000001800c45c0 f i libucrtd:output.obj
 0002:00055750       ??$type_case_integer_parse_into_buffer@I$09@?$output_processor@_WV?$string_output_adapter@_W@__crt_stdio_output@@V?$format_validation_base@_WV?$string_output_adapter@_W@__crt_stdio_output@@@2@@__crt_stdio_output@@AEAAXI_N@Z 00000001800c4750 f i libucrtd:output.obj
 0002:000558e0       ??$type_case_integer_parse_into_buffer@I$09@?$output_processor@_WV?$string_output_adapter@_W@__crt_stdio_output@@V?$positional_parameter_base@_WV?$string_output_adapter@_W@__crt_stdio_output@@@2@@__crt_stdio_output@@AEAAXI_N@Z 00000001800c48e0 f i libucrtd:output.obj
 0002:00055a70       ??$type_case_integer_parse_into_buffer@I$09@?$output_processor@_WV?$string_output_adapter@_W@__crt_stdio_output@@V?$standard_base@_WV?$string_output_adapter@_W@__crt_stdio_output@@@2@@__crt_stdio_output@@AEAAXI_N@Z 00000001800c4a70 f i libucrtd:output.obj
 0002:00055c00       ??$type_case_integer_parse_into_buffer@I$0BA@@?$output_processor@DV?$stream_output_adapter@D@__crt_stdio_output@@V?$format_validation_base@DV?$stream_output_adapter@D@__crt_stdio_output@@@2@@__crt_stdio_output@@AEAAXI_N@Z 00000001800c4c00 f i libucrtd:output.obj
 0002:00055d70       ??$type_case_integer_parse_into_buffer@I$0BA@@?$output_processor@DV?$stream_output_adapter@D@__crt_stdio_output@@V?$positional_parameter_base@DV?$stream_output_adapter@D@__crt_stdio_output@@@2@@__crt_stdio_output@@AEAAXI_N@Z 00000001800c4d70 f i libucrtd:output.obj
 0002:00055ee0       ??$type_case_integer_parse_into_buffer@I$0BA@@?$output_processor@DV?$stream_output_adapter@D@__crt_stdio_output@@V?$standard_base@DV?$stream_output_adapter@D@__crt_stdio_output@@@2@@__crt_stdio_output@@AEAAXI_N@Z 00000001800c4ee0 f i libucrtd:output.obj
 0002:00056050       ??$type_case_integer_parse_into_buffer@I$0BA@@?$output_processor@DV?$string_output_adapter@D@__crt_stdio_output@@V?$format_validation_base@DV?$string_output_adapter@D@__crt_stdio_output@@@2@@__crt_stdio_output@@AEAAXI_N@Z 00000001800c5050 f i libucrtd:output.obj
 0002:000561c0       ??$type_case_integer_parse_into_buffer@I$0BA@@?$output_processor@DV?$string_output_adapter@D@__crt_stdio_output@@V?$positional_parameter_base@DV?$string_output_adapter@D@__crt_stdio_output@@@2@@__crt_stdio_output@@AEAAXI_N@Z 00000001800c51c0 f i libucrtd:output.obj
 0002:00056330       ??$type_case_integer_parse_into_buffer@I$0BA@@?$output_processor@DV?$string_output_adapter@D@__crt_stdio_output@@V?$standard_base@DV?$string_output_adapter@D@__crt_stdio_output@@@2@@__crt_stdio_output@@AEAAXI_N@Z 00000001800c5330 f i libucrtd:output.obj
 0002:000564a0       ??$type_case_integer_parse_into_buffer@I$0BA@@?$output_processor@_WV?$stream_output_adapter@_W@__crt_stdio_output@@V?$format_validation_base@_WV?$stream_output_adapter@_W@__crt_stdio_output@@@2@@__crt_stdio_output@@AEAAXI_N@Z 00000001800c54a0 f i libucrtd:output.obj
 0002:00056630       ??$type_case_integer_parse_into_buffer@I$0BA@@?$output_processor@_WV?$stream_output_adapter@_W@__crt_stdio_output@@V?$positional_parameter_base@_WV?$stream_output_adapter@_W@__crt_stdio_output@@@2@@__crt_stdio_output@@AEAAXI_N@Z 00000001800c5630 f i libucrtd:output.obj
 0002:000567c0       ??$type_case_integer_parse_into_buffer@I$0BA@@?$output_processor@_WV?$stream_output_adapter@_W@__crt_stdio_output@@V?$standard_base@_WV?$stream_output_adapter@_W@__crt_stdio_output@@@2@@__crt_stdio_output@@AEAAXI_N@Z 00000001800c57c0 f i libucrtd:output.obj
 0002:00056950       ??$type_case_integer_parse_into_buffer@I$0BA@@?$output_processor@_WV?$string_output_adapter@_W@__crt_stdio_output@@V?$format_validation_base@_WV?$string_output_adapter@_W@__crt_stdio_output@@@2@@__crt_stdio_output@@AEAAXI_N@Z 00000001800c5950 f i libucrtd:output.obj
 0002:00056ae0       ??$type_case_integer_parse_into_buffer@I$0BA@@?$output_processor@_WV?$string_output_adapter@_W@__crt_stdio_output@@V?$positional_parameter_base@_WV?$string_output_adapter@_W@__crt_stdio_output@@@2@@__crt_stdio_output@@AEAAXI_N@Z 00000001800c5ae0 f i libucrtd:output.obj
 0002:00056c70       ??$type_case_integer_parse_into_buffer@I$0BA@@?$output_processor@_WV?$string_output_adapter@_W@__crt_stdio_output@@V?$standard_base@_WV?$string_output_adapter@_W@__crt_stdio_output@@@2@@__crt_stdio_output@@AEAAXI_N@Z 00000001800c5c70 f i libucrtd:output.obj
 0002:00056e00       ??$type_case_integer_parse_into_buffer@_K$07@?$output_processor@DV?$stream_output_adapter@D@__crt_stdio_output@@V?$format_validation_base@DV?$stream_output_adapter@D@__crt_stdio_output@@@2@@__crt_stdio_output@@AEAAX_K_N@Z 00000001800c5e00 f i libucrtd:output.obj
 0002:00056f80       ??$type_case_integer_parse_into_buffer@_K$07@?$output_processor@DV?$stream_output_adapter@D@__crt_stdio_output@@V?$positional_parameter_base@DV?$stream_output_adapter@D@__crt_stdio_output@@@2@@__crt_stdio_output@@AEAAX_K_N@Z 00000001800c5f80 f i libucrtd:output.obj
 0002:00057100       ??$type_case_integer_parse_into_buffer@_K$07@?$output_processor@DV?$stream_output_adapter@D@__crt_stdio_output@@V?$standard_base@DV?$stream_output_adapter@D@__crt_stdio_output@@@2@@__crt_stdio_output@@AEAAX_K_N@Z 00000001800c6100 f i libucrtd:output.obj
 0002:00057280       ??$type_case_integer_parse_into_buffer@_K$07@?$output_processor@DV?$string_output_adapter@D@__crt_stdio_output@@V?$format_validation_base@DV?$string_output_adapter@D@__crt_stdio_output@@@2@@__crt_stdio_output@@AEAAX_K_N@Z 00000001800c6280 f i libucrtd:output.obj
 0002:00057400       ??$type_case_integer_parse_into_buffer@_K$07@?$output_processor@DV?$string_output_adapter@D@__crt_stdio_output@@V?$positional_parameter_base@DV?$string_output_adapter@D@__crt_stdio_output@@@2@@__crt_stdio_output@@AEAAX_K_N@Z 00000001800c6400 f i libucrtd:output.obj
 0002:00057580       ??$type_case_integer_parse_into_buffer@_K$07@?$output_processor@DV?$string_output_adapter@D@__crt_stdio_output@@V?$standard_base@DV?$string_output_adapter@D@__crt_stdio_output@@@2@@__crt_stdio_output@@AEAAX_K_N@Z 00000001800c6580 f i libucrtd:output.obj
 0002:00057700       ??$type_case_integer_parse_into_buffer@_K$07@?$output_processor@_WV?$stream_output_adapter@_W@__crt_stdio_output@@V?$format_validation_base@_WV?$stream_output_adapter@_W@__crt_stdio_output@@@2@@__crt_stdio_output@@AEAAX_K_N@Z 00000001800c6700 f i libucrtd:output.obj
 0002:00057890       ??$type_case_integer_parse_into_buffer@_K$07@?$output_processor@_WV?$stream_output_adapter@_W@__crt_stdio_output@@V?$positional_parameter_base@_WV?$stream_output_adapter@_W@__crt_stdio_output@@@2@@__crt_stdio_output@@AEAAX_K_N@Z 00000001800c6890 f i libucrtd:output.obj
 0002:00057a20       ??$type_case_integer_parse_into_buffer@_K$07@?$output_processor@_WV?$stream_output_adapter@_W@__crt_stdio_output@@V?$standard_base@_WV?$stream_output_adapter@_W@__crt_stdio_output@@@2@@__crt_stdio_output@@AEAAX_K_N@Z 00000001800c6a20 f i libucrtd:output.obj
 0002:00057bb0       ??$type_case_integer_parse_into_buffer@_K$07@?$output_processor@_WV?$string_output_adapter@_W@__crt_stdio_output@@V?$format_validation_base@_WV?$string_output_adapter@_W@__crt_stdio_output@@@2@@__crt_stdio_output@@AEAAX_K_N@Z 00000001800c6bb0 f i libucrtd:output.obj
 0002:00057d40       ??$type_case_integer_parse_into_buffer@_K$07@?$output_processor@_WV?$string_output_adapter@_W@__crt_stdio_output@@V?$positional_parameter_base@_WV?$string_output_adapter@_W@__crt_stdio_output@@@2@@__crt_stdio_output@@AEAAX_K_N@Z 00000001800c6d40 f i libucrtd:output.obj
 0002:00057ed0       ??$type_case_integer_parse_into_buffer@_K$07@?$output_processor@_WV?$string_output_adapter@_W@__crt_stdio_output@@V?$standard_base@_WV?$string_output_adapter@_W@__crt_stdio_output@@@2@@__crt_stdio_output@@AEAAX_K_N@Z 00000001800c6ed0 f i libucrtd:output.obj
 0002:00058060       ??$type_case_integer_parse_into_buffer@_K$09@?$output_processor@DV?$stream_output_adapter@D@__crt_stdio_output@@V?$format_validation_base@DV?$stream_output_adapter@D@__crt_stdio_output@@@2@@__crt_stdio_output@@AEAAX_K_N@Z 00000001800c7060 f i libucrtd:output.obj
 0002:000581e0       ??$type_case_integer_parse_into_buffer@_K$09@?$output_processor@DV?$stream_output_adapter@D@__crt_stdio_output@@V?$positional_parameter_base@DV?$stream_output_adapter@D@__crt_stdio_output@@@2@@__crt_stdio_output@@AEAAX_K_N@Z 00000001800c71e0 f i libucrtd:output.obj
 0002:00058360       ??$type_case_integer_parse_into_buffer@_K$09@?$output_processor@DV?$stream_output_adapter@D@__crt_stdio_output@@V?$standard_base@DV?$stream_output_adapter@D@__crt_stdio_output@@@2@@__crt_stdio_output@@AEAAX_K_N@Z 00000001800c7360 f i libucrtd:output.obj
 0002:000584e0       ??$type_case_integer_parse_into_buffer@_K$09@?$output_processor@DV?$string_output_adapter@D@__crt_stdio_output@@V?$format_validation_base@DV?$string_output_adapter@D@__crt_stdio_output@@@2@@__crt_stdio_output@@AEAAX_K_N@Z 00000001800c74e0 f i libucrtd:output.obj
 0002:00058660       ??$type_case_integer_parse_into_buffer@_K$09@?$output_processor@DV?$string_output_adapter@D@__crt_stdio_output@@V?$positional_parameter_base@DV?$string_output_adapter@D@__crt_stdio_output@@@2@@__crt_stdio_output@@AEAAX_K_N@Z 00000001800c7660 f i libucrtd:output.obj
 0002:000587e0       ??$type_case_integer_parse_into_buffer@_K$09@?$output_processor@DV?$string_output_adapter@D@__crt_stdio_output@@V?$standard_base@DV?$string_output_adapter@D@__crt_stdio_output@@@2@@__crt_stdio_output@@AEAAX_K_N@Z 00000001800c77e0 f i libucrtd:output.obj
 0002:00058960       ??$type_case_integer_parse_into_buffer@_K$09@?$output_processor@_WV?$stream_output_adapter@_W@__crt_stdio_output@@V?$format_validation_base@_WV?$stream_output_adapter@_W@__crt_stdio_output@@@2@@__crt_stdio_output@@AEAAX_K_N@Z 00000001800c7960 f i libucrtd:output.obj
 0002:00058af0       ??$type_case_integer_parse_into_buffer@_K$09@?$output_processor@_WV?$stream_output_adapter@_W@__crt_stdio_output@@V?$positional_parameter_base@_WV?$stream_output_adapter@_W@__crt_stdio_output@@@2@@__crt_stdio_output@@AEAAX_K_N@Z 00000001800c7af0 f i libucrtd:output.obj
 0002:00058c80       ??$type_case_integer_parse_into_buffer@_K$09@?$output_processor@_WV?$stream_output_adapter@_W@__crt_stdio_output@@V?$standard_base@_WV?$stream_output_adapter@_W@__crt_stdio_output@@@2@@__crt_stdio_output@@AEAAX_K_N@Z 00000001800c7c80 f i libucrtd:output.obj
 0002:00058e10       ??$type_case_integer_parse_into_buffer@_K$09@?$output_processor@_WV?$string_output_adapter@_W@__crt_stdio_output@@V?$format_validation_base@_WV?$string_output_adapter@_W@__crt_stdio_output@@@2@@__crt_stdio_output@@AEAAX_K_N@Z 00000001800c7e10 f i libucrtd:output.obj
 0002:00058fa0       ??$type_case_integer_parse_into_buffer@_K$09@?$output_processor@_WV?$string_output_adapter@_W@__crt_stdio_output@@V?$positional_parameter_base@_WV?$string_output_adapter@_W@__crt_stdio_output@@@2@@__crt_stdio_output@@AEAAX_K_N@Z 00000001800c7fa0 f i libucrtd:output.obj
 0002:00059130       ??$type_case_integer_parse_into_buffer@_K$09@?$output_processor@_WV?$string_output_adapter@_W@__crt_stdio_output@@V?$standard_base@_WV?$string_output_adapter@_W@__crt_stdio_output@@@2@@__crt_stdio_output@@AEAAX_K_N@Z 00000001800c8130 f i libucrtd:output.obj
 0002:000592c0       ??$type_case_integer_parse_into_buffer@_K$0BA@@?$output_processor@DV?$stream_output_adapter@D@__crt_stdio_output@@V?$format_validation_base@DV?$stream_output_adapter@D@__crt_stdio_output@@@2@@__crt_stdio_output@@AEAAX_K_N@Z 00000001800c82c0 f i libucrtd:output.obj
 0002:00059440       ??$type_case_integer_parse_into_buffer@_K$0BA@@?$output_processor@DV?$stream_output_adapter@D@__crt_stdio_output@@V?$positional_parameter_base@DV?$stream_output_adapter@D@__crt_stdio_output@@@2@@__crt_stdio_output@@AEAAX_K_N@Z 00000001800c8440 f i libucrtd:output.obj
 0002:000595c0       ??$type_case_integer_parse_into_buffer@_K$0BA@@?$output_processor@DV?$stream_output_adapter@D@__crt_stdio_output@@V?$standard_base@DV?$stream_output_adapter@D@__crt_stdio_output@@@2@@__crt_stdio_output@@AEAAX_K_N@Z 00000001800c85c0 f i libucrtd:output.obj
 0002:00059740       ??$type_case_integer_parse_into_buffer@_K$0BA@@?$output_processor@DV?$string_output_adapter@D@__crt_stdio_output@@V?$format_validation_base@DV?$string_output_adapter@D@__crt_stdio_output@@@2@@__crt_stdio_output@@AEAAX_K_N@Z 00000001800c8740 f i libucrtd:output.obj
 0002:000598c0       ??$type_case_integer_parse_into_buffer@_K$0BA@@?$output_processor@DV?$string_output_adapter@D@__crt_stdio_output@@V?$positional_parameter_base@DV?$string_output_adapter@D@__crt_stdio_output@@@2@@__crt_stdio_output@@AEAAX_K_N@Z 00000001800c88c0 f i libucrtd:output.obj
 0002:00059a40       ??$type_case_integer_parse_into_buffer@_K$0BA@@?$output_processor@DV?$string_output_adapter@D@__crt_stdio_output@@V?$standard_base@DV?$string_output_adapter@D@__crt_stdio_output@@@2@@__crt_stdio_output@@AEAAX_K_N@Z 00000001800c8a40 f i libucrtd:output.obj
 0002:00059bc0       ??$type_case_integer_parse_into_buffer@_K$0BA@@?$output_processor@_WV?$stream_output_adapter@_W@__crt_stdio_output@@V?$format_validation_base@_WV?$stream_output_adapter@_W@__crt_stdio_output@@@2@@__crt_stdio_output@@AEAAX_K_N@Z 00000001800c8bc0 f i libucrtd:output.obj
 0002:00059d50       ??$type_case_integer_parse_into_buffer@_K$0BA@@?$output_processor@_WV?$stream_output_adapter@_W@__crt_stdio_output@@V?$positional_parameter_base@_WV?$stream_output_adapter@_W@__crt_stdio_output@@@2@@__crt_stdio_output@@AEAAX_K_N@Z 00000001800c8d50 f i libucrtd:output.obj
 0002:00059ee0       ??$type_case_integer_parse_into_buffer@_K$0BA@@?$output_processor@_WV?$stream_output_adapter@_W@__crt_stdio_output@@V?$standard_base@_WV?$stream_output_adapter@_W@__crt_stdio_output@@@2@@__crt_stdio_output@@AEAAX_K_N@Z 00000001800c8ee0 f i libucrtd:output.obj
 0002:0005a070       ??$type_case_integer_parse_into_buffer@_K$0BA@@?$output_processor@_WV?$string_output_adapter@_W@__crt_stdio_output@@V?$format_validation_base@_WV?$string_output_adapter@_W@__crt_stdio_output@@@2@@__crt_stdio_output@@AEAAX_K_N@Z 00000001800c9070 f i libucrtd:output.obj
 0002:0005a200       ??$type_case_integer_parse_into_buffer@_K$0BA@@?$output_processor@_WV?$string_output_adapter@_W@__crt_stdio_output@@V?$positional_parameter_base@_WV?$string_output_adapter@_W@__crt_stdio_output@@@2@@__crt_stdio_output@@AEAAX_K_N@Z 00000001800c9200 f i libucrtd:output.obj
 0002:0005a390       ??$type_case_integer_parse_into_buffer@_K$0BA@@?$output_processor@_WV?$string_output_adapter@_W@__crt_stdio_output@@V?$standard_base@_WV?$string_output_adapter@_W@__crt_stdio_output@@@2@@__crt_stdio_output@@AEAAX_K_N@Z 00000001800c9390 f i libucrtd:output.obj
 0002:0005a520       ??$write_multiple_characters@V?$stream_output_adapter@D@__crt_stdio_output@@D@__crt_stdio_output@@YAXAEBV?$stream_output_adapter@D@0@DHQEAHAEAV__crt_cached_ptd_host@@@Z 00000001800c9520 f i libucrtd:output.obj
 0002:0005a5a0       ??$write_multiple_characters@V?$stream_output_adapter@_W@__crt_stdio_output@@D@__crt_stdio_output@@YAXAEBV?$stream_output_adapter@_W@0@DHQEAHAEAV__crt_cached_ptd_host@@@Z 00000001800c95a0 f i libucrtd:output.obj
 0002:0005a620       ??$write_multiple_characters@V?$string_output_adapter@D@__crt_stdio_output@@D@__crt_stdio_output@@YAXAEBV?$string_output_adapter@D@0@DHQEAHAEAV__crt_cached_ptd_host@@@Z 00000001800c9620 f i libucrtd:output.obj
 0002:0005a6a0       ??$write_multiple_characters@V?$string_output_adapter@_W@__crt_stdio_output@@D@__crt_stdio_output@@YAXAEBV?$string_output_adapter@_W@0@DHQEAHAEAV__crt_cached_ptd_host@@@Z 00000001800c96a0 f i libucrtd:output.obj
 0002:0005ac60       ??0?$c_string_character_source@D@__crt_strtox@@QEAA@QEBDQEAPEBD@Z 00000001800c9c60 f i libucrtd:output.obj
 0002:0005acc0       ??0?$c_string_character_source@_W@__crt_strtox@@QEAA@QEB_WQEAPEB_W@Z 00000001800c9cc0 f i libucrtd:output.obj
 0002:0005ad20       ??0?$cached@H@__crt_cached_ptd_host@@QEAA@XZ 00000001800c9d20 f i libucrtd:output.obj
 0002:0005ad40       ??0?$cached@K@__crt_cached_ptd_host@@QEAA@XZ 00000001800c9d40 f i libucrtd:output.obj
 0002:0005ad60       ??0?$common_data@D@__crt_stdio_output@@IEAA@AEAV__crt_cached_ptd_host@@@Z 00000001800c9d60 f i libucrtd:output.obj
 0002:0005ae50       ??0?$common_data@_W@__crt_stdio_output@@IEAA@AEAV__crt_cached_ptd_host@@@Z 00000001800c9e50 f i libucrtd:output.obj
 0002:0005af40       ??0?$output_adapter_data@DV?$stream_output_adapter@D@__crt_stdio_output@@@__crt_stdio_output@@IEAA@AEBV?$stream_output_adapter@D@1@_KQEBDAEAV__crt_cached_ptd_host@@QEAD@Z 00000001800c9f40 f i libucrtd:output.obj
 0002:0005afe0       ??0?$output_adapter_data@DV?$string_output_adapter@D@__crt_stdio_output@@@__crt_stdio_output@@IEAA@AEBV?$string_output_adapter@D@1@_KQEBDAEAV__crt_cached_ptd_host@@QEAD@Z 00000001800c9fe0 f i libucrtd:output.obj
 0002:0005b080       ??0?$output_adapter_data@_WV?$stream_output_adapter@_W@__crt_stdio_output@@@__crt_stdio_output@@IEAA@AEBV?$stream_output_adapter@_W@1@_KQEB_WAEAV__crt_cached_ptd_host@@QEAD@Z 00000001800ca080 f i libucrtd:output.obj
 0002:0005b120       ??0?$output_adapter_data@_WV?$string_output_adapter@_W@__crt_stdio_output@@@__crt_stdio_output@@IEAA@AEBV?$string_output_adapter@_W@1@_KQEB_WAEAV__crt_cached_ptd_host@@QEAD@Z 00000001800ca120 f i libucrtd:output.obj
 0002:0005b1c0       ??0?$output_processor@DV?$stream_output_adapter@D@__crt_stdio_output@@V?$format_validation_base@DV?$stream_output_adapter@D@__crt_stdio_output@@@2@@__crt_stdio_output@@QEAA@AEBV?$stream_output_adapter@D@1@_KQEBDAEAV__crt_cached_ptd_host@@QEAD@Z 00000001800ca1c0 f i libucrtd:output.obj
 0002:0005b230       ??0?$output_processor@DV?$stream_output_adapter@D@__crt_stdio_output@@V?$positional_parameter_base@DV?$stream_output_adapter@D@__crt_stdio_output@@@2@@__crt_stdio_output@@QEAA@AEBV?$stream_output_adapter@D@1@_KQEBDAEAV__crt_cached_ptd_host@@QEAD@Z 00000001800ca230 f i libucrtd:output.obj
 0002:0005b2a0       ??0?$output_processor@DV?$stream_output_adapter@D@__crt_stdio_output@@V?$standard_base@DV?$stream_output_adapter@D@__crt_stdio_output@@@2@@__crt_stdio_output@@QEAA@AEBV?$stream_output_adapter@D@1@_KQEBDAEAV__crt_cached_ptd_host@@QEAD@Z 00000001800ca2a0 f i libucrtd:output.obj
 0002:0005b310       ??0?$output_processor@DV?$string_output_adapter@D@__crt_stdio_output@@V?$format_validation_base@DV?$string_output_adapter@D@__crt_stdio_output@@@2@@__crt_stdio_output@@QEAA@AEBV?$string_output_adapter@D@1@_KQEBDAEAV__crt_cached_ptd_host@@QEAD@Z 00000001800ca310 f i libucrtd:output.obj
 0002:0005b380       ??0?$output_processor@DV?$string_output_adapter@D@__crt_stdio_output@@V?$positional_parameter_base@DV?$string_output_adapter@D@__crt_stdio_output@@@2@@__crt_stdio_output@@QEAA@AEBV?$string_output_adapter@D@1@_KQEBDAEAV__crt_cached_ptd_host@@QEAD@Z 00000001800ca380 f i libucrtd:output.obj
 0002:0005b3f0       ??0?$output_processor@DV?$string_output_adapter@D@__crt_stdio_output@@V?$standard_base@DV?$string_output_adapter@D@__crt_stdio_output@@@2@@__crt_stdio_output@@QEAA@AEBV?$string_output_adapter@D@1@_KQEBDAEAV__crt_cached_ptd_host@@QEAD@Z 00000001800ca3f0 f i libucrtd:output.obj
 0002:0005b460       ??0?$output_processor@_WV?$stream_output_adapter@_W@__crt_stdio_output@@V?$format_validation_base@_WV?$stream_output_adapter@_W@__crt_stdio_output@@@2@@__crt_stdio_output@@QEAA@AEBV?$stream_output_adapter@_W@1@_KQEB_WAEAV__crt_cached_ptd_host@@QEAD@Z 00000001800ca460 f i libucrtd:output.obj
 0002:0005b4d0       ??0?$output_processor@_WV?$stream_output_adapter@_W@__crt_stdio_output@@V?$positional_parameter_base@_WV?$stream_output_adapter@_W@__crt_stdio_output@@@2@@__crt_stdio_output@@QEAA@AEBV?$stream_output_adapter@_W@1@_KQEB_WAEAV__crt_cached_ptd_host@@QEAD@Z 00000001800ca4d0 f i libucrtd:output.obj
 0002:0005b540       ??0?$output_processor@_WV?$stream_output_adapter@_W@__crt_stdio_output@@V?$standard_base@_WV?$stream_output_adapter@_W@__crt_stdio_output@@@2@@__crt_stdio_output@@QEAA@AEBV?$stream_output_adapter@_W@1@_KQEB_WAEAV__crt_cached_ptd_host@@QEAD@Z 00000001800ca540 f i libucrtd:output.obj
 0002:0005b5b0       ??0?$output_processor@_WV?$string_output_adapter@_W@__crt_stdio_output@@V?$format_validation_base@_WV?$string_output_adapter@_W@__crt_stdio_output@@@2@@__crt_stdio_output@@QEAA@AEBV?$string_output_adapter@_W@1@_KQEB_WAEAV__crt_cached_ptd_host@@QEAD@Z 00000001800ca5b0 f i libucrtd:output.obj
 0002:0005b620       ??0?$output_processor@_WV?$string_output_adapter@_W@__crt_stdio_output@@V?$positional_parameter_base@_WV?$string_output_adapter@_W@__crt_stdio_output@@@2@@__crt_stdio_output@@QEAA@AEBV?$string_output_adapter@_W@1@_KQEB_WAEAV__crt_cached_ptd_host@@QEAD@Z 00000001800ca620 f i libucrtd:output.obj
 0002:0005b690       ??0?$output_processor@_WV?$string_output_adapter@_W@__crt_stdio_output@@V?$standard_base@_WV?$string_output_adapter@_W@__crt_stdio_output@@@2@@__crt_stdio_output@@QEAA@AEBV?$string_output_adapter@_W@1@_KQEB_WAEAV__crt_cached_ptd_host@@QEAD@Z 00000001800ca690 f i libucrtd:output.obj
 0002:0005b700       ??0?$stream_output_adapter@D@__crt_stdio_output@@QEAA@QEAU_iobuf@@@Z 00000001800ca700 f i libucrtd:output.obj
 0002:0005b740       ??0?$stream_output_adapter@_W@__crt_stdio_output@@QEAA@QEAU_iobuf@@@Z 00000001800ca740 f i libucrtd:output.obj
 0002:0005b780       ??0?$string_output_adapter@D@__crt_stdio_output@@QEAA@QEAU?$string_output_adapter_context@D@1@@Z 00000001800ca780 f i libucrtd:output.obj
 0002:0005b7b0       ??0?$string_output_adapter@_W@__crt_stdio_output@@QEAA@QEAU?$string_output_adapter_context@_W@1@@Z 00000001800ca7b0 f i libucrtd:output.obj
 0002:0005b7e0       ??0__acrt_stdio_temporary_buffering_guard@@QEAA@QEAU_iobuf@@AEAV__crt_cached_ptd_host@@@Z 00000001800ca7e0 f i libucrtd:output.obj
 0002:0005b840       ??0__crt_cached_ptd_host@@QEAA@QEAU__crt_locale_pointers@@@Z 00000001800ca840 f i libucrtd:output.obj
 0002:0005b920       ??0__crt_scoped_get_last_error_reset@@QEAA@XZ 00000001800ca920 f i libucrtd:output.obj
 0002:0005b950       ??0__crt_stdio_stream@@QEAA@QEAU_iobuf@@@Z 00000001800ca950 f i libucrtd:output.obj
 0002:0005b980       ??0formatting_buffer@__crt_stdio_output@@QEAA@XZ 00000001800ca980 f i libucrtd:output.obj
 0002:0005b9d0       ??0guard@?$cached@H@__crt_cached_ptd_host@@QEAA@AEAU12@@Z 00000001800ca9d0 f i libucrtd:output.obj
 0002:0005ba20       ??1?$c_string_character_source@D@__crt_strtox@@QEAA@XZ 00000001800caa20 f i libucrtd:output.obj
 0002:0005ba50       ??1?$c_string_character_source@_W@__crt_strtox@@QEAA@XZ 00000001800caa50 f i libucrtd:output.obj
 0002:0005ba80       ??1?$common_data@D@__crt_stdio_output@@QEAA@XZ 00000001800caa80 f i libucrtd:output.obj
 0002:0005bab0       ??1?$common_data@_W@__crt_stdio_output@@QEAA@XZ 00000001800caab0 f i libucrtd:output.obj
 0002:0005bae0       ??1?$format_validation_base@DV?$stream_output_adapter@D@__crt_stdio_output@@@__crt_stdio_output@@QEAA@XZ 00000001800caae0 f i libucrtd:output.obj
 0002:0005bb00       ??1?$format_validation_base@DV?$string_output_adapter@D@__crt_stdio_output@@@__crt_stdio_output@@QEAA@XZ 00000001800cab00 f i libucrtd:output.obj
 0002:0005bb20       ??1?$format_validation_base@_WV?$stream_output_adapter@_W@__crt_stdio_output@@@__crt_stdio_output@@QEAA@XZ 00000001800cab20 f i libucrtd:output.obj
 0002:0005bb40       ??1?$format_validation_base@_WV?$string_output_adapter@_W@__crt_stdio_output@@@__crt_stdio_output@@QEAA@XZ 00000001800cab40 f i libucrtd:output.obj
 0002:0005bb60       ??1?$output_adapter_data@DV?$stream_output_adapter@D@__crt_stdio_output@@@__crt_stdio_output@@QEAA@XZ 00000001800cab60 f i libucrtd:output.obj
 0002:0005bb80       ??1?$output_adapter_data@DV?$string_output_adapter@D@__crt_stdio_output@@@__crt_stdio_output@@QEAA@XZ 00000001800cab80 f i libucrtd:output.obj
 0002:0005bba0       ??1?$output_adapter_data@_WV?$stream_output_adapter@_W@__crt_stdio_output@@@__crt_stdio_output@@QEAA@XZ 00000001800caba0 f i libucrtd:output.obj
 0002:0005bbc0       ??1?$output_adapter_data@_WV?$string_output_adapter@_W@__crt_stdio_output@@@__crt_stdio_output@@QEAA@XZ 00000001800cabc0 f i libucrtd:output.obj
 0002:0005bbe0       ??1?$output_processor@DV?$stream_output_adapter@D@__crt_stdio_output@@V?$format_validation_base@DV?$stream_output_adapter@D@__crt_stdio_output@@@2@@__crt_stdio_output@@QEAA@XZ 00000001800cabe0 f i libucrtd:output.obj
 0002:0005bc00       ??1?$output_processor@DV?$stream_output_adapter@D@__crt_stdio_output@@V?$positional_parameter_base@DV?$stream_output_adapter@D@__crt_stdio_output@@@2@@__crt_stdio_output@@QEAA@XZ 00000001800cac00 f i libucrtd:output.obj
 0002:0005bc20       ??1?$output_processor@DV?$stream_output_adapter@D@__crt_stdio_output@@V?$standard_base@DV?$stream_output_adapter@D@__crt_stdio_output@@@2@@__crt_stdio_output@@QEAA@XZ 00000001800cac20 f i libucrtd:output.obj
 0002:0005bc40       ??1?$output_processor@DV?$string_output_adapter@D@__crt_stdio_output@@V?$format_validation_base@DV?$string_output_adapter@D@__crt_stdio_output@@@2@@__crt_stdio_output@@QEAA@XZ 00000001800cac40 f i libucrtd:output.obj
 0002:0005bc60       ??1?$output_processor@DV?$string_output_adapter@D@__crt_stdio_output@@V?$positional_parameter_base@DV?$string_output_adapter@D@__crt_stdio_output@@@2@@__crt_stdio_output@@QEAA@XZ 00000001800cac60 f i libucrtd:output.obj
 0002:0005bc80       ??1?$output_processor@DV?$string_output_adapter@D@__crt_stdio_output@@V?$standard_base@DV?$string_output_adapter@D@__crt_stdio_output@@@2@@__crt_stdio_output@@QEAA@XZ 00000001800cac80 f i libucrtd:output.obj
 0002:0005bca0       ??1?$output_processor@_WV?$stream_output_adapter@_W@__crt_stdio_output@@V?$format_validation_base@_WV?$stream_output_adapter@_W@__crt_stdio_output@@@2@@__crt_stdio_output@@QEAA@XZ 00000001800caca0 f i libucrtd:output.obj
 0002:0005bcc0       ??1?$output_processor@_WV?$stream_output_adapter@_W@__crt_stdio_output@@V?$positional_parameter_base@_WV?$stream_output_adapter@_W@__crt_stdio_output@@@2@@__crt_stdio_output@@QEAA@XZ 00000001800cacc0 f i libucrtd:output.obj
 0002:0005bce0       ??1?$output_processor@_WV?$stream_output_adapter@_W@__crt_stdio_output@@V?$standard_base@_WV?$stream_output_adapter@_W@__crt_stdio_output@@@2@@__crt_stdio_output@@QEAA@XZ 00000001800cace0 f i libucrtd:output.obj
 0002:0005bd00       ??1?$output_processor@_WV?$string_output_adapter@_W@__crt_stdio_output@@V?$format_validation_base@_WV?$string_output_adapter@_W@__crt_stdio_output@@@2@@__crt_stdio_output@@QEAA@XZ 00000001800cad00 f i libucrtd:output.obj
 0002:0005bd20       ??1?$output_processor@_WV?$string_output_adapter@_W@__crt_stdio_output@@V?$positional_parameter_base@_WV?$string_output_adapter@_W@__crt_stdio_output@@@2@@__crt_stdio_output@@QEAA@XZ 00000001800cad20 f i libucrtd:output.obj
 0002:0005bd40       ??1?$output_processor@_WV?$string_output_adapter@_W@__crt_stdio_output@@V?$standard_base@_WV?$string_output_adapter@_W@__crt_stdio_output@@@2@@__crt_stdio_output@@QEAA@XZ 00000001800cad40 f i libucrtd:output.obj
 0002:0005bd60       ??1?$positional_parameter_base@DV?$stream_output_adapter@D@__crt_stdio_output@@@__crt_stdio_output@@QEAA@XZ 00000001800cad60 f i libucrtd:output.obj
 0002:0005bd80       ??1?$positional_parameter_base@DV?$string_output_adapter@D@__crt_stdio_output@@@__crt_stdio_output@@QEAA@XZ 00000001800cad80 f i libucrtd:output.obj
 0002:0005bda0       ??1?$positional_parameter_base@_WV?$stream_output_adapter@_W@__crt_stdio_output@@@__crt_stdio_output@@QEAA@XZ 00000001800cada0 f i libucrtd:output.obj
 0002:0005bdc0       ??1?$positional_parameter_base@_WV?$string_output_adapter@_W@__crt_stdio_output@@@__crt_stdio_output@@QEAA@XZ 00000001800cadc0 f i libucrtd:output.obj
 0002:0005bde0       ??1?$standard_base@DV?$stream_output_adapter@D@__crt_stdio_output@@@__crt_stdio_output@@QEAA@XZ 00000001800cade0 f i libucrtd:output.obj
 0002:0005be00       ??1?$standard_base@DV?$string_output_adapter@D@__crt_stdio_output@@@__crt_stdio_output@@QEAA@XZ 00000001800cae00 f i libucrtd:output.obj
 0002:0005be20       ??1?$standard_base@_WV?$stream_output_adapter@_W@__crt_stdio_output@@@__crt_stdio_output@@QEAA@XZ 00000001800cae20 f i libucrtd:output.obj
 0002:0005be40       ??1?$standard_base@_WV?$string_output_adapter@_W@__crt_stdio_output@@@__crt_stdio_output@@QEAA@XZ 00000001800cae40 f i libucrtd:output.obj
 0002:0005be60       ??1__acrt_stdio_temporary_buffering_guard@@QEAA@XZ 00000001800cae60 f i libucrtd:output.obj
 0002:0005bea0       ??1__crt_cached_ptd_host@@QEAA@XZ 00000001800caea0 f i libucrtd:output.obj
 0002:0005bf70       ??1__crt_scoped_get_last_error_reset@@QEAA@XZ 00000001800caf70 f i libucrtd:output.obj
 0002:0005bfa0       ??1formatting_buffer@__crt_stdio_output@@QEAA@XZ 00000001800cafa0 f i libucrtd:output.obj
 0002:0005bfd0       ??1guard@?$cached@H@__crt_cached_ptd_host@@QEAA@XZ 00000001800cafd0 f i libucrtd:output.obj
 0002:0005c000       ??4?$__crt_unique_heap_ptr@DU__crt_internal_free_policy@@@@QEAAAEAV0@$$QEAV0@@Z 00000001800cb000 f i libucrtd:output.obj
 0002:0005c050       ??A?$spectre_mitigated_lookup_table@Ustate_transition_pair@__crt_stdio_output@@$0IA@@__crt_stdio_output@@QEBAAEBUstate_transition_pair@1@_K@Z 00000001800cb050 f i libucrtd:output.obj
 0002:0005c080       ??C__crt_stdio_stream@@QEBAPEAU__crt_stdio_stream_data@@XZ 00000001800cb080 f i libucrtd:output.obj
 0002:0005cb80       ?adjust_hexit@?$output_processor@DV?$stream_output_adapter@D@__crt_stdio_output@@V?$format_validation_base@DV?$stream_output_adapter@D@__crt_stdio_output@@@2@@__crt_stdio_output@@CADH_N@Z 00000001800cbb80 f i libucrtd:output.obj
 0002:0005cbe0       ?adjust_hexit@?$output_processor@DV?$stream_output_adapter@D@__crt_stdio_output@@V?$positional_parameter_base@DV?$stream_output_adapter@D@__crt_stdio_output@@@2@@__crt_stdio_output@@CADH_N@Z 00000001800cbbe0 f i libucrtd:output.obj
 0002:0005cc40       ?adjust_hexit@?$output_processor@DV?$stream_output_adapter@D@__crt_stdio_output@@V?$standard_base@DV?$stream_output_adapter@D@__crt_stdio_output@@@2@@__crt_stdio_output@@CADH_N@Z 00000001800cbc40 f i libucrtd:output.obj
 0002:0005cca0       ?adjust_hexit@?$output_processor@DV?$string_output_adapter@D@__crt_stdio_output@@V?$format_validation_base@DV?$string_output_adapter@D@__crt_stdio_output@@@2@@__crt_stdio_output@@CADH_N@Z 00000001800cbca0 f i libucrtd:output.obj
 0002:0005cd00       ?adjust_hexit@?$output_processor@DV?$string_output_adapter@D@__crt_stdio_output@@V?$positional_parameter_base@DV?$string_output_adapter@D@__crt_stdio_output@@@2@@__crt_stdio_output@@CADH_N@Z 00000001800cbd00 f i libucrtd:output.obj
 0002:0005cd60       ?adjust_hexit@?$output_processor@DV?$string_output_adapter@D@__crt_stdio_output@@V?$standard_base@DV?$string_output_adapter@D@__crt_stdio_output@@@2@@__crt_stdio_output@@CADH_N@Z 00000001800cbd60 f i libucrtd:output.obj
 0002:0005cdc0       ?adjust_hexit@?$output_processor@_WV?$stream_output_adapter@_W@__crt_stdio_output@@V?$format_validation_base@_WV?$stream_output_adapter@_W@__crt_stdio_output@@@2@@__crt_stdio_output@@CADH_N@Z 00000001800cbdc0 f i libucrtd:output.obj
 0002:0005ce20       ?adjust_hexit@?$output_processor@_WV?$stream_output_adapter@_W@__crt_stdio_output@@V?$positional_parameter_base@_WV?$stream_output_adapter@_W@__crt_stdio_output@@@2@@__crt_stdio_output@@CADH_N@Z 00000001800cbe20 f i libucrtd:output.obj
 0002:0005ce80       ?adjust_hexit@?$output_processor@_WV?$stream_output_adapter@_W@__crt_stdio_output@@V?$standard_base@_WV?$stream_output_adapter@_W@__crt_stdio_output@@@2@@__crt_stdio_output@@CADH_N@Z 00000001800cbe80 f i libucrtd:output.obj
 0002:0005cee0       ?adjust_hexit@?$output_processor@_WV?$string_output_adapter@_W@__crt_stdio_output@@V?$format_validation_base@_WV?$string_output_adapter@_W@__crt_stdio_output@@@2@@__crt_stdio_output@@CADH_N@Z 00000001800cbee0 f i libucrtd:output.obj
 0002:0005cf40       ?adjust_hexit@?$output_processor@_WV?$string_output_adapter@_W@__crt_stdio_output@@V?$positional_parameter_base@_WV?$string_output_adapter@_W@__crt_stdio_output@@@2@@__crt_stdio_output@@CADH_N@Z 00000001800cbf40 f i libucrtd:output.obj
 0002:0005cfa0       ?adjust_hexit@?$output_processor@_WV?$string_output_adapter@_W@__crt_stdio_output@@V?$standard_base@_WV?$string_output_adapter@_W@__crt_stdio_output@@@2@@__crt_stdio_output@@CADH_N@Z 00000001800cbfa0 f i libucrtd:output.obj
 0002:0005d000       ?advance_to_next_pass@?$positional_parameter_base@DV?$stream_output_adapter@D@__crt_stdio_output@@@__crt_stdio_output@@IEAA_NXZ 00000001800cc000 f i libucrtd:output.obj
 0002:0005d0e0       ?advance_to_next_pass@?$positional_parameter_base@DV?$string_output_adapter@D@__crt_stdio_output@@@__crt_stdio_output@@IEAA_NXZ 00000001800cc0e0 f i libucrtd:output.obj
 0002:0005d1c0       ?advance_to_next_pass@?$positional_parameter_base@_WV?$stream_output_adapter@_W@__crt_stdio_output@@@__crt_stdio_output@@IEAA_NXZ 00000001800cc1c0 f i libucrtd:output.obj
 0002:0005d2a0       ?advance_to_next_pass@?$positional_parameter_base@_WV?$string_output_adapter@_W@__crt_stdio_output@@@__crt_stdio_output@@IEAA_NXZ 00000001800cc2a0 f i libucrtd:output.obj
 0002:0005d380       ?advance_to_next_pass@?$standard_base@DV?$stream_output_adapter@D@__crt_stdio_output@@@__crt_stdio_output@@IEAA_NXZ 00000001800cc380 f i libucrtd:output.obj
 0002:0005d3e0       ?advance_to_next_pass@?$standard_base@DV?$string_output_adapter@D@__crt_stdio_output@@@__crt_stdio_output@@IEAA_NXZ 00000001800cc3e0 f i libucrtd:output.obj
 0002:0005d440       ?advance_to_next_pass@?$standard_base@_WV?$stream_output_adapter@_W@__crt_stdio_output@@@__crt_stdio_output@@IEAA_NXZ 00000001800cc440 f i libucrtd:output.obj
 0002:0005d4a0       ?advance_to_next_pass@?$standard_base@_WV?$string_output_adapter@_W@__crt_stdio_output@@@__crt_stdio_output@@IEAA_NXZ 00000001800cc4a0 f i libucrtd:output.obj
 0002:0005d500       ?check@?$cached@H@__crt_cached_ptd_host@@QEBA_NH@Z 00000001800cc500 f i libucrtd:output.obj
 0002:0005d550       ?check_synchronize_global_state_index@__crt_cached_ptd_host@@AEAA_KAEBV__crt_scoped_get_last_error_reset@@@Z 00000001800cc550 f i libucrtd:output.obj
 0002:0005d5a0       ?check_synchronize_per_thread_data@__crt_cached_ptd_host@@AEAAPEAU__acrt_ptd@@XZ 00000001800cc5a0 f i libucrtd:output.obj
 0002:0005d5f0       ?create_guard@?$cached@H@__crt_cached_ptd_host@@QEAA?AVguard@12@XZ 00000001800cc5f0 f i libucrtd:output.obj
 0002:0005d620       ?crop_zeroes@__crt_stdio_output@@YAXPEADQEAU__crt_locale_pointers@@@Z 00000001800cc620 f i libucrtd:output.obj
 0002:0005d7c0       ?disable@guard@?$cached@H@__crt_cached_ptd_host@@QEAAXXZ 00000001800cc7c0 f i libucrtd:output.obj
 0002:0005d7e0       ?enable@guard@?$cached@H@__crt_cached_ptd_host@@QEAAXXZ 00000001800cc7e0 f i libucrtd:output.obj
 0002:0005d800       ?find_next_state@?$output_processor@DV?$stream_output_adapter@D@__crt_stdio_output@@V?$format_validation_base@DV?$stream_output_adapter@D@__crt_stdio_output@@@2@@__crt_stdio_output@@AEBA?AW4state@2@DW432@@Z 00000001800cc800 f i libucrtd:output.obj
 0002:0005d8c0       ?find_next_state@?$output_processor@DV?$stream_output_adapter@D@__crt_stdio_output@@V?$positional_parameter_base@DV?$stream_output_adapter@D@__crt_stdio_output@@@2@@__crt_stdio_output@@AEBA?AW4state@2@DW432@@Z 00000001800cc8c0 f i libucrtd:output.obj
 0002:0005d980       ?find_next_state@?$output_processor@DV?$stream_output_adapter@D@__crt_stdio_output@@V?$standard_base@DV?$stream_output_adapter@D@__crt_stdio_output@@@2@@__crt_stdio_output@@AEBA?AW4state@2@DW432@@Z 00000001800cc980 f i libucrtd:output.obj
 0002:0005da40       ?find_next_state@?$output_processor@DV?$string_output_adapter@D@__crt_stdio_output@@V?$format_validation_base@DV?$string_output_adapter@D@__crt_stdio_output@@@2@@__crt_stdio_output@@AEBA?AW4state@2@DW432@@Z 00000001800cca40 f i libucrtd:output.obj
 0002:0005db00       ?find_next_state@?$output_processor@DV?$string_output_adapter@D@__crt_stdio_output@@V?$positional_parameter_base@DV?$string_output_adapter@D@__crt_stdio_output@@@2@@__crt_stdio_output@@AEBA?AW4state@2@DW432@@Z 00000001800ccb00 f i libucrtd:output.obj
 0002:0005dbc0       ?find_next_state@?$output_processor@DV?$string_output_adapter@D@__crt_stdio_output@@V?$standard_base@DV?$string_output_adapter@D@__crt_stdio_output@@@2@@__crt_stdio_output@@AEBA?AW4state@2@DW432@@Z 00000001800ccbc0 f i libucrtd:output.obj
 0002:0005dc80       ?find_next_state@?$output_processor@_WV?$stream_output_adapter@_W@__crt_stdio_output@@V?$format_validation_base@_WV?$stream_output_adapter@_W@__crt_stdio_output@@@2@@__crt_stdio_output@@AEBA?AW4state@2@_WW432@@Z 00000001800ccc80 f i libucrtd:output.obj
 0002:0005dd40       ?find_next_state@?$output_processor@_WV?$stream_output_adapter@_W@__crt_stdio_output@@V?$positional_parameter_base@_WV?$stream_output_adapter@_W@__crt_stdio_output@@@2@@__crt_stdio_output@@AEBA?AW4state@2@_WW432@@Z 00000001800ccd40 f i libucrtd:output.obj
 0002:0005de00       ?find_next_state@?$output_processor@_WV?$stream_output_adapter@_W@__crt_stdio_output@@V?$standard_base@_WV?$stream_output_adapter@_W@__crt_stdio_output@@@2@@__crt_stdio_output@@AEBA?AW4state@2@_WW432@@Z 00000001800cce00 f i libucrtd:output.obj
 0002:0005dec0       ?find_next_state@?$output_processor@_WV?$string_output_adapter@_W@__crt_stdio_output@@V?$format_validation_base@_WV?$string_output_adapter@_W@__crt_stdio_output@@@2@@__crt_stdio_output@@AEBA?AW4state@2@_WW432@@Z 00000001800ccec0 f i libucrtd:output.obj
 0002:0005df80       ?find_next_state@?$output_processor@_WV?$string_output_adapter@_W@__crt_stdio_output@@V?$positional_parameter_base@_WV?$string_output_adapter@_W@__crt_stdio_output@@@2@@__crt_stdio_output@@AEBA?AW4state@2@_WW432@@Z 00000001800ccf80 f i libucrtd:output.obj
 0002:0005e040       ?find_next_state@?$output_processor@_WV?$string_output_adapter@_W@__crt_stdio_output@@V?$standard_base@_WV?$string_output_adapter@_W@__crt_stdio_output@@@2@@__crt_stdio_output@@AEBA?AW4state@2@_WW432@@Z 00000001800cd040 f i libucrtd:output.obj
 0002:0005e100       ?force_decimal_point@__crt_stdio_output@@YAXPEADQEAU__crt_locale_pointers@@@Z 00000001800cd100 f i libucrtd:output.obj
 0002:0005e230       ?force_synchronize_global_state_index@__crt_cached_ptd_host@@AEAA_KAEBV__crt_scoped_get_last_error_reset@@@Z 00000001800cd230 f i libucrtd:output.obj
 0002:0005e280       ?force_synchronize_per_thread_data@__crt_cached_ptd_host@@AEAAPEAU__acrt_ptd@@XZ 00000001800cd280 f i libucrtd:output.obj
 0002:0005e300       ?get@?$c_string_character_source@D@__crt_strtox@@QEAADXZ 00000001800cd300 f i libucrtd:output.obj
 0002:0005e340       ?get@?$c_string_character_source@_W@__crt_strtox@@QEAA_WXZ 00000001800cd340 f i libucrtd:output.obj
 0002:0005e390       ?get_current_state_index@__crt_state_management@@YA_KAEBV__crt_scoped_get_last_error_reset@@@Z 00000001800cd390 f i libucrtd:output.obj
 0002:0005e3a0       ?get_errno@__crt_cached_ptd_host@@QEAA@XZ 00000001800cd3a0 f i libucrtd:output.obj
 0002:0005e3c0       ?get_flags@__crt_stdio_stream@@QEBAJXZ 00000001800cd3c0 f i libucrtd:output.obj
 0002:0005e3f0       ?get_locale@__crt_cached_ptd_host@@QEAAPEAU__crt_locale_pointers@@XZ 00000001800cd3f0 f i libucrtd:output.obj
 0002:0005e420       ?get_parameter_type@?$positional_parameter_base@DV?$stream_output_adapter@D@__crt_stdio_output@@@__crt_stdio_output@@CA?AW4parameter_type@12@F@Z 00000001800cd420 f i libucrtd:output.obj
 0002:0005e430       ?get_parameter_type@?$positional_parameter_base@DV?$stream_output_adapter@D@__crt_stdio_output@@@__crt_stdio_output@@CA?AW4parameter_type@12@G@Z 00000001800cd430 f i libucrtd:output.obj
 0002:0005e440       ?get_parameter_type@?$positional_parameter_base@DV?$stream_output_adapter@D@__crt_stdio_output@@@__crt_stdio_output@@CA?AW4parameter_type@12@H@Z 00000001800cd440 f i libucrtd:output.obj
 0002:0005e450       ?get_parameter_type@?$positional_parameter_base@DV?$stream_output_adapter@D@__crt_stdio_output@@@__crt_stdio_output@@CA?AW4parameter_type@12@I@Z 00000001800cd450 f i libucrtd:output.obj
 0002:0005e460       ?get_parameter_type@?$positional_parameter_base@DV?$stream_output_adapter@D@__crt_stdio_output@@@__crt_stdio_output@@CA?AW4parameter_type@12@U_CRT_DOUBLE@@@Z 00000001800cd460 f i libucrtd:output.obj
 0002:0005e470       ?get_parameter_type@?$positional_parameter_base@DV?$stream_output_adapter@D@__crt_stdio_output@@@__crt_stdio_output@@CA?AW4parameter_type@12@_J@Z 00000001800cd470 f i libucrtd:output.obj
 0002:0005e480       ?get_parameter_type@?$positional_parameter_base@DV?$stream_output_adapter@D@__crt_stdio_output@@@__crt_stdio_output@@CA?AW4parameter_type@12@_K@Z 00000001800cd480 f i libucrtd:output.obj
 0002:0005e490       ?get_parameter_type@?$positional_parameter_base@DV?$stream_output_adapter@D@__crt_stdio_output@@@__crt_stdio_output@@CA?AW4parameter_type@12@_W@Z 00000001800cd490 f i libucrtd:output.obj
 0002:0005e4a0       ?get_parameter_type@?$positional_parameter_base@DV?$string_output_adapter@D@__crt_stdio_output@@@__crt_stdio_output@@CA?AW4parameter_type@12@F@Z 00000001800cd4a0 f i libucrtd:output.obj
 0002:0005e4b0       ?get_parameter_type@?$positional_parameter_base@DV?$string_output_adapter@D@__crt_stdio_output@@@__crt_stdio_output@@CA?AW4parameter_type@12@G@Z 00000001800cd4b0 f i libucrtd:output.obj
 0002:0005e4c0       ?get_parameter_type@?$positional_parameter_base@DV?$string_output_adapter@D@__crt_stdio_output@@@__crt_stdio_output@@CA?AW4parameter_type@12@H@Z 00000001800cd4c0 f i libucrtd:output.obj
 0002:0005e4d0       ?get_parameter_type@?$positional_parameter_base@DV?$string_output_adapter@D@__crt_stdio_output@@@__crt_stdio_output@@CA?AW4parameter_type@12@I@Z 00000001800cd4d0 f i libucrtd:output.obj
 0002:0005e4e0       ?get_parameter_type@?$positional_parameter_base@DV?$string_output_adapter@D@__crt_stdio_output@@@__crt_stdio_output@@CA?AW4parameter_type@12@U_CRT_DOUBLE@@@Z 00000001800cd4e0 f i libucrtd:output.obj
 0002:0005e4f0       ?get_parameter_type@?$positional_parameter_base@DV?$string_output_adapter@D@__crt_stdio_output@@@__crt_stdio_output@@CA?AW4parameter_type@12@_J@Z 00000001800cd4f0 f i libucrtd:output.obj
 0002:0005e500       ?get_parameter_type@?$positional_parameter_base@DV?$string_output_adapter@D@__crt_stdio_output@@@__crt_stdio_output@@CA?AW4parameter_type@12@_K@Z 00000001800cd500 f i libucrtd:output.obj
 0002:0005e510       ?get_parameter_type@?$positional_parameter_base@DV?$string_output_adapter@D@__crt_stdio_output@@@__crt_stdio_output@@CA?AW4parameter_type@12@_W@Z 00000001800cd510 f i libucrtd:output.obj
 0002:0005e520       ?get_parameter_type@?$positional_parameter_base@_WV?$stream_output_adapter@_W@__crt_stdio_output@@@__crt_stdio_output@@CA?AW4parameter_type@12@F@Z 00000001800cd520 f i libucrtd:output.obj
 0002:0005e530       ?get_parameter_type@?$positional_parameter_base@_WV?$stream_output_adapter@_W@__crt_stdio_output@@@__crt_stdio_output@@CA?AW4parameter_type@12@G@Z 00000001800cd530 f i libucrtd:output.obj
 0002:0005e540       ?get_parameter_type@?$positional_parameter_base@_WV?$stream_output_adapter@_W@__crt_stdio_output@@@__crt_stdio_output@@CA?AW4parameter_type@12@H@Z 00000001800cd540 f i libucrtd:output.obj
 0002:0005e550       ?get_parameter_type@?$positional_parameter_base@_WV?$stream_output_adapter@_W@__crt_stdio_output@@@__crt_stdio_output@@CA?AW4parameter_type@12@I@Z 00000001800cd550 f i libucrtd:output.obj
 0002:0005e560       ?get_parameter_type@?$positional_parameter_base@_WV?$stream_output_adapter@_W@__crt_stdio_output@@@__crt_stdio_output@@CA?AW4parameter_type@12@U_CRT_DOUBLE@@@Z 00000001800cd560 f i libucrtd:output.obj
 0002:0005e570       ?get_parameter_type@?$positional_parameter_base@_WV?$stream_output_adapter@_W@__crt_stdio_output@@@__crt_stdio_output@@CA?AW4parameter_type@12@_J@Z 00000001800cd570 f i libucrtd:output.obj
 0002:0005e580       ?get_parameter_type@?$positional_parameter_base@_WV?$stream_output_adapter@_W@__crt_stdio_output@@@__crt_stdio_output@@CA?AW4parameter_type@12@_K@Z 00000001800cd580 f i libucrtd:output.obj
 0002:0005e590       ?get_parameter_type@?$positional_parameter_base@_WV?$stream_output_adapter@_W@__crt_stdio_output@@@__crt_stdio_output@@CA?AW4parameter_type@12@_W@Z 00000001800cd590 f i libucrtd:output.obj
 0002:0005e5a0       ?get_parameter_type@?$positional_parameter_base@_WV?$string_output_adapter@_W@__crt_stdio_output@@@__crt_stdio_output@@CA?AW4parameter_type@12@F@Z 00000001800cd5a0 f i libucrtd:output.obj
 0002:0005e5b0       ?get_parameter_type@?$positional_parameter_base@_WV?$string_output_adapter@_W@__crt_stdio_output@@@__crt_stdio_output@@CA?AW4parameter_type@12@G@Z 00000001800cd5b0 f i libucrtd:output.obj
 0002:0005e5c0       ?get_parameter_type@?$positional_parameter_base@_WV?$string_output_adapter@_W@__crt_stdio_output@@@__crt_stdio_output@@CA?AW4parameter_type@12@H@Z 00000001800cd5c0 f i libucrtd:output.obj
 0002:0005e5d0       ?get_parameter_type@?$positional_parameter_base@_WV?$string_output_adapter@_W@__crt_stdio_output@@@__crt_stdio_output@@CA?AW4parameter_type@12@I@Z 00000001800cd5d0 f i libucrtd:output.obj
 0002:0005e5e0       ?get_parameter_type@?$positional_parameter_base@_WV?$string_output_adapter@_W@__crt_stdio_output@@@__crt_stdio_output@@CA?AW4parameter_type@12@U_CRT_DOUBLE@@@Z 00000001800cd5e0 f i libucrtd:output.obj
 0002:0005e5f0       ?get_parameter_type@?$positional_parameter_base@_WV?$string_output_adapter@_W@__crt_stdio_output@@@__crt_stdio_output@@CA?AW4parameter_type@12@_J@Z 00000001800cd5f0 f i libucrtd:output.obj
 0002:0005e600       ?get_parameter_type@?$positional_parameter_base@_WV?$string_output_adapter@_W@__crt_stdio_output@@@__crt_stdio_output@@CA?AW4parameter_type@12@_K@Z 00000001800cd600 f i libucrtd:output.obj
 0002:0005e610       ?get_parameter_type@?$positional_parameter_base@_WV?$string_output_adapter@_W@__crt_stdio_output@@@__crt_stdio_output@@CA?AW4parameter_type@12@_W@Z 00000001800cd610 f i libucrtd:output.obj
 0002:0005e620       ?get_raw_ptd@__crt_cached_ptd_host@@QEAAPEAU__acrt_ptd@@XZ 00000001800cd620 f i libucrtd:output.obj
 0002:0005e640       ?has_flag@?$output_processor@DV?$stream_output_adapter@D@__crt_stdio_output@@V?$format_validation_base@DV?$stream_output_adapter@D@__crt_stdio_output@@@2@@__crt_stdio_output@@AEBA_NI@Z 00000001800cd640 f i libucrtd:output.obj
 0002:0005e690       ?has_flag@?$output_processor@DV?$stream_output_adapter@D@__crt_stdio_output@@V?$positional_parameter_base@DV?$stream_output_adapter@D@__crt_stdio_output@@@2@@__crt_stdio_output@@AEBA_NI@Z 00000001800cd690 f i libucrtd:output.obj
 0002:0005e6e0       ?has_flag@?$output_processor@DV?$stream_output_adapter@D@__crt_stdio_output@@V?$standard_base@DV?$stream_output_adapter@D@__crt_stdio_output@@@2@@__crt_stdio_output@@AEBA_NI@Z 00000001800cd6e0 f i libucrtd:output.obj
 0002:0005e730       ?has_flag@?$output_processor@DV?$string_output_adapter@D@__crt_stdio_output@@V?$format_validation_base@DV?$string_output_adapter@D@__crt_stdio_output@@@2@@__crt_stdio_output@@AEBA_NI@Z 00000001800cd730 f i libucrtd:output.obj
 0002:0005e780       ?has_flag@?$output_processor@DV?$string_output_adapter@D@__crt_stdio_output@@V?$positional_parameter_base@DV?$string_output_adapter@D@__crt_stdio_output@@@2@@__crt_stdio_output@@AEBA_NI@Z 00000001800cd780 f i libucrtd:output.obj
 0002:0005e7d0       ?has_flag@?$output_processor@DV?$string_output_adapter@D@__crt_stdio_output@@V?$standard_base@DV?$string_output_adapter@D@__crt_stdio_output@@@2@@__crt_stdio_output@@AEBA_NI@Z 00000001800cd7d0 f i libucrtd:output.obj
 0002:0005e820       ?has_flag@?$output_processor@_WV?$stream_output_adapter@_W@__crt_stdio_output@@V?$format_validation_base@_WV?$stream_output_adapter@_W@__crt_stdio_output@@@2@@__crt_stdio_output@@AEBA_NI@Z 00000001800cd820 f i libucrtd:output.obj
 0002:0005e870       ?has_flag@?$output_processor@_WV?$stream_output_adapter@_W@__crt_stdio_output@@V?$positional_parameter_base@_WV?$stream_output_adapter@_W@__crt_stdio_output@@@2@@__crt_stdio_output@@AEBA_NI@Z 00000001800cd870 f i libucrtd:output.obj
 0002:0005e8c0       ?has_flag@?$output_processor@_WV?$stream_output_adapter@_W@__crt_stdio_output@@V?$standard_base@_WV?$stream_output_adapter@_W@__crt_stdio_output@@@2@@__crt_stdio_output@@AEBA_NI@Z 00000001800cd8c0 f i libucrtd:output.obj
 0002:0005e910       ?has_flag@?$output_processor@_WV?$string_output_adapter@_W@__crt_stdio_output@@V?$format_validation_base@_WV?$string_output_adapter@_W@__crt_stdio_output@@@2@@__crt_stdio_output@@AEBA_NI@Z 00000001800cd910 f i libucrtd:output.obj
 0002:0005e960       ?has_flag@?$output_processor@_WV?$string_output_adapter@_W@__crt_stdio_output@@V?$positional_parameter_base@_WV?$string_output_adapter@_W@__crt_stdio_output@@@2@@__crt_stdio_output@@AEBA_NI@Z 00000001800cd960 f i libucrtd:output.obj
 0002:0005e9b0       ?has_flag@?$output_processor@_WV?$string_output_adapter@_W@__crt_stdio_output@@V?$standard_base@_WV?$string_output_adapter@_W@__crt_stdio_output@@@2@@__crt_stdio_output@@AEBA_NI@Z 00000001800cd9b0 f i libucrtd:output.obj
 0002:0005ea00       ?is_positional_parameter_reappearance_consistent@?$positional_parameter_base@DV?$stream_output_adapter@D@__crt_stdio_output@@@__crt_stdio_output@@AEAA_NAEBUparameter_data@12@W4parameter_type@12@DW4length_modifier@2@@Z 00000001800cda00 f i libucrtd:output.obj
 0002:0005ecf0       ?is_positional_parameter_reappearance_consistent@?$positional_parameter_base@DV?$string_output_adapter@D@__crt_stdio_output@@@__crt_stdio_output@@AEAA_NAEBUparameter_data@12@W4parameter_type@12@DW4length_modifier@2@@Z 00000001800cdcf0 f i libucrtd:output.obj
 0002:0005efe0       ?is_positional_parameter_reappearance_consistent@?$positional_parameter_base@_WV?$stream_output_adapter@_W@__crt_stdio_output@@@__crt_stdio_output@@AEAA_NAEBUparameter_data@12@W4parameter_type@12@_WW4length_modifier@2@@Z 00000001800cdfe0 f i libucrtd:output.obj
 0002:0005f2d0       ?is_positional_parameter_reappearance_consistent@?$positional_parameter_base@_WV?$string_output_adapter@_W@__crt_stdio_output@@@__crt_stdio_output@@AEAA_NAEBUparameter_data@12@W4parameter_type@12@_WW4length_modifier@2@@Z 00000001800ce2d0 f i libucrtd:output.obj
 0002:0005f5c0       ?is_string_backed@__crt_stdio_stream@@QEBA_NXZ 00000001800ce5c0 f i libucrtd:output.obj
 0002:0005f610       ?maximum_signed_value@__crt_strtox@@YAJK@Z 00000001800ce610 f i libucrtd:output.obj
 0002:0005f620       ?minimum_signed_value@__crt_strtox@@YAJK@Z 00000001800ce620 f i libucrtd:output.obj
 0002:0005f630       ?narrow_null_string@?$output_processor@DV?$stream_output_adapter@D@__crt_stdio_output@@V?$format_validation_base@DV?$stream_output_adapter@D@__crt_stdio_output@@@2@@__crt_stdio_output@@CAPEADXZ 00000001800ce630 f i libucrtd:output.obj
 0002:0005f640       ?narrow_null_string@?$output_processor@DV?$stream_output_adapter@D@__crt_stdio_output@@V?$positional_parameter_base@DV?$stream_output_adapter@D@__crt_stdio_output@@@2@@__crt_stdio_output@@CAPEADXZ 00000001800ce640 f i libucrtd:output.obj
 0002:0005f650       ?narrow_null_string@?$output_processor@DV?$stream_output_adapter@D@__crt_stdio_output@@V?$standard_base@DV?$stream_output_adapter@D@__crt_stdio_output@@@2@@__crt_stdio_output@@CAPEADXZ 00000001800ce650 f i libucrtd:output.obj
 0002:0005f660       ?narrow_null_string@?$output_processor@DV?$string_output_adapter@D@__crt_stdio_output@@V?$format_validation_base@DV?$string_output_adapter@D@__crt_stdio_output@@@2@@__crt_stdio_output@@CAPEADXZ 00000001800ce660 f i libucrtd:output.obj
 0002:0005f670       ?narrow_null_string@?$output_processor@DV?$string_output_adapter@D@__crt_stdio_output@@V?$positional_parameter_base@DV?$string_output_adapter@D@__crt_stdio_output@@@2@@__crt_stdio_output@@CAPEADXZ 00000001800ce670 f i libucrtd:output.obj
 0002:0005f680       ?narrow_null_string@?$output_processor@DV?$string_output_adapter@D@__crt_stdio_output@@V?$standard_base@DV?$string_output_adapter@D@__crt_stdio_output@@@2@@__crt_stdio_output@@CAPEADXZ 00000001800ce680 f i libucrtd:output.obj
 0002:0005f690       ?narrow_null_string@?$output_processor@_WV?$stream_output_adapter@_W@__crt_stdio_output@@V?$format_validation_base@_WV?$stream_output_adapter@_W@__crt_stdio_output@@@2@@__crt_stdio_output@@CAPEADXZ 00000001800ce690 f i libucrtd:output.obj
 0002:0005f6a0       ?narrow_null_string@?$output_processor@_WV?$stream_output_adapter@_W@__crt_stdio_output@@V?$positional_parameter_base@_WV?$stream_output_adapter@_W@__crt_stdio_output@@@2@@__crt_stdio_output@@CAPEADXZ 00000001800ce6a0 f i libucrtd:output.obj
 0002:0005f6b0       ?narrow_null_string@?$output_processor@_WV?$stream_output_adapter@_W@__crt_stdio_output@@V?$standard_base@_WV?$stream_output_adapter@_W@__crt_stdio_output@@@2@@__crt_stdio_output@@CAPEADXZ 00000001800ce6b0 f i libucrtd:output.obj
 0002:0005f6c0       ?narrow_null_string@?$output_processor@_WV?$string_output_adapter@_W@__crt_stdio_output@@V?$format_validation_base@_WV?$string_output_adapter@_W@__crt_stdio_output@@@2@@__crt_stdio_output@@CAPEADXZ 00000001800ce6c0 f i libucrtd:output.obj
 0002:0005f6d0       ?narrow_null_string@?$output_processor@_WV?$string_output_adapter@_W@__crt_stdio_output@@V?$positional_parameter_base@_WV?$string_output_adapter@_W@__crt_stdio_output@@@2@@__crt_stdio_output@@CAPEADXZ 00000001800ce6d0 f i libucrtd:output.obj
 0002:0005f6e0       ?narrow_null_string@?$output_processor@_WV?$string_output_adapter@_W@__crt_stdio_output@@V?$standard_base@_WV?$string_output_adapter@_W@__crt_stdio_output@@@2@@__crt_stdio_output@@CAPEADXZ 00000001800ce6e0 f i libucrtd:output.obj
 0002:0005f6f0       ?parse_digit@__crt_strtox@@YAID@Z 00000001800ce6f0 f i libucrtd:output.obj
 0002:0005f770       ?parse_digit@__crt_strtox@@YAI_W@Z 00000001800ce770 f i libucrtd:output.obj
 0002:0005f7e0       ?parse_int_from_format_string@?$output_processor@DV?$stream_output_adapter@D@__crt_stdio_output@@V?$format_validation_base@DV?$stream_output_adapter@D@__crt_stdio_output@@@2@@__crt_stdio_output@@AEAA_NQEAH@Z 00000001800ce7e0 f i libucrtd:output.obj
 0002:0005f920       ?parse_int_from_format_string@?$output_processor@DV?$stream_output_adapter@D@__crt_stdio_output@@V?$positional_parameter_base@DV?$stream_output_adapter@D@__crt_stdio_output@@@2@@__crt_stdio_output@@AEAA_NQEAH@Z 00000001800ce920 f i libucrtd:output.obj
 0002:0005fa60       ?parse_int_from_format_string@?$output_processor@DV?$stream_output_adapter@D@__crt_stdio_output@@V?$standard_base@DV?$stream_output_adapter@D@__crt_stdio_output@@@2@@__crt_stdio_output@@AEAA_NQEAH@Z 00000001800cea60 f i libucrtd:output.obj
 0002:0005fba0       ?parse_int_from_format_string@?$output_processor@DV?$string_output_adapter@D@__crt_stdio_output@@V?$format_validation_base@DV?$string_output_adapter@D@__crt_stdio_output@@@2@@__crt_stdio_output@@AEAA_NQEAH@Z 00000001800ceba0 f i libucrtd:output.obj
 0002:0005fce0       ?parse_int_from_format_string@?$output_processor@DV?$string_output_adapter@D@__crt_stdio_output@@V?$positional_parameter_base@DV?$string_output_adapter@D@__crt_stdio_output@@@2@@__crt_stdio_output@@AEAA_NQEAH@Z 00000001800cece0 f i libucrtd:output.obj
 0002:0005fe20       ?parse_int_from_format_string@?$output_processor@DV?$string_output_adapter@D@__crt_stdio_output@@V?$standard_base@DV?$string_output_adapter@D@__crt_stdio_output@@@2@@__crt_stdio_output@@AEAA_NQEAH@Z 00000001800cee20 f i libucrtd:output.obj
 0002:0005ff60       ?parse_int_from_format_string@?$output_processor@_WV?$stream_output_adapter@_W@__crt_stdio_output@@V?$format_validation_base@_WV?$stream_output_adapter@_W@__crt_stdio_output@@@2@@__crt_stdio_output@@AEAA_NQEAH@Z 00000001800cef60 f i libucrtd:output.obj
 0002:000600a0       ?parse_int_from_format_string@?$output_processor@_WV?$stream_output_adapter@_W@__crt_stdio_output@@V?$positional_parameter_base@_WV?$stream_output_adapter@_W@__crt_stdio_output@@@2@@__crt_stdio_output@@AEAA_NQEAH@Z 00000001800cf0a0 f i libucrtd:output.obj
 0002:000601e0       ?parse_int_from_format_string@?$output_processor@_WV?$stream_output_adapter@_W@__crt_stdio_output@@V?$standard_base@_WV?$stream_output_adapter@_W@__crt_stdio_output@@@2@@__crt_stdio_output@@AEAA_NQEAH@Z 00000001800cf1e0 f i libucrtd:output.obj
 0002:00060320       ?parse_int_from_format_string@?$output_processor@_WV?$string_output_adapter@_W@__crt_stdio_output@@V?$format_validation_base@_WV?$string_output_adapter@_W@__crt_stdio_output@@@2@@__crt_stdio_output@@AEAA_NQEAH@Z 00000001800cf320 f i libucrtd:output.obj
 0002:00060460       ?parse_int_from_format_string@?$output_processor@_WV?$string_output_adapter@_W@__crt_stdio_output@@V?$positional_parameter_base@_WV?$string_output_adapter@_W@__crt_stdio_output@@@2@@__crt_stdio_output@@AEAA_NQEAH@Z 00000001800cf460 f i libucrtd:output.obj
 0002:000605a0       ?parse_int_from_format_string@?$output_processor@_WV?$string_output_adapter@_W@__crt_stdio_output@@V?$standard_base@_WV?$string_output_adapter@_W@__crt_stdio_output@@@2@@__crt_stdio_output@@AEAA_NQEAH@Z 00000001800cf5a0 f i libucrtd:output.obj
 0002:000606e0       ?process@?$output_processor@DV?$stream_output_adapter@D@__crt_stdio_output@@V?$format_validation_base@DV?$stream_output_adapter@D@__crt_stdio_output@@@2@@__crt_stdio_output@@QEAAHXZ 00000001800cf6e0 f i libucrtd:output.obj
 0002:00060b90       ?process@?$output_processor@DV?$stream_output_adapter@D@__crt_stdio_output@@V?$positional_parameter_base@DV?$stream_output_adapter@D@__crt_stdio_output@@@2@@__crt_stdio_output@@QEAAHXZ 00000001800cfb90 f i libucrtd:output.obj
 0002:00061040       ?process@?$output_processor@DV?$stream_output_adapter@D@__crt_stdio_output@@V?$standard_base@DV?$stream_output_adapter@D@__crt_stdio_output@@@2@@__crt_stdio_output@@QEAAHXZ 00000001800d0040 f i libucrtd:output.obj
 0002:000614f0       ?process@?$output_processor@DV?$string_output_adapter@D@__crt_stdio_output@@V?$format_validation_base@DV?$string_output_adapter@D@__crt_stdio_output@@@2@@__crt_stdio_output@@QEAAHXZ 00000001800d04f0 f i libucrtd:output.obj
 0002:000619a0       ?process@?$output_processor@DV?$string_output_adapter@D@__crt_stdio_output@@V?$positional_parameter_base@DV?$string_output_adapter@D@__crt_stdio_output@@@2@@__crt_stdio_output@@QEAAHXZ 00000001800d09a0 f i libucrtd:output.obj
 0002:00061e50       ?process@?$output_processor@DV?$string_output_adapter@D@__crt_stdio_output@@V?$standard_base@DV?$string_output_adapter@D@__crt_stdio_output@@@2@@__crt_stdio_output@@QEAAHXZ 00000001800d0e50 f i libucrtd:output.obj
 0002:00062300       ?process@?$output_processor@_WV?$stream_output_adapter@_W@__crt_stdio_output@@V?$format_validation_base@_WV?$stream_output_adapter@_W@__crt_stdio_output@@@2@@__crt_stdio_output@@QEAAHXZ 00000001800d1300 f i libucrtd:output.obj
 0002:000627b0       ?process@?$output_processor@_WV?$stream_output_adapter@_W@__crt_stdio_output@@V?$positional_parameter_base@_WV?$stream_output_adapter@_W@__crt_stdio_output@@@2@@__crt_stdio_output@@QEAAHXZ 00000001800d17b0 f i libucrtd:output.obj
 0002:00062c60       ?process@?$output_processor@_WV?$stream_output_adapter@_W@__crt_stdio_output@@V?$standard_base@_WV?$stream_output_adapter@_W@__crt_stdio_output@@@2@@__crt_stdio_output@@QEAAHXZ 00000001800d1c60 f i libucrtd:output.obj
 0002:00063110       ?process@?$output_processor@_WV?$string_output_adapter@_W@__crt_stdio_output@@V?$format_validation_base@_WV?$string_output_adapter@_W@__crt_stdio_output@@@2@@__crt_stdio_output@@QEAAHXZ 00000001800d2110 f i libucrtd:output.obj
 0002:000635c0       ?process@?$output_processor@_WV?$string_output_adapter@_W@__crt_stdio_output@@V?$positional_parameter_base@_WV?$string_output_adapter@_W@__crt_stdio_output@@@2@@__crt_stdio_output@@QEAAHXZ 00000001800d25c0 f i libucrtd:output.obj
 0002:00063a70       ?process@?$output_processor@_WV?$string_output_adapter@_W@__crt_stdio_output@@V?$standard_base@_WV?$string_output_adapter@_W@__crt_stdio_output@@@2@@__crt_stdio_output@@QEAAHXZ 00000001800d2a70 f i libucrtd:output.obj
 0002:00063f20       ?public_stream@__crt_stdio_stream@@QEBAPEAU_iobuf@@XZ 00000001800d2f20 f i libucrtd:output.obj
 0002:00063f40       ?restore_state@?$c_string_character_source@D@__crt_strtox@@QEAA_NQEBD@Z 00000001800d2f40 f i libucrtd:output.obj
 0002:00063f60       ?restore_state@?$c_string_character_source@_W@__crt_strtox@@QEAA_NQEB_W@Z 00000001800d2f60 f i libucrtd:output.obj
 0002:00063f80       ?save_state@?$c_string_character_source@D@__crt_strtox@@QEBAPEBDXZ 00000001800d2f80 f i libucrtd:output.obj
 0002:00063fa0       ?save_state@?$c_string_character_source@_W@__crt_strtox@@QEBAPEB_WXZ 00000001800d2fa0 f i libucrtd:output.obj
 0002:00063fc0       ?set@?$cached@H@__crt_cached_ptd_host@@QEAAHH@Z 00000001800d2fc0 f i libucrtd:output.obj
 0002:00063ff0       ?set_flag@?$output_processor@DV?$stream_output_adapter@D@__crt_stdio_output@@V?$format_validation_base@DV?$stream_output_adapter@D@__crt_stdio_output@@@2@@__crt_stdio_output@@AEAAXI@Z 00000001800d2ff0 f i libucrtd:output.obj
 0002:00064020       ?set_flag@?$output_processor@DV?$stream_output_adapter@D@__crt_stdio_output@@V?$positional_parameter_base@DV?$stream_output_adapter@D@__crt_stdio_output@@@2@@__crt_stdio_output@@AEAAXI@Z 00000001800d3020 f i libucrtd:output.obj
 0002:00064050       ?set_flag@?$output_processor@DV?$stream_output_adapter@D@__crt_stdio_output@@V?$standard_base@DV?$stream_output_adapter@D@__crt_stdio_output@@@2@@__crt_stdio_output@@AEAAXI@Z 00000001800d3050 f i libucrtd:output.obj
 0002:00064080       ?set_flag@?$output_processor@DV?$string_output_adapter@D@__crt_stdio_output@@V?$format_validation_base@DV?$string_output_adapter@D@__crt_stdio_output@@@2@@__crt_stdio_output@@AEAAXI@Z 00000001800d3080 f i libucrtd:output.obj
 0002:000640b0       ?set_flag@?$output_processor@DV?$string_output_adapter@D@__crt_stdio_output@@V?$positional_parameter_base@DV?$string_output_adapter@D@__crt_stdio_output@@@2@@__crt_stdio_output@@AEAAXI@Z 00000001800d30b0 f i libucrtd:output.obj
 0002:000640e0       ?set_flag@?$output_processor@DV?$string_output_adapter@D@__crt_stdio_output@@V?$standard_base@DV?$string_output_adapter@D@__crt_stdio_output@@@2@@__crt_stdio_output@@AEAAXI@Z 00000001800d30e0 f i libucrtd:output.obj
 0002:00064110       ?set_flag@?$output_processor@_WV?$stream_output_adapter@_W@__crt_stdio_output@@V?$format_validation_base@_WV?$stream_output_adapter@_W@__crt_stdio_output@@@2@@__crt_stdio_output@@AEAAXI@Z 00000001800d3110 f i libucrtd:output.obj
 0002:00064140       ?set_flag@?$output_processor@_WV?$stream_output_adapter@_W@__crt_stdio_output@@V?$positional_parameter_base@_WV?$stream_output_adapter@_W@__crt_stdio_output@@@2@@__crt_stdio_output@@AEAAXI@Z 00000001800d3140 f i libucrtd:output.obj
 0002:00064170       ?set_flag@?$output_processor@_WV?$stream_output_adapter@_W@__crt_stdio_output@@V?$standard_base@_WV?$stream_output_adapter@_W@__crt_stdio_output@@@2@@__crt_stdio_output@@AEAAXI@Z 00000001800d3170 f i libucrtd:output.obj
 0002:000641a0       ?set_flag@?$output_processor@_WV?$string_output_adapter@_W@__crt_stdio_output@@V?$format_validation_base@_WV?$string_output_adapter@_W@__crt_stdio_output@@@2@@__crt_stdio_output@@AEAAXI@Z 00000001800d31a0 f i libucrtd:output.obj
 0002:000641d0       ?set_flag@?$output_processor@_WV?$string_output_adapter@_W@__crt_stdio_output@@V?$positional_parameter_base@_WV?$string_output_adapter@_W@__crt_stdio_output@@@2@@__crt_stdio_output@@AEAAXI@Z 00000001800d31d0 f i libucrtd:output.obj
 0002:00064200       ?set_flag@?$output_processor@_WV?$string_output_adapter@_W@__crt_stdio_output@@V?$standard_base@_WV?$string_output_adapter@_W@__crt_stdio_output@@@2@@__crt_stdio_output@@AEAAXI@Z 00000001800d3200 f i libucrtd:output.obj
 0002:00064230       ?should_format@?$positional_parameter_base@DV?$stream_output_adapter@D@__crt_stdio_output@@@__crt_stdio_output@@IEAA_NXZ 00000001800d3230 f i libucrtd:output.obj
 0002:00064280       ?should_format@?$positional_parameter_base@DV?$string_output_adapter@D@__crt_stdio_output@@@__crt_stdio_output@@IEAA_NXZ 00000001800d3280 f i libucrtd:output.obj
 0002:000642d0       ?should_format@?$positional_parameter_base@_WV?$stream_output_adapter@_W@__crt_stdio_output@@@__crt_stdio_output@@IEAA_NXZ 00000001800d32d0 f i libucrtd:output.obj
 0002:00064320       ?should_format@?$positional_parameter_base@_WV?$string_output_adapter@_W@__crt_stdio_output@@@__crt_stdio_output@@IEAA_NXZ 00000001800d3320 f i libucrtd:output.obj
 0002:00064370       ?should_format@?$standard_base@DV?$stream_output_adapter@D@__crt_stdio_output@@@__crt_stdio_output@@IEAA_NXZ 00000001800d3370 f i libucrtd:output.obj
 0002:00064380       ?should_format@?$standard_base@DV?$string_output_adapter@D@__crt_stdio_output@@@__crt_stdio_output@@IEAA_NXZ 00000001800d3380 f i libucrtd:output.obj
 0002:00064390       ?should_format@?$standard_base@_WV?$stream_output_adapter@_W@__crt_stdio_output@@@__crt_stdio_output@@IEAA_NXZ 00000001800d3390 f i libucrtd:output.obj
 0002:000643a0       ?should_format@?$standard_base@_WV?$string_output_adapter@_W@__crt_stdio_output@@@__crt_stdio_output@@IEAA_NXZ 00000001800d33a0 f i libucrtd:output.obj
 0002:000643b0       ?should_skip_normal_state_processing@?$positional_parameter_base@DV?$stream_output_adapter@D@__crt_stdio_output@@@__crt_stdio_output@@IEAA_NXZ 00000001800d33b0 f i libucrtd:output.obj
 0002:00064410       ?should_skip_normal_state_processing@?$positional_parameter_base@DV?$string_output_adapter@D@__crt_stdio_output@@@__crt_stdio_output@@IEAA_NXZ 00000001800d3410 f i libucrtd:output.obj
 0002:00064470       ?should_skip_normal_state_processing@?$positional_parameter_base@_WV?$stream_output_adapter@_W@__crt_stdio_output@@@__crt_stdio_output@@IEAA_NXZ 00000001800d3470 f i libucrtd:output.obj
 0002:000644d0       ?should_skip_normal_state_processing@?$positional_parameter_base@_WV?$string_output_adapter@_W@__crt_stdio_output@@@__crt_stdio_output@@IEAA_NXZ 00000001800d34d0 f i libucrtd:output.obj
 0002:00064530       ?should_skip_normal_state_processing@?$standard_base@DV?$stream_output_adapter@D@__crt_stdio_output@@@__crt_stdio_output@@IEAA_NXZ 00000001800d3530 f i libucrtd:output.obj
 0002:00064540       ?should_skip_normal_state_processing@?$standard_base@DV?$string_output_adapter@D@__crt_stdio_output@@@__crt_stdio_output@@IEAA_NXZ 00000001800d3540 f i libucrtd:output.obj
 0002:00064550       ?should_skip_normal_state_processing@?$standard_base@_WV?$stream_output_adapter@_W@__crt_stdio_output@@@__crt_stdio_output@@IEAA_NXZ 00000001800d3550 f i libucrtd:output.obj
 0002:00064560       ?should_skip_normal_state_processing@?$standard_base@_WV?$string_output_adapter@_W@__crt_stdio_output@@@__crt_stdio_output@@IEAA_NXZ 00000001800d3560 f i libucrtd:output.obj
 0002:00064570       ?should_skip_type_state_output@?$positional_parameter_base@DV?$stream_output_adapter@D@__crt_stdio_output@@@__crt_stdio_output@@IEBA_NXZ 00000001800d3570 f i libucrtd:output.obj
 0002:000645c0       ?should_skip_type_state_output@?$positional_parameter_base@DV?$string_output_adapter@D@__crt_stdio_output@@@__crt_stdio_output@@IEBA_NXZ 00000001800d35c0 f i libucrtd:output.obj
 0002:00064610       ?should_skip_type_state_output@?$positional_parameter_base@_WV?$stream_output_adapter@_W@__crt_stdio_output@@@__crt_stdio_output@@IEBA_NXZ 00000001800d3610 f i libucrtd:output.obj
 0002:00064660       ?should_skip_type_state_output@?$positional_parameter_base@_WV?$string_output_adapter@_W@__crt_stdio_output@@@__crt_stdio_output@@IEBA_NXZ 00000001800d3660 f i libucrtd:output.obj
 0002:000646b0       ?should_skip_type_state_output@?$standard_base@DV?$stream_output_adapter@D@__crt_stdio_output@@@__crt_stdio_output@@IEBA_NXZ 00000001800d36b0 f i libucrtd:output.obj
 0002:000646c0       ?should_skip_type_state_output@?$standard_base@DV?$string_output_adapter@D@__crt_stdio_output@@@__crt_stdio_output@@IEBA_NXZ 00000001800d36c0 f i libucrtd:output.obj
 0002:000646d0       ?should_skip_type_state_output@?$standard_base@_WV?$stream_output_adapter@_W@__crt_stdio_output@@@__crt_stdio_output@@IEBA_NXZ 00000001800d36d0 f i libucrtd:output.obj
 0002:000646e0       ?should_skip_type_state_output@?$standard_base@_WV?$string_output_adapter@_W@__crt_stdio_output@@@__crt_stdio_output@@IEBA_NXZ 00000001800d36e0 f i libucrtd:output.obj
 0002:000646f0       ?state_case_dot@?$output_processor@DV?$stream_output_adapter@D@__crt_stdio_output@@V?$format_validation_base@DV?$stream_output_adapter@D@__crt_stdio_output@@@2@@__crt_stdio_output@@AEAA_NXZ 00000001800d36f0 f i libucrtd:output.obj
 0002:00064710       ?state_case_dot@?$output_processor@DV?$stream_output_adapter@D@__crt_stdio_output@@V?$positional_parameter_base@DV?$stream_output_adapter@D@__crt_stdio_output@@@2@@__crt_stdio_output@@AEAA_NXZ 00000001800d3710 f i libucrtd:output.obj
 0002:00064730       ?state_case_dot@?$output_processor@DV?$stream_output_adapter@D@__crt_stdio_output@@V?$standard_base@DV?$stream_output_adapter@D@__crt_stdio_output@@@2@@__crt_stdio_output@@AEAA_NXZ 00000001800d3730 f i libucrtd:output.obj
 0002:00064750       ?state_case_dot@?$output_processor@DV?$string_output_adapter@D@__crt_stdio_output@@V?$format_validation_base@DV?$string_output_adapter@D@__crt_stdio_output@@@2@@__crt_stdio_output@@AEAA_NXZ 00000001800d3750 f i libucrtd:output.obj
 0002:00064770       ?state_case_dot@?$output_processor@DV?$string_output_adapter@D@__crt_stdio_output@@V?$positional_parameter_base@DV?$string_output_adapter@D@__crt_stdio_output@@@2@@__crt_stdio_output@@AEAA_NXZ 00000001800d3770 f i libucrtd:output.obj
 0002:00064790       ?state_case_dot@?$output_processor@DV?$string_output_adapter@D@__crt_stdio_output@@V?$standard_base@DV?$string_output_adapter@D@__crt_stdio_output@@@2@@__crt_stdio_output@@AEAA_NXZ 00000001800d3790 f i libucrtd:output.obj
 0002:000647b0       ?state_case_dot@?$output_processor@_WV?$stream_output_adapter@_W@__crt_stdio_output@@V?$format_validation_base@_WV?$stream_output_adapter@_W@__crt_stdio_output@@@2@@__crt_stdio_output@@AEAA_NXZ 00000001800d37b0 f i libucrtd:output.obj
 0002:000647d0       ?state_case_dot@?$output_processor@_WV?$stream_output_adapter@_W@__crt_stdio_output@@V?$positional_parameter_base@_WV?$stream_output_adapter@_W@__crt_stdio_output@@@2@@__crt_stdio_output@@AEAA_NXZ 00000001800d37d0 f i libucrtd:output.obj
 0002:000647f0       ?state_case_dot@?$output_processor@_WV?$stream_output_adapter@_W@__crt_stdio_output@@V?$standard_base@_WV?$stream_output_adapter@_W@__crt_stdio_output@@@2@@__crt_stdio_output@@AEAA_NXZ 00000001800d37f0 f i libucrtd:output.obj
 0002:00064810       ?state_case_dot@?$output_processor@_WV?$string_output_adapter@_W@__crt_stdio_output@@V?$format_validation_base@_WV?$string_output_adapter@_W@__crt_stdio_output@@@2@@__crt_stdio_output@@AEAA_NXZ 00000001800d3810 f i libucrtd:output.obj
 0002:00064830       ?state_case_dot@?$output_processor@_WV?$string_output_adapter@_W@__crt_stdio_output@@V?$positional_parameter_base@_WV?$string_output_adapter@_W@__crt_stdio_output@@@2@@__crt_stdio_output@@AEAA_NXZ 00000001800d3830 f i libucrtd:output.obj
 0002:00064850       ?state_case_dot@?$output_processor@_WV?$string_output_adapter@_W@__crt_stdio_output@@V?$standard_base@_WV?$string_output_adapter@_W@__crt_stdio_output@@@2@@__crt_stdio_output@@AEAA_NXZ 00000001800d3850 f i libucrtd:output.obj
 0002:00064870       ?state_case_flag@?$output_processor@DV?$stream_output_adapter@D@__crt_stdio_output@@V?$format_validation_base@DV?$stream_output_adapter@D@__crt_stdio_output@@@2@@__crt_stdio_output@@AEAA_NXZ 00000001800d3870 f i libucrtd:output.obj
 0002:00064930       ?state_case_flag@?$output_processor@DV?$stream_output_adapter@D@__crt_stdio_output@@V?$positional_parameter_base@DV?$stream_output_adapter@D@__crt_stdio_output@@@2@@__crt_stdio_output@@AEAA_NXZ 00000001800d3930 f i libucrtd:output.obj
 0002:000649f0       ?state_case_flag@?$output_processor@DV?$stream_output_adapter@D@__crt_stdio_output@@V?$standard_base@DV?$stream_output_adapter@D@__crt_stdio_output@@@2@@__crt_stdio_output@@AEAA_NXZ 00000001800d39f0 f i libucrtd:output.obj
 0002:00064ab0       ?state_case_flag@?$output_processor@DV?$string_output_adapter@D@__crt_stdio_output@@V?$format_validation_base@DV?$string_output_adapter@D@__crt_stdio_output@@@2@@__crt_stdio_output@@AEAA_NXZ 00000001800d3ab0 f i libucrtd:output.obj
 0002:00064b70       ?state_case_flag@?$output_processor@DV?$string_output_adapter@D@__crt_stdio_output@@V?$positional_parameter_base@DV?$string_output_adapter@D@__crt_stdio_output@@@2@@__crt_stdio_output@@AEAA_NXZ 00000001800d3b70 f i libucrtd:output.obj
 0002:00064c30       ?state_case_flag@?$output_processor@DV?$string_output_adapter@D@__crt_stdio_output@@V?$standard_base@DV?$string_output_adapter@D@__crt_stdio_output@@@2@@__crt_stdio_output@@AEAA_NXZ 00000001800d3c30 f i libucrtd:output.obj
 0002:00064cf0       ?state_case_flag@?$output_processor@_WV?$stream_output_adapter@_W@__crt_stdio_output@@V?$format_validation_base@_WV?$stream_output_adapter@_W@__crt_stdio_output@@@2@@__crt_stdio_output@@AEAA_NXZ 00000001800d3cf0 f i libucrtd:output.obj
 0002:00064db0       ?state_case_flag@?$output_processor@_WV?$stream_output_adapter@_W@__crt_stdio_output@@V?$positional_parameter_base@_WV?$stream_output_adapter@_W@__crt_stdio_output@@@2@@__crt_stdio_output@@AEAA_NXZ 00000001800d3db0 f i libucrtd:output.obj
 0002:00064e70       ?state_case_flag@?$output_processor@_WV?$stream_output_adapter@_W@__crt_stdio_output@@V?$standard_base@_WV?$stream_output_adapter@_W@__crt_stdio_output@@@2@@__crt_stdio_output@@AEAA_NXZ 00000001800d3e70 f i libucrtd:output.obj
 0002:00064f30       ?state_case_flag@?$output_processor@_WV?$string_output_adapter@_W@__crt_stdio_output@@V?$format_validation_base@_WV?$string_output_adapter@_W@__crt_stdio_output@@@2@@__crt_stdio_output@@AEAA_NXZ 00000001800d3f30 f i libucrtd:output.obj
 0002:00064ff0       ?state_case_flag@?$output_processor@_WV?$string_output_adapter@_W@__crt_stdio_output@@V?$positional_parameter_base@_WV?$string_output_adapter@_W@__crt_stdio_output@@@2@@__crt_stdio_output@@AEAA_NXZ 00000001800d3ff0 f i libucrtd:output.obj
 0002:000650b0       ?state_case_flag@?$output_processor@_WV?$string_output_adapter@_W@__crt_stdio_output@@V?$standard_base@_WV?$string_output_adapter@_W@__crt_stdio_output@@@2@@__crt_stdio_output@@AEAA_NXZ 00000001800d40b0 f i libucrtd:output.obj
 0002:00065170       ?state_case_normal@?$output_processor@DV?$stream_output_adapter@D@__crt_stdio_output@@V?$format_validation_base@DV?$stream_output_adapter@D@__crt_stdio_output@@@2@@__crt_stdio_output@@AEAA_NXZ 00000001800d4170 f i libucrtd:output.obj
 0002:000652b0       ?state_case_normal@?$output_processor@DV?$stream_output_adapter@D@__crt_stdio_output@@V?$positional_parameter_base@DV?$stream_output_adapter@D@__crt_stdio_output@@@2@@__crt_stdio_output@@AEAA_NXZ 00000001800d42b0 f i libucrtd:output.obj
 0002:000653f0       ?state_case_normal@?$output_processor@DV?$stream_output_adapter@D@__crt_stdio_output@@V?$standard_base@DV?$stream_output_adapter@D@__crt_stdio_output@@@2@@__crt_stdio_output@@AEAA_NXZ 00000001800d43f0 f i libucrtd:output.obj
 0002:00065530       ?state_case_normal@?$output_processor@DV?$string_output_adapter@D@__crt_stdio_output@@V?$format_validation_base@DV?$string_output_adapter@D@__crt_stdio_output@@@2@@__crt_stdio_output@@AEAA_NXZ 00000001800d4530 f i libucrtd:output.obj
 0002:00065670       ?state_case_normal@?$output_processor@DV?$string_output_adapter@D@__crt_stdio_output@@V?$positional_parameter_base@DV?$string_output_adapter@D@__crt_stdio_output@@@2@@__crt_stdio_output@@AEAA_NXZ 00000001800d4670 f i libucrtd:output.obj
 0002:000657b0       ?state_case_normal@?$output_processor@DV?$string_output_adapter@D@__crt_stdio_output@@V?$standard_base@DV?$string_output_adapter@D@__crt_stdio_output@@@2@@__crt_stdio_output@@AEAA_NXZ 00000001800d47b0 f i libucrtd:output.obj
 0002:000658f0       ?state_case_normal@?$output_processor@_WV?$stream_output_adapter@_W@__crt_stdio_output@@V?$format_validation_base@_WV?$stream_output_adapter@_W@__crt_stdio_output@@@2@@__crt_stdio_output@@AEAA_NXZ 00000001800d48f0 f i libucrtd:output.obj
 0002:00065a30       ?state_case_normal@?$output_processor@_WV?$stream_output_adapter@_W@__crt_stdio_output@@V?$positional_parameter_base@_WV?$stream_output_adapter@_W@__crt_stdio_output@@@2@@__crt_stdio_output@@AEAA_NXZ 00000001800d4a30 f i libucrtd:output.obj
 0002:00065b70       ?state_case_normal@?$output_processor@_WV?$stream_output_adapter@_W@__crt_stdio_output@@V?$standard_base@_WV?$stream_output_adapter@_W@__crt_stdio_output@@@2@@__crt_stdio_output@@AEAA_NXZ 00000001800d4b70 f i libucrtd:output.obj
 0002:00065cb0       ?state_case_normal@?$output_processor@_WV?$string_output_adapter@_W@__crt_stdio_output@@V?$format_validation_base@_WV?$string_output_adapter@_W@__crt_stdio_output@@@2@@__crt_stdio_output@@AEAA_NXZ 00000001800d4cb0 f i libucrtd:output.obj
 0002:00065df0       ?state_case_normal@?$output_processor@_WV?$string_output_adapter@_W@__crt_stdio_output@@V?$positional_parameter_base@_WV?$string_output_adapter@_W@__crt_stdio_output@@@2@@__crt_stdio_output@@AEAA_NXZ 00000001800d4df0 f i libucrtd:output.obj
 0002:00065f30       ?state_case_normal@?$output_processor@_WV?$string_output_adapter@_W@__crt_stdio_output@@V?$standard_base@_WV?$string_output_adapter@_W@__crt_stdio_output@@@2@@__crt_stdio_output@@AEAA_NXZ 00000001800d4f30 f i libucrtd:output.obj
 0002:00066070       ?state_case_normal_common@?$output_processor@DV?$stream_output_adapter@D@__crt_stdio_output@@V?$format_validation_base@DV?$stream_output_adapter@D@__crt_stdio_output@@@2@@__crt_stdio_output@@AEAA_NXZ 00000001800d5070 f i libucrtd:output.obj
 0002:000660f0       ?state_case_normal_common@?$output_processor@DV?$stream_output_adapter@D@__crt_stdio_output@@V?$positional_parameter_base@DV?$stream_output_adapter@D@__crt_stdio_output@@@2@@__crt_stdio_output@@AEAA_NXZ 00000001800d50f0 f i libucrtd:output.obj
 0002:00066170       ?state_case_normal_common@?$output_processor@DV?$stream_output_adapter@D@__crt_stdio_output@@V?$standard_base@DV?$stream_output_adapter@D@__crt_stdio_output@@@2@@__crt_stdio_output@@AEAA_NXZ 00000001800d5170 f i libucrtd:output.obj
 0002:000661f0       ?state_case_normal_common@?$output_processor@DV?$string_output_adapter@D@__crt_stdio_output@@V?$format_validation_base@DV?$string_output_adapter@D@__crt_stdio_output@@@2@@__crt_stdio_output@@AEAA_NXZ 00000001800d51f0 f i libucrtd:output.obj
 0002:00066270       ?state_case_normal_common@?$output_processor@DV?$string_output_adapter@D@__crt_stdio_output@@V?$positional_parameter_base@DV?$string_output_adapter@D@__crt_stdio_output@@@2@@__crt_stdio_output@@AEAA_NXZ 00000001800d5270 f i libucrtd:output.obj
 0002:000662f0       ?state_case_normal_common@?$output_processor@DV?$string_output_adapter@D@__crt_stdio_output@@V?$standard_base@DV?$string_output_adapter@D@__crt_stdio_output@@@2@@__crt_stdio_output@@AEAA_NXZ 00000001800d52f0 f i libucrtd:output.obj
 0002:00066370       ?state_case_normal_common@?$output_processor@_WV?$stream_output_adapter@_W@__crt_stdio_output@@V?$format_validation_base@_WV?$stream_output_adapter@_W@__crt_stdio_output@@@2@@__crt_stdio_output@@AEAA_NXZ 00000001800d5370 f i libucrtd:output.obj
 0002:000663f0       ?state_case_normal_common@?$output_processor@_WV?$stream_output_adapter@_W@__crt_stdio_output@@V?$positional_parameter_base@_WV?$stream_output_adapter@_W@__crt_stdio_output@@@2@@__crt_stdio_output@@AEAA_NXZ 00000001800d53f0 f i libucrtd:output.obj
 0002:00066470       ?state_case_normal_common@?$output_processor@_WV?$stream_output_adapter@_W@__crt_stdio_output@@V?$standard_base@_WV?$stream_output_adapter@_W@__crt_stdio_output@@@2@@__crt_stdio_output@@AEAA_NXZ 00000001800d5470 f i libucrtd:output.obj
 0002:000664f0       ?state_case_normal_common@?$output_processor@_WV?$string_output_adapter@_W@__crt_stdio_output@@V?$format_validation_base@_WV?$string_output_adapter@_W@__crt_stdio_output@@@2@@__crt_stdio_output@@AEAA_NXZ 00000001800d54f0 f i libucrtd:output.obj
 0002:00066570       ?state_case_normal_common@?$output_processor@_WV?$string_output_adapter@_W@__crt_stdio_output@@V?$positional_parameter_base@_WV?$string_output_adapter@_W@__crt_stdio_output@@@2@@__crt_stdio_output@@AEAA_NXZ 00000001800d5570 f i libucrtd:output.obj
 0002:000665f0       ?state_case_normal_common@?$output_processor@_WV?$string_output_adapter@_W@__crt_stdio_output@@V?$standard_base@_WV?$string_output_adapter@_W@__crt_stdio_output@@@2@@__crt_stdio_output@@AEAA_NXZ 00000001800d55f0 f i libucrtd:output.obj
 0002:00066670       ?state_case_normal_tchar@?$output_processor@DV?$stream_output_adapter@D@__crt_stdio_output@@V?$format_validation_base@DV?$stream_output_adapter@D@__crt_stdio_output@@@2@@__crt_stdio_output@@AEAA_ND@Z 00000001800d5670 f i libucrtd:output.obj
 0002:00066860       ?state_case_normal_tchar@?$output_processor@DV?$stream_output_adapter@D@__crt_stdio_output@@V?$positional_parameter_base@DV?$stream_output_adapter@D@__crt_stdio_output@@@2@@__crt_stdio_output@@AEAA_ND@Z 00000001800d5860 f i libucrtd:output.obj
 0002:00066a50       ?state_case_normal_tchar@?$output_processor@DV?$stream_output_adapter@D@__crt_stdio_output@@V?$standard_base@DV?$stream_output_adapter@D@__crt_stdio_output@@@2@@__crt_stdio_output@@AEAA_ND@Z 00000001800d5a50 f i libucrtd:output.obj
 0002:00066c40       ?state_case_normal_tchar@?$output_processor@DV?$string_output_adapter@D@__crt_stdio_output@@V?$format_validation_base@DV?$string_output_adapter@D@__crt_stdio_output@@@2@@__crt_stdio_output@@AEAA_ND@Z 00000001800d5c40 f i libucrtd:output.obj
 0002:00066e30       ?state_case_normal_tchar@?$output_processor@DV?$string_output_adapter@D@__crt_stdio_output@@V?$positional_parameter_base@DV?$string_output_adapter@D@__crt_stdio_output@@@2@@__crt_stdio_output@@AEAA_ND@Z 00000001800d5e30 f i libucrtd:output.obj
 0002:00067020       ?state_case_normal_tchar@?$output_processor@DV?$string_output_adapter@D@__crt_stdio_output@@V?$standard_base@DV?$string_output_adapter@D@__crt_stdio_output@@@2@@__crt_stdio_output@@AEAA_ND@Z 00000001800d6020 f i libucrtd:output.obj
 0002:00067210       ?state_case_normal_tchar@?$output_processor@_WV?$stream_output_adapter@_W@__crt_stdio_output@@V?$format_validation_base@_WV?$stream_output_adapter@_W@__crt_stdio_output@@@2@@__crt_stdio_output@@AEAA_N_W@Z 00000001800d6210 f i libucrtd:output.obj
 0002:00067230       ?state_case_normal_tchar@?$output_processor@_WV?$stream_output_adapter@_W@__crt_stdio_output@@V?$positional_parameter_base@_WV?$stream_output_adapter@_W@__crt_stdio_output@@@2@@__crt_stdio_output@@AEAA_N_W@Z 00000001800d6230 f i libucrtd:output.obj
 0002:00067250       ?state_case_normal_tchar@?$output_processor@_WV?$stream_output_adapter@_W@__crt_stdio_output@@V?$standard_base@_WV?$stream_output_adapter@_W@__crt_stdio_output@@@2@@__crt_stdio_output@@AEAA_N_W@Z 00000001800d6250 f i libucrtd:output.obj
 0002:00067270       ?state_case_normal_tchar@?$output_processor@_WV?$string_output_adapter@_W@__crt_stdio_output@@V?$format_validation_base@_WV?$string_output_adapter@_W@__crt_stdio_output@@@2@@__crt_stdio_output@@AEAA_N_W@Z 00000001800d6270 f i libucrtd:output.obj
 0002:00067290       ?state_case_normal_tchar@?$output_processor@_WV?$string_output_adapter@_W@__crt_stdio_output@@V?$positional_parameter_base@_WV?$string_output_adapter@_W@__crt_stdio_output@@@2@@__crt_stdio_output@@AEAA_N_W@Z 00000001800d6290 f i libucrtd:output.obj
 0002:000672b0       ?state_case_normal_tchar@?$output_processor@_WV?$string_output_adapter@_W@__crt_stdio_output@@V?$standard_base@_WV?$string_output_adapter@_W@__crt_stdio_output@@@2@@__crt_stdio_output@@AEAA_N_W@Z 00000001800d62b0 f i libucrtd:output.obj
 0002:000672d0       ?state_case_percent@?$output_processor@DV?$stream_output_adapter@D@__crt_stdio_output@@V?$format_validation_base@DV?$stream_output_adapter@D@__crt_stdio_output@@@2@@__crt_stdio_output@@AEAA_NXZ 00000001800d62d0 f i libucrtd:output.obj
 0002:00067330       ?state_case_percent@?$output_processor@DV?$stream_output_adapter@D@__crt_stdio_output@@V?$positional_parameter_base@DV?$stream_output_adapter@D@__crt_stdio_output@@@2@@__crt_stdio_output@@AEAA_NXZ 00000001800d6330 f i libucrtd:output.obj
 0002:00067390       ?state_case_percent@?$output_processor@DV?$stream_output_adapter@D@__crt_stdio_output@@V?$standard_base@DV?$stream_output_adapter@D@__crt_stdio_output@@@2@@__crt_stdio_output@@AEAA_NXZ 00000001800d6390 f i libucrtd:output.obj
 0002:000673f0       ?state_case_percent@?$output_processor@DV?$string_output_adapter@D@__crt_stdio_output@@V?$format_validation_base@DV?$string_output_adapter@D@__crt_stdio_output@@@2@@__crt_stdio_output@@AEAA_NXZ 00000001800d63f0 f i libucrtd:output.obj
 0002:00067450       ?state_case_percent@?$output_processor@DV?$string_output_adapter@D@__crt_stdio_output@@V?$positional_parameter_base@DV?$string_output_adapter@D@__crt_stdio_output@@@2@@__crt_stdio_output@@AEAA_NXZ 00000001800d6450 f i libucrtd:output.obj
 0002:000674b0       ?state_case_percent@?$output_processor@DV?$string_output_adapter@D@__crt_stdio_output@@V?$standard_base@DV?$string_output_adapter@D@__crt_stdio_output@@@2@@__crt_stdio_output@@AEAA_NXZ 00000001800d64b0 f i libucrtd:output.obj
 0002:00067510       ?state_case_percent@?$output_processor@_WV?$stream_output_adapter@_W@__crt_stdio_output@@V?$format_validation_base@_WV?$stream_output_adapter@_W@__crt_stdio_output@@@2@@__crt_stdio_output@@AEAA_NXZ 00000001800d6510 f i libucrtd:output.obj
 0002:00067570       ?state_case_percent@?$output_processor@_WV?$stream_output_adapter@_W@__crt_stdio_output@@V?$positional_parameter_base@_WV?$stream_output_adapter@_W@__crt_stdio_output@@@2@@__crt_stdio_output@@AEAA_NXZ 00000001800d6570 f i libucrtd:output.obj
 0002:000675d0       ?state_case_percent@?$output_processor@_WV?$stream_output_adapter@_W@__crt_stdio_output@@V?$standard_base@_WV?$stream_output_adapter@_W@__crt_stdio_output@@@2@@__crt_stdio_output@@AEAA_NXZ 00000001800d65d0 f i libucrtd:output.obj
 0002:00067630       ?state_case_percent@?$output_processor@_WV?$string_output_adapter@_W@__crt_stdio_output@@V?$format_validation_base@_WV?$string_output_adapter@_W@__crt_stdio_output@@@2@@__crt_stdio_output@@AEAA_NXZ 00000001800d6630 f i libucrtd:output.obj
 0002:00067690       ?state_case_percent@?$output_processor@_WV?$string_output_adapter@_W@__crt_stdio_output@@V?$positional_parameter_base@_WV?$string_output_adapter@_W@__crt_stdio_output@@@2@@__crt_stdio_output@@AEAA_NXZ 00000001800d6690 f i libucrtd:output.obj
 0002:000676f0       ?state_case_percent@?$output_processor@_WV?$string_output_adapter@_W@__crt_stdio_output@@V?$standard_base@_WV?$string_output_adapter@_W@__crt_stdio_output@@@2@@__crt_stdio_output@@AEAA_NXZ 00000001800d66f0 f i libucrtd:output.obj
 0002:00067750       ?state_case_precision@?$output_processor@DV?$stream_output_adapter@D@__crt_stdio_output@@V?$format_validation_base@DV?$stream_output_adapter@D@__crt_stdio_output@@@2@@__crt_stdio_output@@AEAA_NXZ 00000001800d6750 f i libucrtd:output.obj
 0002:000677f0       ?state_case_precision@?$output_processor@DV?$stream_output_adapter@D@__crt_stdio_output@@V?$positional_parameter_base@DV?$stream_output_adapter@D@__crt_stdio_output@@@2@@__crt_stdio_output@@AEAA_NXZ 00000001800d67f0 f i libucrtd:output.obj
 0002:00067890       ?state_case_precision@?$output_processor@DV?$stream_output_adapter@D@__crt_stdio_output@@V?$standard_base@DV?$stream_output_adapter@D@__crt_stdio_output@@@2@@__crt_stdio_output@@AEAA_NXZ 00000001800d6890 f i libucrtd:output.obj
 0002:00067930       ?state_case_precision@?$output_processor@DV?$string_output_adapter@D@__crt_stdio_output@@V?$format_validation_base@DV?$string_output_adapter@D@__crt_stdio_output@@@2@@__crt_stdio_output@@AEAA_NXZ 00000001800d6930 f i libucrtd:output.obj
 0002:000679d0       ?state_case_precision@?$output_processor@DV?$string_output_adapter@D@__crt_stdio_output@@V?$positional_parameter_base@DV?$string_output_adapter@D@__crt_stdio_output@@@2@@__crt_stdio_output@@AEAA_NXZ 00000001800d69d0 f i libucrtd:output.obj
 0002:00067a70       ?state_case_precision@?$output_processor@DV?$string_output_adapter@D@__crt_stdio_output@@V?$standard_base@DV?$string_output_adapter@D@__crt_stdio_output@@@2@@__crt_stdio_output@@AEAA_NXZ 00000001800d6a70 f i libucrtd:output.obj
 0002:00067b10       ?state_case_precision@?$output_processor@_WV?$stream_output_adapter@_W@__crt_stdio_output@@V?$format_validation_base@_WV?$stream_output_adapter@_W@__crt_stdio_output@@@2@@__crt_stdio_output@@AEAA_NXZ 00000001800d6b10 f i libucrtd:output.obj
 0002:00067bb0       ?state_case_precision@?$output_processor@_WV?$stream_output_adapter@_W@__crt_stdio_output@@V?$positional_parameter_base@_WV?$stream_output_adapter@_W@__crt_stdio_output@@@2@@__crt_stdio_output@@AEAA_NXZ 00000001800d6bb0 f i libucrtd:output.obj
 0002:00067c50       ?state_case_precision@?$output_processor@_WV?$stream_output_adapter@_W@__crt_stdio_output@@V?$standard_base@_WV?$stream_output_adapter@_W@__crt_stdio_output@@@2@@__crt_stdio_output@@AEAA_NXZ 00000001800d6c50 f i libucrtd:output.obj
 0002:00067cf0       ?state_case_precision@?$output_processor@_WV?$string_output_adapter@_W@__crt_stdio_output@@V?$format_validation_base@_WV?$string_output_adapter@_W@__crt_stdio_output@@@2@@__crt_stdio_output@@AEAA_NXZ 00000001800d6cf0 f i libucrtd:output.obj
 0002:00067d90       ?state_case_precision@?$output_processor@_WV?$string_output_adapter@_W@__crt_stdio_output@@V?$positional_parameter_base@_WV?$string_output_adapter@_W@__crt_stdio_output@@@2@@__crt_stdio_output@@AEAA_NXZ 00000001800d6d90 f i libucrtd:output.obj
 0002:00067e30       ?state_case_precision@?$output_processor@_WV?$string_output_adapter@_W@__crt_stdio_output@@V?$standard_base@_WV?$string_output_adapter@_W@__crt_stdio_output@@@2@@__crt_stdio_output@@AEAA_NXZ 00000001800d6e30 f i libucrtd:output.obj
 0002:00067ed0       ?state_case_size@?$output_processor@DV?$stream_output_adapter@D@__crt_stdio_output@@V?$format_validation_base@DV?$stream_output_adapter@D@__crt_stdio_output@@@2@@__crt_stdio_output@@AEAA_NXZ 00000001800d6ed0 f i libucrtd:output.obj
 0002:000684c0       ?state_case_size@?$output_processor@DV?$stream_output_adapter@D@__crt_stdio_output@@V?$positional_parameter_base@DV?$stream_output_adapter@D@__crt_stdio_output@@@2@@__crt_stdio_output@@AEAA_NXZ 00000001800d74c0 f i libucrtd:output.obj
 0002:00068ab0       ?state_case_size@?$output_processor@DV?$stream_output_adapter@D@__crt_stdio_output@@V?$standard_base@DV?$stream_output_adapter@D@__crt_stdio_output@@@2@@__crt_stdio_output@@AEAA_NXZ 00000001800d7ab0 f i libucrtd:output.obj
 0002:000690a0       ?state_case_size@?$output_processor@DV?$string_output_adapter@D@__crt_stdio_output@@V?$format_validation_base@DV?$string_output_adapter@D@__crt_stdio_output@@@2@@__crt_stdio_output@@AEAA_NXZ 00000001800d80a0 f i libucrtd:output.obj
 0002:00069690       ?state_case_size@?$output_processor@DV?$string_output_adapter@D@__crt_stdio_output@@V?$positional_parameter_base@DV?$string_output_adapter@D@__crt_stdio_output@@@2@@__crt_stdio_output@@AEAA_NXZ 00000001800d8690 f i libucrtd:output.obj
 0002:00069c80       ?state_case_size@?$output_processor@DV?$string_output_adapter@D@__crt_stdio_output@@V?$standard_base@DV?$string_output_adapter@D@__crt_stdio_output@@@2@@__crt_stdio_output@@AEAA_NXZ 00000001800d8c80 f i libucrtd:output.obj
 0002:0006a270       ?state_case_size@?$output_processor@_WV?$stream_output_adapter@_W@__crt_stdio_output@@V?$format_validation_base@_WV?$stream_output_adapter@_W@__crt_stdio_output@@@2@@__crt_stdio_output@@AEAA_NXZ 00000001800d9270 f i libucrtd:output.obj
 0002:0006a860       ?state_case_size@?$output_processor@_WV?$stream_output_adapter@_W@__crt_stdio_output@@V?$positional_parameter_base@_WV?$stream_output_adapter@_W@__crt_stdio_output@@@2@@__crt_stdio_output@@AEAA_NXZ 00000001800d9860 f i libucrtd:output.obj
 0002:0006ae50       ?state_case_size@?$output_processor@_WV?$stream_output_adapter@_W@__crt_stdio_output@@V?$standard_base@_WV?$stream_output_adapter@_W@__crt_stdio_output@@@2@@__crt_stdio_output@@AEAA_NXZ 00000001800d9e50 f i libucrtd:output.obj
 0002:0006b440       ?state_case_size@?$output_processor@_WV?$string_output_adapter@_W@__crt_stdio_output@@V?$format_validation_base@_WV?$string_output_adapter@_W@__crt_stdio_output@@@2@@__crt_stdio_output@@AEAA_NXZ 00000001800da440 f i libucrtd:output.obj
 0002:0006ba30       ?state_case_size@?$output_processor@_WV?$string_output_adapter@_W@__crt_stdio_output@@V?$positional_parameter_base@_WV?$string_output_adapter@_W@__crt_stdio_output@@@2@@__crt_stdio_output@@AEAA_NXZ 00000001800daa30 f i libucrtd:output.obj
 0002:0006c020       ?state_case_size@?$output_processor@_WV?$string_output_adapter@_W@__crt_stdio_output@@V?$standard_base@_WV?$string_output_adapter@_W@__crt_stdio_output@@@2@@__crt_stdio_output@@AEAA_NXZ 00000001800db020 f i libucrtd:output.obj
 0002:0006c610       ?state_case_type@?$output_processor@DV?$stream_output_adapter@D@__crt_stdio_output@@V?$format_validation_base@DV?$stream_output_adapter@D@__crt_stdio_output@@@2@@__crt_stdio_output@@AEAA_NXZ 00000001800db610 f i libucrtd:output.obj
 0002:0006cc00       ?state_case_type@?$output_processor@DV?$stream_output_adapter@D@__crt_stdio_output@@V?$positional_parameter_base@DV?$stream_output_adapter@D@__crt_stdio_output@@@2@@__crt_stdio_output@@AEAA_NXZ 00000001800dbc00 f i libucrtd:output.obj
 0002:0006d1f0       ?state_case_type@?$output_processor@DV?$stream_output_adapter@D@__crt_stdio_output@@V?$standard_base@DV?$stream_output_adapter@D@__crt_stdio_output@@@2@@__crt_stdio_output@@AEAA_NXZ 00000001800dc1f0 f i libucrtd:output.obj
 0002:0006d7e0       ?state_case_type@?$output_processor@DV?$string_output_adapter@D@__crt_stdio_output@@V?$format_validation_base@DV?$string_output_adapter@D@__crt_stdio_output@@@2@@__crt_stdio_output@@AEAA_NXZ 00000001800dc7e0 f i libucrtd:output.obj
 0002:0006ddd0       ?state_case_type@?$output_processor@DV?$string_output_adapter@D@__crt_stdio_output@@V?$positional_parameter_base@DV?$string_output_adapter@D@__crt_stdio_output@@@2@@__crt_stdio_output@@AEAA_NXZ 00000001800dcdd0 f i libucrtd:output.obj
 0002:0006e3c0       ?state_case_type@?$output_processor@DV?$string_output_adapter@D@__crt_stdio_output@@V?$standard_base@DV?$string_output_adapter@D@__crt_stdio_output@@@2@@__crt_stdio_output@@AEAA_NXZ 00000001800dd3c0 f i libucrtd:output.obj
 0002:0006e9b0       ?state_case_type@?$output_processor@_WV?$stream_output_adapter@_W@__crt_stdio_output@@V?$format_validation_base@_WV?$stream_output_adapter@_W@__crt_stdio_output@@@2@@__crt_stdio_output@@AEAA_NXZ 00000001800dd9b0 f i libucrtd:output.obj
 0002:0006f0a0       ?state_case_type@?$output_processor@_WV?$stream_output_adapter@_W@__crt_stdio_output@@V?$positional_parameter_base@_WV?$stream_output_adapter@_W@__crt_stdio_output@@@2@@__crt_stdio_output@@AEAA_NXZ 00000001800de0a0 f i libucrtd:output.obj
 0002:0006f790       ?state_case_type@?$output_processor@_WV?$stream_output_adapter@_W@__crt_stdio_output@@V?$standard_base@_WV?$stream_output_adapter@_W@__crt_stdio_output@@@2@@__crt_stdio_output@@AEAA_NXZ 00000001800de790 f i libucrtd:output.obj
 0002:0006fe80       ?state_case_type@?$output_processor@_WV?$string_output_adapter@_W@__crt_stdio_output@@V?$format_validation_base@_WV?$string_output_adapter@_W@__crt_stdio_output@@@2@@__crt_stdio_output@@AEAA_NXZ 00000001800dee80 f i libucrtd:output.obj
 0002:00070570       ?state_case_type@?$output_processor@_WV?$string_output_adapter@_W@__crt_stdio_output@@V?$positional_parameter_base@_WV?$string_output_adapter@_W@__crt_stdio_output@@@2@@__crt_stdio_output@@AEAA_NXZ 00000001800df570 f i libucrtd:output.obj
 0002:00070c60       ?state_case_type@?$output_processor@_WV?$string_output_adapter@_W@__crt_stdio_output@@V?$standard_base@_WV?$string_output_adapter@_W@__crt_stdio_output@@@2@@__crt_stdio_output@@AEAA_NXZ 00000001800dfc60 f i libucrtd:output.obj
 0002:00071350       ?state_case_width@?$output_processor@DV?$stream_output_adapter@D@__crt_stdio_output@@V?$format_validation_base@DV?$stream_output_adapter@D@__crt_stdio_output@@@2@@__crt_stdio_output@@AEAA_NXZ 00000001800e0350 f i libucrtd:output.obj
 0002:00071400       ?state_case_width@?$output_processor@DV?$stream_output_adapter@D@__crt_stdio_output@@V?$positional_parameter_base@DV?$stream_output_adapter@D@__crt_stdio_output@@@2@@__crt_stdio_output@@AEAA_NXZ 00000001800e0400 f i libucrtd:output.obj
 0002:000714b0       ?state_case_width@?$output_processor@DV?$stream_output_adapter@D@__crt_stdio_output@@V?$standard_base@DV?$stream_output_adapter@D@__crt_stdio_output@@@2@@__crt_stdio_output@@AEAA_NXZ 00000001800e04b0 f i libucrtd:output.obj
 0002:00071560       ?state_case_width@?$output_processor@DV?$string_output_adapter@D@__crt_stdio_output@@V?$format_validation_base@DV?$string_output_adapter@D@__crt_stdio_output@@@2@@__crt_stdio_output@@AEAA_NXZ 00000001800e0560 f i libucrtd:output.obj
 0002:00071610       ?state_case_width@?$output_processor@DV?$string_output_adapter@D@__crt_stdio_output@@V?$positional_parameter_base@DV?$string_output_adapter@D@__crt_stdio_output@@@2@@__crt_stdio_output@@AEAA_NXZ 00000001800e0610 f i libucrtd:output.obj
 0002:000716c0       ?state_case_width@?$output_processor@DV?$string_output_adapter@D@__crt_stdio_output@@V?$standard_base@DV?$string_output_adapter@D@__crt_stdio_output@@@2@@__crt_stdio_output@@AEAA_NXZ 00000001800e06c0 f i libucrtd:output.obj
 0002:00071770       ?state_case_width@?$output_processor@_WV?$stream_output_adapter@_W@__crt_stdio_output@@V?$format_validation_base@_WV?$stream_output_adapter@_W@__crt_stdio_output@@@2@@__crt_stdio_output@@AEAA_NXZ 00000001800e0770 f i libucrtd:output.obj
 0002:00071820       ?state_case_width@?$output_processor@_WV?$stream_output_adapter@_W@__crt_stdio_output@@V?$positional_parameter_base@_WV?$stream_output_adapter@_W@__crt_stdio_output@@@2@@__crt_stdio_output@@AEAA_NXZ 00000001800e0820 f i libucrtd:output.obj
 0002:000718d0       ?state_case_width@?$output_processor@_WV?$stream_output_adapter@_W@__crt_stdio_output@@V?$standard_base@_WV?$stream_output_adapter@_W@__crt_stdio_output@@@2@@__crt_stdio_output@@AEAA_NXZ 00000001800e08d0 f i libucrtd:output.obj
 0002:00071980       ?state_case_width@?$output_processor@_WV?$string_output_adapter@_W@__crt_stdio_output@@V?$format_validation_base@_WV?$string_output_adapter@_W@__crt_stdio_output@@@2@@__crt_stdio_output@@AEAA_NXZ 00000001800e0980 f i libucrtd:output.obj
 0002:00071a30       ?state_case_width@?$output_processor@_WV?$string_output_adapter@_W@__crt_stdio_output@@V?$positional_parameter_base@_WV?$string_output_adapter@_W@__crt_stdio_output@@@2@@__crt_stdio_output@@AEAA_NXZ 00000001800e0a30 f i libucrtd:output.obj
 0002:00071ae0       ?state_case_width@?$output_processor@_WV?$string_output_adapter@_W@__crt_stdio_output@@V?$standard_base@_WV?$string_output_adapter@_W@__crt_stdio_output@@@2@@__crt_stdio_output@@AEAA_NXZ 00000001800e0ae0 f i libucrtd:output.obj
 0002:00071b90       ?state_count@?$format_validation_base@DV?$stream_output_adapter@D@__crt_stdio_output@@@__crt_stdio_output@@KAIXZ 00000001800e0b90 f i libucrtd:output.obj
 0002:00071ba0       ?state_count@?$format_validation_base@DV?$string_output_adapter@D@__crt_stdio_output@@@__crt_stdio_output@@KAIXZ 00000001800e0ba0 f i libucrtd:output.obj
 0002:00071bb0       ?state_count@?$format_validation_base@_WV?$stream_output_adapter@_W@__crt_stdio_output@@@__crt_stdio_output@@KAIXZ 00000001800e0bb0 f i libucrtd:output.obj
 0002:00071bc0       ?state_count@?$format_validation_base@_WV?$string_output_adapter@_W@__crt_stdio_output@@@__crt_stdio_output@@KAIXZ 00000001800e0bc0 f i libucrtd:output.obj
 0002:00071bd0       ?state_count@?$standard_base@DV?$stream_output_adapter@D@__crt_stdio_output@@@__crt_stdio_output@@KAIXZ 00000001800e0bd0 f i libucrtd:output.obj
 0002:00071be0       ?state_count@?$standard_base@DV?$string_output_adapter@D@__crt_stdio_output@@@__crt_stdio_output@@KAIXZ 00000001800e0be0 f i libucrtd:output.obj
 0002:00071bf0       ?state_count@?$standard_base@_WV?$stream_output_adapter@_W@__crt_stdio_output@@@__crt_stdio_output@@KAIXZ 00000001800e0bf0 f i libucrtd:output.obj
 0002:00071c00       ?state_count@?$standard_base@_WV?$string_output_adapter@_W@__crt_stdio_output@@@__crt_stdio_output@@KAIXZ 00000001800e0c00 f i libucrtd:output.obj
 0002:00071c10       ?state_transition_table@?$format_validation_base@DV?$stream_output_adapter@D@__crt_stdio_output@@@__crt_stdio_output@@KAAEBV?$spectre_mitigated_lookup_table@Ustate_transition_pair@__crt_stdio_output@@$0IA@@2@XZ 00000001800e0c10 f i libucrtd:output.obj
 0002:00071c20       ?state_transition_table@?$format_validation_base@DV?$string_output_adapter@D@__crt_stdio_output@@@__crt_stdio_output@@KAAEBV?$spectre_mitigated_lookup_table@Ustate_transition_pair@__crt_stdio_output@@$0IA@@2@XZ 00000001800e0c20 f i libucrtd:output.obj
 0002:00071c30       ?state_transition_table@?$format_validation_base@_WV?$stream_output_adapter@_W@__crt_stdio_output@@@__crt_stdio_output@@KAAEBV?$spectre_mitigated_lookup_table@Ustate_transition_pair@__crt_stdio_output@@$0IA@@2@XZ 00000001800e0c30 f i libucrtd:output.obj
 0002:00071c40       ?state_transition_table@?$format_validation_base@_WV?$string_output_adapter@_W@__crt_stdio_output@@@__crt_stdio_output@@KAAEBV?$spectre_mitigated_lookup_table@Ustate_transition_pair@__crt_stdio_output@@$0IA@@2@XZ 00000001800e0c40 f i libucrtd:output.obj
 0002:00071c50       ?state_transition_table@?$standard_base@DV?$stream_output_adapter@D@__crt_stdio_output@@@__crt_stdio_output@@KAAEBV?$spectre_mitigated_lookup_table@Ustate_transition_pair@__crt_stdio_output@@$0IA@@2@XZ 00000001800e0c50 f i libucrtd:output.obj
 0002:00071c60       ?state_transition_table@?$standard_base@DV?$string_output_adapter@D@__crt_stdio_output@@@__crt_stdio_output@@KAAEBV?$spectre_mitigated_lookup_table@Ustate_transition_pair@__crt_stdio_output@@$0IA@@2@XZ 00000001800e0c60 f i libucrtd:output.obj
 0002:00071c70       ?state_transition_table@?$standard_base@_WV?$stream_output_adapter@_W@__crt_stdio_output@@@__crt_stdio_output@@KAAEBV?$spectre_mitigated_lookup_table@Ustate_transition_pair@__crt_stdio_output@@$0IA@@2@XZ 00000001800e0c70 f i libucrtd:output.obj
 0002:00071c80       ?state_transition_table@?$standard_base@_WV?$string_output_adapter@_W@__crt_stdio_output@@@__crt_stdio_output@@KAAEBV?$spectre_mitigated_lookup_table@Ustate_transition_pair@__crt_stdio_output@@$0IA@@2@XZ 00000001800e0c80 f i libucrtd:output.obj
 0002:00071c90       ?tchar_string@?$common_data@D@__crt_stdio_output@@IEAAAEAPEADD@Z 00000001800e0c90 f i libucrtd:output.obj
 0002:00071cb0       ?tchar_string@?$common_data@D@__crt_stdio_output@@IEAAAEAPEADXZ 00000001800e0cb0 f i libucrtd:output.obj
 0002:00071cd0       ?tchar_string@?$common_data@_W@__crt_stdio_output@@IEAAAEAPEA_WXZ 00000001800e0cd0 f i libucrtd:output.obj
 0002:00071cf0       ?tchar_string@?$common_data@_W@__crt_stdio_output@@IEAAAEAPEA_W_W@Z 00000001800e0cf0 f i libucrtd:output.obj
 0002:00071d10       ?to_integer_size@__crt_stdio_output@@YA_KW4length_modifier@1@@Z 00000001800e0d10 f i libucrtd:output.obj
 0002:00071df0       ?type_case_X@?$output_processor@DV?$stream_output_adapter@D@__crt_stdio_output@@V?$format_validation_base@DV?$stream_output_adapter@D@__crt_stdio_output@@@2@@__crt_stdio_output@@AEAA_NXZ 00000001800e0df0 f i libucrtd:output.obj
 0002:00071e10       ?type_case_X@?$output_processor@DV?$stream_output_adapter@D@__crt_stdio_output@@V?$positional_parameter_base@DV?$stream_output_adapter@D@__crt_stdio_output@@@2@@__crt_stdio_output@@AEAA_NXZ 00000001800e0e10 f i libucrtd:output.obj
 0002:00071e30       ?type_case_X@?$output_processor@DV?$stream_output_adapter@D@__crt_stdio_output@@V?$standard_base@DV?$stream_output_adapter@D@__crt_stdio_output@@@2@@__crt_stdio_output@@AEAA_NXZ 00000001800e0e30 f i libucrtd:output.obj
 0002:00071e50       ?type_case_X@?$output_processor@DV?$string_output_adapter@D@__crt_stdio_output@@V?$format_validation_base@DV?$string_output_adapter@D@__crt_stdio_output@@@2@@__crt_stdio_output@@AEAA_NXZ 00000001800e0e50 f i libucrtd:output.obj
 0002:00071e70       ?type_case_X@?$output_processor@DV?$string_output_adapter@D@__crt_stdio_output@@V?$positional_parameter_base@DV?$string_output_adapter@D@__crt_stdio_output@@@2@@__crt_stdio_output@@AEAA_NXZ 00000001800e0e70 f i libucrtd:output.obj
 0002:00071e90       ?type_case_X@?$output_processor@DV?$string_output_adapter@D@__crt_stdio_output@@V?$standard_base@DV?$string_output_adapter@D@__crt_stdio_output@@@2@@__crt_stdio_output@@AEAA_NXZ 00000001800e0e90 f i libucrtd:output.obj
 0002:00071eb0       ?type_case_X@?$output_processor@_WV?$stream_output_adapter@_W@__crt_stdio_output@@V?$format_validation_base@_WV?$stream_output_adapter@_W@__crt_stdio_output@@@2@@__crt_stdio_output@@AEAA_NXZ 00000001800e0eb0 f i libucrtd:output.obj
 0002:00071ed0       ?type_case_X@?$output_processor@_WV?$stream_output_adapter@_W@__crt_stdio_output@@V?$positional_parameter_base@_WV?$stream_output_adapter@_W@__crt_stdio_output@@@2@@__crt_stdio_output@@AEAA_NXZ 00000001800e0ed0 f i libucrtd:output.obj
 0002:00071ef0       ?type_case_X@?$output_processor@_WV?$stream_output_adapter@_W@__crt_stdio_output@@V?$standard_base@_WV?$stream_output_adapter@_W@__crt_stdio_output@@@2@@__crt_stdio_output@@AEAA_NXZ 00000001800e0ef0 f i libucrtd:output.obj
 0002:00071f10       ?type_case_X@?$output_processor@_WV?$string_output_adapter@_W@__crt_stdio_output@@V?$format_validation_base@_WV?$string_output_adapter@_W@__crt_stdio_output@@@2@@__crt_stdio_output@@AEAA_NXZ 00000001800e0f10 f i libucrtd:output.obj
 0002:00071f30       ?type_case_X@?$output_processor@_WV?$string_output_adapter@_W@__crt_stdio_output@@V?$positional_parameter_base@_WV?$string_output_adapter@_W@__crt_stdio_output@@@2@@__crt_stdio_output@@AEAA_NXZ 00000001800e0f30 f i libucrtd:output.obj
 0002:00071f50       ?type_case_X@?$output_processor@_WV?$string_output_adapter@_W@__crt_stdio_output@@V?$standard_base@_WV?$string_output_adapter@_W@__crt_stdio_output@@@2@@__crt_stdio_output@@AEAA_NXZ 00000001800e0f50 f i libucrtd:output.obj
 0002:00071f70       ?type_case_Z@?$output_processor@DV?$stream_output_adapter@D@__crt_stdio_output@@V?$format_validation_base@DV?$stream_output_adapter@D@__crt_stdio_output@@@2@@__crt_stdio_output@@AEAA_NXZ 00000001800e0f70 f i libucrtd:output.obj
 0002:000720d0       ?type_case_Z@?$output_processor@DV?$stream_output_adapter@D@__crt_stdio_output@@V?$positional_parameter_base@DV?$stream_output_adapter@D@__crt_stdio_output@@@2@@__crt_stdio_output@@AEAA_NXZ 00000001800e10d0 f i libucrtd:output.obj
 0002:00072230       ?type_case_Z@?$output_processor@DV?$stream_output_adapter@D@__crt_stdio_output@@V?$standard_base@DV?$stream_output_adapter@D@__crt_stdio_output@@@2@@__crt_stdio_output@@AEAA_NXZ 00000001800e1230 f i libucrtd:output.obj
 0002:00072390       ?type_case_Z@?$output_processor@DV?$string_output_adapter@D@__crt_stdio_output@@V?$format_validation_base@DV?$string_output_adapter@D@__crt_stdio_output@@@2@@__crt_stdio_output@@AEAA_NXZ 00000001800e1390 f i libucrtd:output.obj
 0002:000724f0       ?type_case_Z@?$output_processor@DV?$string_output_adapter@D@__crt_stdio_output@@V?$positional_parameter_base@DV?$string_output_adapter@D@__crt_stdio_output@@@2@@__crt_stdio_output@@AEAA_NXZ 00000001800e14f0 f i libucrtd:output.obj
 0002:00072650       ?type_case_Z@?$output_processor@DV?$string_output_adapter@D@__crt_stdio_output@@V?$standard_base@DV?$string_output_adapter@D@__crt_stdio_output@@@2@@__crt_stdio_output@@AEAA_NXZ 00000001800e1650 f i libucrtd:output.obj
 0002:000727b0       ?type_case_Z@?$output_processor@_WV?$stream_output_adapter@_W@__crt_stdio_output@@V?$format_validation_base@_WV?$stream_output_adapter@_W@__crt_stdio_output@@@2@@__crt_stdio_output@@AEAA_NXZ 00000001800e17b0 f i libucrtd:output.obj
 0002:00072910       ?type_case_Z@?$output_processor@_WV?$stream_output_adapter@_W@__crt_stdio_output@@V?$positional_parameter_base@_WV?$stream_output_adapter@_W@__crt_stdio_output@@@2@@__crt_stdio_output@@AEAA_NXZ 00000001800e1910 f i libucrtd:output.obj
 0002:00072a70       ?type_case_Z@?$output_processor@_WV?$stream_output_adapter@_W@__crt_stdio_output@@V?$standard_base@_WV?$stream_output_adapter@_W@__crt_stdio_output@@@2@@__crt_stdio_output@@AEAA_NXZ 00000001800e1a70 f i libucrtd:output.obj
 0002:00072bd0       ?type_case_Z@?$output_processor@_WV?$string_output_adapter@_W@__crt_stdio_output@@V?$format_validation_base@_WV?$string_output_adapter@_W@__crt_stdio_output@@@2@@__crt_stdio_output@@AEAA_NXZ 00000001800e1bd0 f i libucrtd:output.obj
 0002:00072d30       ?type_case_Z@?$output_processor@_WV?$string_output_adapter@_W@__crt_stdio_output@@V?$positional_parameter_base@_WV?$string_output_adapter@_W@__crt_stdio_output@@@2@@__crt_stdio_output@@AEAA_NXZ 00000001800e1d30 f i libucrtd:output.obj
 0002:00072e90       ?type_case_Z@?$output_processor@_WV?$string_output_adapter@_W@__crt_stdio_output@@V?$standard_base@_WV?$string_output_adapter@_W@__crt_stdio_output@@@2@@__crt_stdio_output@@AEAA_NXZ 00000001800e1e90 f i libucrtd:output.obj
 0002:00072ff0       ?type_case_a@?$output_processor@DV?$stream_output_adapter@D@__crt_stdio_output@@V?$format_validation_base@DV?$stream_output_adapter@D@__crt_stdio_output@@@2@@__crt_stdio_output@@AEAA_NXZ 00000001800e1ff0 f i libucrtd:output.obj
 0002:00073570       ?type_case_a@?$output_processor@DV?$stream_output_adapter@D@__crt_stdio_output@@V?$positional_parameter_base@DV?$stream_output_adapter@D@__crt_stdio_output@@@2@@__crt_stdio_output@@AEAA_NXZ 00000001800e2570 f i libucrtd:output.obj
 0002:00073af0       ?type_case_a@?$output_processor@DV?$stream_output_adapter@D@__crt_stdio_output@@V?$standard_base@DV?$stream_output_adapter@D@__crt_stdio_output@@@2@@__crt_stdio_output@@AEAA_NXZ 00000001800e2af0 f i libucrtd:output.obj
 0002:00074070       ?type_case_a@?$output_processor@DV?$string_output_adapter@D@__crt_stdio_output@@V?$format_validation_base@DV?$string_output_adapter@D@__crt_stdio_output@@@2@@__crt_stdio_output@@AEAA_NXZ 00000001800e3070 f i libucrtd:output.obj
 0002:000745f0       ?type_case_a@?$output_processor@DV?$string_output_adapter@D@__crt_stdio_output@@V?$positional_parameter_base@DV?$string_output_adapter@D@__crt_stdio_output@@@2@@__crt_stdio_output@@AEAA_NXZ 00000001800e35f0 f i libucrtd:output.obj
 0002:00074b70       ?type_case_a@?$output_processor@DV?$string_output_adapter@D@__crt_stdio_output@@V?$standard_base@DV?$string_output_adapter@D@__crt_stdio_output@@@2@@__crt_stdio_output@@AEAA_NXZ 00000001800e3b70 f i libucrtd:output.obj
 0002:000750f0       ?type_case_a@?$output_processor@_WV?$stream_output_adapter@_W@__crt_stdio_output@@V?$format_validation_base@_WV?$stream_output_adapter@_W@__crt_stdio_output@@@2@@__crt_stdio_output@@AEAA_NXZ 00000001800e40f0 f i libucrtd:output.obj
 0002:00075670       ?type_case_a@?$output_processor@_WV?$stream_output_adapter@_W@__crt_stdio_output@@V?$positional_parameter_base@_WV?$stream_output_adapter@_W@__crt_stdio_output@@@2@@__crt_stdio_output@@AEAA_NXZ 00000001800e4670 f i libucrtd:output.obj
 0002:00075bf0       ?type_case_a@?$output_processor@_WV?$stream_output_adapter@_W@__crt_stdio_output@@V?$standard_base@_WV?$stream_output_adapter@_W@__crt_stdio_output@@@2@@__crt_stdio_output@@AEAA_NXZ 00000001800e4bf0 f i libucrtd:output.obj
 0002:00076170       ?type_case_a@?$output_processor@_WV?$string_output_adapter@_W@__crt_stdio_output@@V?$format_validation_base@_WV?$string_output_adapter@_W@__crt_stdio_output@@@2@@__crt_stdio_output@@AEAA_NXZ 00000001800e5170 f i libucrtd:output.obj
 0002:000766f0       ?type_case_a@?$output_processor@_WV?$string_output_adapter@_W@__crt_stdio_output@@V?$positional_parameter_base@_WV?$string_output_adapter@_W@__crt_stdio_output@@@2@@__crt_stdio_output@@AEAA_NXZ 00000001800e56f0 f i libucrtd:output.obj
 0002:00076c70       ?type_case_a@?$output_processor@_WV?$string_output_adapter@_W@__crt_stdio_output@@V?$standard_base@_WV?$string_output_adapter@_W@__crt_stdio_output@@@2@@__crt_stdio_output@@AEAA_NXZ 00000001800e5c70 f i libucrtd:output.obj
 0002:000771f0       ?type_case_c@?$output_processor@DV?$stream_output_adapter@D@__crt_stdio_output@@V?$format_validation_base@DV?$stream_output_adapter@D@__crt_stdio_output@@@2@@__crt_stdio_output@@AEAA_NXZ 00000001800e61f0 f i libucrtd:output.obj
 0002:00077210       ?type_case_c@?$output_processor@DV?$stream_output_adapter@D@__crt_stdio_output@@V?$positional_parameter_base@DV?$stream_output_adapter@D@__crt_stdio_output@@@2@@__crt_stdio_output@@AEAA_NXZ 00000001800e6210 f i libucrtd:output.obj
 0002:00077230       ?type_case_c@?$output_processor@DV?$stream_output_adapter@D@__crt_stdio_output@@V?$standard_base@DV?$stream_output_adapter@D@__crt_stdio_output@@@2@@__crt_stdio_output@@AEAA_NXZ 00000001800e6230 f i libucrtd:output.obj
 0002:00077250       ?type_case_c@?$output_processor@DV?$string_output_adapter@D@__crt_stdio_output@@V?$format_validation_base@DV?$string_output_adapter@D@__crt_stdio_output@@@2@@__crt_stdio_output@@AEAA_NXZ 00000001800e6250 f i libucrtd:output.obj
 0002:00077270       ?type_case_c@?$output_processor@DV?$string_output_adapter@D@__crt_stdio_output@@V?$positional_parameter_base@DV?$string_output_adapter@D@__crt_stdio_output@@@2@@__crt_stdio_output@@AEAA_NXZ 00000001800e6270 f i libucrtd:output.obj
 0002:00077290       ?type_case_c@?$output_processor@DV?$string_output_adapter@D@__crt_stdio_output@@V?$standard_base@DV?$string_output_adapter@D@__crt_stdio_output@@@2@@__crt_stdio_output@@AEAA_NXZ 00000001800e6290 f i libucrtd:output.obj
 0002:000772b0       ?type_case_c@?$output_processor@_WV?$stream_output_adapter@_W@__crt_stdio_output@@V?$format_validation_base@_WV?$stream_output_adapter@_W@__crt_stdio_output@@@2@@__crt_stdio_output@@AEAA_NXZ 00000001800e62b0 f i libucrtd:output.obj
 0002:000772d0       ?type_case_c@?$output_processor@_WV?$stream_output_adapter@_W@__crt_stdio_output@@V?$positional_parameter_base@_WV?$stream_output_adapter@_W@__crt_stdio_output@@@2@@__crt_stdio_output@@AEAA_NXZ 00000001800e62d0 f i libucrtd:output.obj
 0002:000772f0       ?type_case_c@?$output_processor@_WV?$stream_output_adapter@_W@__crt_stdio_output@@V?$standard_base@_WV?$stream_output_adapter@_W@__crt_stdio_output@@@2@@__crt_stdio_output@@AEAA_NXZ 00000001800e62f0 f i libucrtd:output.obj
 0002:00077310       ?type_case_c@?$output_processor@_WV?$string_output_adapter@_W@__crt_stdio_output@@V?$format_validation_base@_WV?$string_output_adapter@_W@__crt_stdio_output@@@2@@__crt_stdio_output@@AEAA_NXZ 00000001800e6310 f i libucrtd:output.obj
 0002:00077330       ?type_case_c@?$output_processor@_WV?$string_output_adapter@_W@__crt_stdio_output@@V?$positional_parameter_base@_WV?$string_output_adapter@_W@__crt_stdio_output@@@2@@__crt_stdio_output@@AEAA_NXZ 00000001800e6330 f i libucrtd:output.obj
 0002:00077350       ?type_case_c@?$output_processor@_WV?$string_output_adapter@_W@__crt_stdio_output@@V?$standard_base@_WV?$string_output_adapter@_W@__crt_stdio_output@@@2@@__crt_stdio_output@@AEAA_NXZ 00000001800e6350 f i libucrtd:output.obj
 0002:00077370       ?type_case_c_tchar@?$output_processor@DV?$stream_output_adapter@D@__crt_stdio_output@@V?$format_validation_base@DV?$stream_output_adapter@D@__crt_stdio_output@@@2@@__crt_stdio_output@@AEAA_ND@Z 00000001800e6370 f i libucrtd:output.obj
 0002:00077540       ?type_case_c_tchar@?$output_processor@DV?$stream_output_adapter@D@__crt_stdio_output@@V?$positional_parameter_base@DV?$stream_output_adapter@D@__crt_stdio_output@@@2@@__crt_stdio_output@@AEAA_ND@Z 00000001800e6540 f i libucrtd:output.obj
 0002:00077710       ?type_case_c_tchar@?$output_processor@DV?$stream_output_adapter@D@__crt_stdio_output@@V?$standard_base@DV?$stream_output_adapter@D@__crt_stdio_output@@@2@@__crt_stdio_output@@AEAA_ND@Z 00000001800e6710 f i libucrtd:output.obj
 0002:000778e0       ?type_case_c_tchar@?$output_processor@DV?$string_output_adapter@D@__crt_stdio_output@@V?$format_validation_base@DV?$string_output_adapter@D@__crt_stdio_output@@@2@@__crt_stdio_output@@AEAA_ND@Z 00000001800e68e0 f i libucrtd:output.obj
 0002:00077ab0       ?type_case_c_tchar@?$output_processor@DV?$string_output_adapter@D@__crt_stdio_output@@V?$positional_parameter_base@DV?$string_output_adapter@D@__crt_stdio_output@@@2@@__crt_stdio_output@@AEAA_ND@Z 00000001800e6ab0 f i libucrtd:output.obj
 0002:00077c80       ?type_case_c_tchar@?$output_processor@DV?$string_output_adapter@D@__crt_stdio_output@@V?$standard_base@DV?$string_output_adapter@D@__crt_stdio_output@@@2@@__crt_stdio_output@@AEAA_ND@Z 00000001800e6c80 f i libucrtd:output.obj
 0002:00077e50       ?type_case_c_tchar@?$output_processor@_WV?$stream_output_adapter@_W@__crt_stdio_output@@V?$format_validation_base@_WV?$stream_output_adapter@_W@__crt_stdio_output@@@2@@__crt_stdio_output@@AEAA_N_W@Z 00000001800e6e50 f i libucrtd:output.obj
 0002:00078000       ?type_case_c_tchar@?$output_processor@_WV?$stream_output_adapter@_W@__crt_stdio_output@@V?$positional_parameter_base@_WV?$stream_output_adapter@_W@__crt_stdio_output@@@2@@__crt_stdio_output@@AEAA_N_W@Z 00000001800e7000 f i libucrtd:output.obj
 0002:000781b0       ?type_case_c_tchar@?$output_processor@_WV?$stream_output_adapter@_W@__crt_stdio_output@@V?$standard_base@_WV?$stream_output_adapter@_W@__crt_stdio_output@@@2@@__crt_stdio_output@@AEAA_N_W@Z 00000001800e71b0 f i libucrtd:output.obj
 0002:00078360       ?type_case_c_tchar@?$output_processor@_WV?$string_output_adapter@_W@__crt_stdio_output@@V?$format_validation_base@_WV?$string_output_adapter@_W@__crt_stdio_output@@@2@@__crt_stdio_output@@AEAA_N_W@Z 00000001800e7360 f i libucrtd:output.obj
 0002:00078510       ?type_case_c_tchar@?$output_processor@_WV?$string_output_adapter@_W@__crt_stdio_output@@V?$positional_parameter_base@_WV?$string_output_adapter@_W@__crt_stdio_output@@@2@@__crt_stdio_output@@AEAA_N_W@Z 00000001800e7510 f i libucrtd:output.obj
 0002:000786c0       ?type_case_c_tchar@?$output_processor@_WV?$string_output_adapter@_W@__crt_stdio_output@@V?$standard_base@_WV?$string_output_adapter@_W@__crt_stdio_output@@@2@@__crt_stdio_output@@AEAA_N_W@Z 00000001800e76c0 f i libucrtd:output.obj
 0002:00078870       ?type_case_d@?$output_processor@DV?$stream_output_adapter@D@__crt_stdio_output@@V?$format_validation_base@DV?$stream_output_adapter@D@__crt_stdio_output@@@2@@__crt_stdio_output@@AEAA_NXZ 00000001800e7870 f i libucrtd:output.obj
 0002:000788b0       ?type_case_d@?$output_processor@DV?$stream_output_adapter@D@__crt_stdio_output@@V?$positional_parameter_base@DV?$stream_output_adapter@D@__crt_stdio_output@@@2@@__crt_stdio_output@@AEAA_NXZ 00000001800e78b0 f i libucrtd:output.obj
 0002:000788f0       ?type_case_d@?$output_processor@DV?$stream_output_adapter@D@__crt_stdio_output@@V?$standard_base@DV?$stream_output_adapter@D@__crt_stdio_output@@@2@@__crt_stdio_output@@AEAA_NXZ 00000001800e78f0 f i libucrtd:output.obj
 0002:00078930       ?type_case_d@?$output_processor@DV?$string_output_adapter@D@__crt_stdio_output@@V?$format_validation_base@DV?$string_output_adapter@D@__crt_stdio_output@@@2@@__crt_stdio_output@@AEAA_NXZ 00000001800e7930 f i libucrtd:output.obj
 0002:00078970       ?type_case_d@?$output_processor@DV?$string_output_adapter@D@__crt_stdio_output@@V?$positional_parameter_base@DV?$string_output_adapter@D@__crt_stdio_output@@@2@@__crt_stdio_output@@AEAA_NXZ 00000001800e7970 f i libucrtd:output.obj
 0002:000789b0       ?type_case_d@?$output_processor@DV?$string_output_adapter@D@__crt_stdio_output@@V?$standard_base@DV?$string_output_adapter@D@__crt_stdio_output@@@2@@__crt_stdio_output@@AEAA_NXZ 00000001800e79b0 f i libucrtd:output.obj
 0002:000789f0       ?type_case_d@?$output_processor@_WV?$stream_output_adapter@_W@__crt_stdio_output@@V?$format_validation_base@_WV?$stream_output_adapter@_W@__crt_stdio_output@@@2@@__crt_stdio_output@@AEAA_NXZ 00000001800e79f0 f i libucrtd:output.obj
 0002:00078a30       ?type_case_d@?$output_processor@_WV?$stream_output_adapter@_W@__crt_stdio_output@@V?$positional_parameter_base@_WV?$stream_output_adapter@_W@__crt_stdio_output@@@2@@__crt_stdio_output@@AEAA_NXZ 00000001800e7a30 f i libucrtd:output.obj
 0002:00078a70       ?type_case_d@?$output_processor@_WV?$stream_output_adapter@_W@__crt_stdio_output@@V?$standard_base@_WV?$stream_output_adapter@_W@__crt_stdio_output@@@2@@__crt_stdio_output@@AEAA_NXZ 00000001800e7a70 f i libucrtd:output.obj
 0002:00078ab0       ?type_case_d@?$output_processor@_WV?$string_output_adapter@_W@__crt_stdio_output@@V?$format_validation_base@_WV?$string_output_adapter@_W@__crt_stdio_output@@@2@@__crt_stdio_output@@AEAA_NXZ 00000001800e7ab0 f i libucrtd:output.obj
 0002:00078af0       ?type_case_d@?$output_processor@_WV?$string_output_adapter@_W@__crt_stdio_output@@V?$positional_parameter_base@_WV?$string_output_adapter@_W@__crt_stdio_output@@@2@@__crt_stdio_output@@AEAA_NXZ 00000001800e7af0 f i libucrtd:output.obj
 0002:00078b30       ?type_case_d@?$output_processor@_WV?$string_output_adapter@_W@__crt_stdio_output@@V?$standard_base@_WV?$string_output_adapter@_W@__crt_stdio_output@@@2@@__crt_stdio_output@@AEAA_NXZ 00000001800e7b30 f i libucrtd:output.obj
 0002:00078b70       ?type_case_n@?$output_processor@DV?$stream_output_adapter@D@__crt_stdio_output@@V?$format_validation_base@DV?$stream_output_adapter@D@__crt_stdio_output@@@2@@__crt_stdio_output@@AEAA_NXZ 00000001800e7b70 f i libucrtd:output.obj
 0002:00078ea0       ?type_case_n@?$output_processor@DV?$stream_output_adapter@D@__crt_stdio_output@@V?$positional_parameter_base@DV?$stream_output_adapter@D@__crt_stdio_output@@@2@@__crt_stdio_output@@AEAA_NXZ 00000001800e7ea0 f i libucrtd:output.obj
 0002:000791d0       ?type_case_n@?$output_processor@DV?$stream_output_adapter@D@__crt_stdio_output@@V?$standard_base@DV?$stream_output_adapter@D@__crt_stdio_output@@@2@@__crt_stdio_output@@AEAA_NXZ 00000001800e81d0 f i libucrtd:output.obj
 0002:00079500       ?type_case_n@?$output_processor@DV?$string_output_adapter@D@__crt_stdio_output@@V?$format_validation_base@DV?$string_output_adapter@D@__crt_stdio_output@@@2@@__crt_stdio_output@@AEAA_NXZ 00000001800e8500 f i libucrtd:output.obj
 0002:00079830       ?type_case_n@?$output_processor@DV?$string_output_adapter@D@__crt_stdio_output@@V?$positional_parameter_base@DV?$string_output_adapter@D@__crt_stdio_output@@@2@@__crt_stdio_output@@AEAA_NXZ 00000001800e8830 f i libucrtd:output.obj
 0002:00079b60       ?type_case_n@?$output_processor@DV?$string_output_adapter@D@__crt_stdio_output@@V?$standard_base@DV?$string_output_adapter@D@__crt_stdio_output@@@2@@__crt_stdio_output@@AEAA_NXZ 00000001800e8b60 f i libucrtd:output.obj
 0002:00079e90       ?type_case_n@?$output_processor@_WV?$stream_output_adapter@_W@__crt_stdio_output@@V?$format_validation_base@_WV?$stream_output_adapter@_W@__crt_stdio_output@@@2@@__crt_stdio_output@@AEAA_NXZ 00000001800e8e90 f i libucrtd:output.obj
 0002:0007a1c0       ?type_case_n@?$output_processor@_WV?$stream_output_adapter@_W@__crt_stdio_output@@V?$positional_parameter_base@_WV?$stream_output_adapter@_W@__crt_stdio_output@@@2@@__crt_stdio_output@@AEAA_NXZ 00000001800e91c0 f i libucrtd:output.obj
 0002:0007a4f0       ?type_case_n@?$output_processor@_WV?$stream_output_adapter@_W@__crt_stdio_output@@V?$standard_base@_WV?$stream_output_adapter@_W@__crt_stdio_output@@@2@@__crt_stdio_output@@AEAA_NXZ 00000001800e94f0 f i libucrtd:output.obj
 0002:0007a820       ?type_case_n@?$output_processor@_WV?$string_output_adapter@_W@__crt_stdio_output@@V?$format_validation_base@_WV?$string_output_adapter@_W@__crt_stdio_output@@@2@@__crt_stdio_output@@AEAA_NXZ 00000001800e9820 f i libucrtd:output.obj
 0002:0007ab50       ?type_case_n@?$output_processor@_WV?$string_output_adapter@_W@__crt_stdio_output@@V?$positional_parameter_base@_WV?$string_output_adapter@_W@__crt_stdio_output@@@2@@__crt_stdio_output@@AEAA_NXZ 00000001800e9b50 f i libucrtd:output.obj
 0002:0007ae80       ?type_case_n@?$output_processor@_WV?$string_output_adapter@_W@__crt_stdio_output@@V?$standard_base@_WV?$string_output_adapter@_W@__crt_stdio_output@@@2@@__crt_stdio_output@@AEAA_NXZ 00000001800e9e80 f i libucrtd:output.obj
 0002:0007b1b0       ?type_case_o@?$output_processor@DV?$stream_output_adapter@D@__crt_stdio_output@@V?$format_validation_base@DV?$stream_output_adapter@D@__crt_stdio_output@@@2@@__crt_stdio_output@@AEAA_NXZ 00000001800ea1b0 f i libucrtd:output.obj
 0002:0007b200       ?type_case_o@?$output_processor@DV?$stream_output_adapter@D@__crt_stdio_output@@V?$positional_parameter_base@DV?$stream_output_adapter@D@__crt_stdio_output@@@2@@__crt_stdio_output@@AEAA_NXZ 00000001800ea200 f i libucrtd:output.obj
 0002:0007b250       ?type_case_o@?$output_processor@DV?$stream_output_adapter@D@__crt_stdio_output@@V?$standard_base@DV?$stream_output_adapter@D@__crt_stdio_output@@@2@@__crt_stdio_output@@AEAA_NXZ 00000001800ea250 f i libucrtd:output.obj
 0002:0007b2a0       ?type_case_o@?$output_processor@DV?$string_output_adapter@D@__crt_stdio_output@@V?$format_validation_base@DV?$string_output_adapter@D@__crt_stdio_output@@@2@@__crt_stdio_output@@AEAA_NXZ 00000001800ea2a0 f i libucrtd:output.obj
 0002:0007b2f0       ?type_case_o@?$output_processor@DV?$string_output_adapter@D@__crt_stdio_output@@V?$positional_parameter_base@DV?$string_output_adapter@D@__crt_stdio_output@@@2@@__crt_stdio_output@@AEAA_NXZ 00000001800ea2f0 f i libucrtd:output.obj
 0002:0007b340       ?type_case_o@?$output_processor@DV?$string_output_adapter@D@__crt_stdio_output@@V?$standard_base@DV?$string_output_adapter@D@__crt_stdio_output@@@2@@__crt_stdio_output@@AEAA_NXZ 00000001800ea340 f i libucrtd:output.obj
 0002:0007b390       ?type_case_o@?$output_processor@_WV?$stream_output_adapter@_W@__crt_stdio_output@@V?$format_validation_base@_WV?$stream_output_adapter@_W@__crt_stdio_output@@@2@@__crt_stdio_output@@AEAA_NXZ 00000001800ea390 f i libucrtd:output.obj
 0002:0007b3e0       ?type_case_o@?$output_processor@_WV?$stream_output_adapter@_W@__crt_stdio_output@@V?$positional_parameter_base@_WV?$stream_output_adapter@_W@__crt_stdio_output@@@2@@__crt_stdio_output@@AEAA_NXZ 00000001800ea3e0 f i libucrtd:output.obj
 0002:0007b430       ?type_case_o@?$output_processor@_WV?$stream_output_adapter@_W@__crt_stdio_output@@V?$standard_base@_WV?$stream_output_adapter@_W@__crt_stdio_output@@@2@@__crt_stdio_output@@AEAA_NXZ 00000001800ea430 f i libucrtd:output.obj
 0002:0007b480       ?type_case_o@?$output_processor@_WV?$string_output_adapter@_W@__crt_stdio_output@@V?$format_validation_base@_WV?$string_output_adapter@_W@__crt_stdio_output@@@2@@__crt_stdio_output@@AEAA_NXZ 00000001800ea480 f i libucrtd:output.obj
 0002:0007b4d0       ?type_case_o@?$output_processor@_WV?$string_output_adapter@_W@__crt_stdio_output@@V?$positional_parameter_base@_WV?$string_output_adapter@_W@__crt_stdio_output@@@2@@__crt_stdio_output@@AEAA_NXZ 00000001800ea4d0 f i libucrtd:output.obj
 0002:0007b520       ?type_case_o@?$output_processor@_WV?$string_output_adapter@_W@__crt_stdio_output@@V?$standard_base@_WV?$string_output_adapter@_W@__crt_stdio_output@@@2@@__crt_stdio_output@@AEAA_NXZ 00000001800ea520 f i libucrtd:output.obj
 0002:0007b570       ?type_case_p@?$output_processor@DV?$stream_output_adapter@D@__crt_stdio_output@@V?$format_validation_base@DV?$stream_output_adapter@D@__crt_stdio_output@@@2@@__crt_stdio_output@@AEAA_NXZ 00000001800ea570 f i libucrtd:output.obj
 0002:0007b5b0       ?type_case_p@?$output_processor@DV?$stream_output_adapter@D@__crt_stdio_output@@V?$positional_parameter_base@DV?$stream_output_adapter@D@__crt_stdio_output@@@2@@__crt_stdio_output@@AEAA_NXZ 00000001800ea5b0 f i libucrtd:output.obj
 0002:0007b5f0       ?type_case_p@?$output_processor@DV?$stream_output_adapter@D@__crt_stdio_output@@V?$standard_base@DV?$stream_output_adapter@D@__crt_stdio_output@@@2@@__crt_stdio_output@@AEAA_NXZ 00000001800ea5f0 f i libucrtd:output.obj
 0002:0007b630       ?type_case_p@?$output_processor@DV?$string_output_adapter@D@__crt_stdio_output@@V?$format_validation_base@DV?$string_output_adapter@D@__crt_stdio_output@@@2@@__crt_stdio_output@@AEAA_NXZ 00000001800ea630 f i libucrtd:output.obj
 0002:0007b670       ?type_case_p@?$output_processor@DV?$string_output_adapter@D@__crt_stdio_output@@V?$positional_parameter_base@DV?$string_output_adapter@D@__crt_stdio_output@@@2@@__crt_stdio_output@@AEAA_NXZ 00000001800ea670 f i libucrtd:output.obj
 0002:0007b6b0       ?type_case_p@?$output_processor@DV?$string_output_adapter@D@__crt_stdio_output@@V?$standard_base@DV?$string_output_adapter@D@__crt_stdio_output@@@2@@__crt_stdio_output@@AEAA_NXZ 00000001800ea6b0 f i libucrtd:output.obj
 0002:0007b6f0       ?type_case_p@?$output_processor@_WV?$stream_output_adapter@_W@__crt_stdio_output@@V?$format_validation_base@_WV?$stream_output_adapter@_W@__crt_stdio_output@@@2@@__crt_stdio_output@@AEAA_NXZ 00000001800ea6f0 f i libucrtd:output.obj
 0002:0007b730       ?type_case_p@?$output_processor@_WV?$stream_output_adapter@_W@__crt_stdio_output@@V?$positional_parameter_base@_WV?$stream_output_adapter@_W@__crt_stdio_output@@@2@@__crt_stdio_output@@AEAA_NXZ 00000001800ea730 f i libucrtd:output.obj
 0002:0007b770       ?type_case_p@?$output_processor@_WV?$stream_output_adapter@_W@__crt_stdio_output@@V?$standard_base@_WV?$stream_output_adapter@_W@__crt_stdio_output@@@2@@__crt_stdio_output@@AEAA_NXZ 00000001800ea770 f i libucrtd:output.obj
 0002:0007b7b0       ?type_case_p@?$output_processor@_WV?$string_output_adapter@_W@__crt_stdio_output@@V?$format_validation_base@_WV?$string_output_adapter@_W@__crt_stdio_output@@@2@@__crt_stdio_output@@AEAA_NXZ 00000001800ea7b0 f i libucrtd:output.obj
 0002:0007b7f0       ?type_case_p@?$output_processor@_WV?$string_output_adapter@_W@__crt_stdio_output@@V?$positional_parameter_base@_WV?$string_output_adapter@_W@__crt_stdio_output@@@2@@__crt_stdio_output@@AEAA_NXZ 00000001800ea7f0 f i libucrtd:output.obj
 0002:0007b830       ?type_case_p@?$output_processor@_WV?$string_output_adapter@_W@__crt_stdio_output@@V?$standard_base@_WV?$string_output_adapter@_W@__crt_stdio_output@@@2@@__crt_stdio_output@@AEAA_NXZ 00000001800ea830 f i libucrtd:output.obj
 0002:0007b870       ?type_case_s@?$output_processor@DV?$stream_output_adapter@D@__crt_stdio_output@@V?$format_validation_base@DV?$stream_output_adapter@D@__crt_stdio_output@@@2@@__crt_stdio_output@@AEAA_NXZ 00000001800ea870 f i libucrtd:output.obj
 0002:0007b9d0       ?type_case_s@?$output_processor@DV?$stream_output_adapter@D@__crt_stdio_output@@V?$positional_parameter_base@DV?$stream_output_adapter@D@__crt_stdio_output@@@2@@__crt_stdio_output@@AEAA_NXZ 00000001800ea9d0 f i libucrtd:output.obj
 0002:0007bb30       ?type_case_s@?$output_processor@DV?$stream_output_adapter@D@__crt_stdio_output@@V?$standard_base@DV?$stream_output_adapter@D@__crt_stdio_output@@@2@@__crt_stdio_output@@AEAA_NXZ 00000001800eab30 f i libucrtd:output.obj
 0002:0007bc90       ?type_case_s@?$output_processor@DV?$string_output_adapter@D@__crt_stdio_output@@V?$format_validation_base@DV?$string_output_adapter@D@__crt_stdio_output@@@2@@__crt_stdio_output@@AEAA_NXZ 00000001800eac90 f i libucrtd:output.obj
 0002:0007bdf0       ?type_case_s@?$output_processor@DV?$string_output_adapter@D@__crt_stdio_output@@V?$positional_parameter_base@DV?$string_output_adapter@D@__crt_stdio_output@@@2@@__crt_stdio_output@@AEAA_NXZ 00000001800eadf0 f i libucrtd:output.obj
 0002:0007bf50       ?type_case_s@?$output_processor@DV?$string_output_adapter@D@__crt_stdio_output@@V?$standard_base@DV?$string_output_adapter@D@__crt_stdio_output@@@2@@__crt_stdio_output@@AEAA_NXZ 00000001800eaf50 f i libucrtd:output.obj
 0002:0007c0b0       ?type_case_s@?$output_processor@_WV?$stream_output_adapter@_W@__crt_stdio_output@@V?$format_validation_base@_WV?$stream_output_adapter@_W@__crt_stdio_output@@@2@@__crt_stdio_output@@AEAA_NXZ 00000001800eb0b0 f i libucrtd:output.obj
 0002:0007c210       ?type_case_s@?$output_processor@_WV?$stream_output_adapter@_W@__crt_stdio_output@@V?$positional_parameter_base@_WV?$stream_output_adapter@_W@__crt_stdio_output@@@2@@__crt_stdio_output@@AEAA_NXZ 00000001800eb210 f i libucrtd:output.obj
 0002:0007c370       ?type_case_s@?$output_processor@_WV?$stream_output_adapter@_W@__crt_stdio_output@@V?$standard_base@_WV?$stream_output_adapter@_W@__crt_stdio_output@@@2@@__crt_stdio_output@@AEAA_NXZ 00000001800eb370 f i libucrtd:output.obj
 0002:0007c4d0       ?type_case_s@?$output_processor@_WV?$string_output_adapter@_W@__crt_stdio_output@@V?$format_validation_base@_WV?$string_output_adapter@_W@__crt_stdio_output@@@2@@__crt_stdio_output@@AEAA_NXZ 00000001800eb4d0 f i libucrtd:output.obj
 0002:0007c630       ?type_case_s@?$output_processor@_WV?$string_output_adapter@_W@__crt_stdio_output@@V?$positional_parameter_base@_WV?$string_output_adapter@_W@__crt_stdio_output@@@2@@__crt_stdio_output@@AEAA_NXZ 00000001800eb630 f i libucrtd:output.obj
 0002:0007c790       ?type_case_s@?$output_processor@_WV?$string_output_adapter@_W@__crt_stdio_output@@V?$standard_base@_WV?$string_output_adapter@_W@__crt_stdio_output@@@2@@__crt_stdio_output@@AEAA_NXZ 00000001800eb790 f i libucrtd:output.obj
 0002:0007c8f0       ?type_case_s_compute_narrow_string_length@?$output_processor@DV?$stream_output_adapter@D@__crt_stdio_output@@V?$format_validation_base@DV?$stream_output_adapter@D@__crt_stdio_output@@@2@@__crt_stdio_output@@AEAAHHD@Z 00000001800eb8f0 f i libucrtd:output.obj
 0002:0007c930       ?type_case_s_compute_narrow_string_length@?$output_processor@DV?$stream_output_adapter@D@__crt_stdio_output@@V?$positional_parameter_base@DV?$stream_output_adapter@D@__crt_stdio_output@@@2@@__crt_stdio_output@@AEAAHHD@Z 00000001800eb930 f i libucrtd:output.obj
 0002:0007c970       ?type_case_s_compute_narrow_string_length@?$output_processor@DV?$stream_output_adapter@D@__crt_stdio_output@@V?$standard_base@DV?$stream_output_adapter@D@__crt_stdio_output@@@2@@__crt_stdio_output@@AEAAHHD@Z 00000001800eb970 f i libucrtd:output.obj
 0002:0007c9b0       ?type_case_s_compute_narrow_string_length@?$output_processor@DV?$string_output_adapter@D@__crt_stdio_output@@V?$format_validation_base@DV?$string_output_adapter@D@__crt_stdio_output@@@2@@__crt_stdio_output@@AEAAHHD@Z 00000001800eb9b0 f i libucrtd:output.obj
 0002:0007c9f0       ?type_case_s_compute_narrow_string_length@?$output_processor@DV?$string_output_adapter@D@__crt_stdio_output@@V?$positional_parameter_base@DV?$string_output_adapter@D@__crt_stdio_output@@@2@@__crt_stdio_output@@AEAAHHD@Z 00000001800eb9f0 f i libucrtd:output.obj
 0002:0007ca30       ?type_case_s_compute_narrow_string_length@?$output_processor@DV?$string_output_adapter@D@__crt_stdio_output@@V?$standard_base@DV?$string_output_adapter@D@__crt_stdio_output@@@2@@__crt_stdio_output@@AEAAHHD@Z 00000001800eba30 f i libucrtd:output.obj
 0002:0007ca70       ?type_case_s_compute_narrow_string_length@?$output_processor@_WV?$stream_output_adapter@_W@__crt_stdio_output@@V?$format_validation_base@_WV?$stream_output_adapter@_W@__crt_stdio_output@@@2@@__crt_stdio_output@@AEAAHH_W@Z 00000001800eba70 f i libucrtd:output.obj
 0002:0007cc10       ?type_case_s_compute_narrow_string_length@?$output_processor@_WV?$stream_output_adapter@_W@__crt_stdio_output@@V?$positional_parameter_base@_WV?$stream_output_adapter@_W@__crt_stdio_output@@@2@@__crt_stdio_output@@AEAAHH_W@Z 00000001800ebc10 f i libucrtd:output.obj
 0002:0007cdb0       ?type_case_s_compute_narrow_string_length@?$output_processor@_WV?$stream_output_adapter@_W@__crt_stdio_output@@V?$standard_base@_WV?$stream_output_adapter@_W@__crt_stdio_output@@@2@@__crt_stdio_output@@AEAAHH_W@Z 00000001800ebdb0 f i libucrtd:output.obj
 0002:0007cf50       ?type_case_s_compute_narrow_string_length@?$output_processor@_WV?$string_output_adapter@_W@__crt_stdio_output@@V?$format_validation_base@_WV?$string_output_adapter@_W@__crt_stdio_output@@@2@@__crt_stdio_output@@AEAAHH_W@Z 00000001800ebf50 f i libucrtd:output.obj
 0002:0007d0f0       ?type_case_s_compute_narrow_string_length@?$output_processor@_WV?$string_output_adapter@_W@__crt_stdio_output@@V?$positional_parameter_base@_WV?$string_output_adapter@_W@__crt_stdio_output@@@2@@__crt_stdio_output@@AEAAHH_W@Z 00000001800ec0f0 f i libucrtd:output.obj
 0002:0007d290       ?type_case_s_compute_narrow_string_length@?$output_processor@_WV?$string_output_adapter@_W@__crt_stdio_output@@V?$standard_base@_WV?$string_output_adapter@_W@__crt_stdio_output@@@2@@__crt_stdio_output@@AEAAHH_W@Z 00000001800ec290 f i libucrtd:output.obj
 0002:0007d430       ?type_case_u@?$output_processor@DV?$stream_output_adapter@D@__crt_stdio_output@@V?$format_validation_base@DV?$stream_output_adapter@D@__crt_stdio_output@@@2@@__crt_stdio_output@@AEAA_NXZ 00000001800ec430 f i libucrtd:output.obj
 0002:0007d450       ?type_case_u@?$output_processor@DV?$stream_output_adapter@D@__crt_stdio_output@@V?$positional_parameter_base@DV?$stream_output_adapter@D@__crt_stdio_output@@@2@@__crt_stdio_output@@AEAA_NXZ 00000001800ec450 f i libucrtd:output.obj
 0002:0007d470       ?type_case_u@?$output_processor@DV?$stream_output_adapter@D@__crt_stdio_output@@V?$standard_base@DV?$stream_output_adapter@D@__crt_stdio_output@@@2@@__crt_stdio_output@@AEAA_NXZ 00000001800ec470 f i libucrtd:output.obj
 0002:0007d490       ?type_case_u@?$output_processor@DV?$string_output_adapter@D@__crt_stdio_output@@V?$format_validation_base@DV?$string_output_adapter@D@__crt_stdio_output@@@2@@__crt_stdio_output@@AEAA_NXZ 00000001800ec490 f i libucrtd:output.obj
 0002:0007d4b0       ?type_case_u@?$output_processor@DV?$string_output_adapter@D@__crt_stdio_output@@V?$positional_parameter_base@DV?$string_output_adapter@D@__crt_stdio_output@@@2@@__crt_stdio_output@@AEAA_NXZ 00000001800ec4b0 f i libucrtd:output.obj
 0002:0007d4d0       ?type_case_u@?$output_processor@DV?$string_output_adapter@D@__crt_stdio_output@@V?$standard_base@DV?$string_output_adapter@D@__crt_stdio_output@@@2@@__crt_stdio_output@@AEAA_NXZ 00000001800ec4d0 f i libucrtd:output.obj
 0002:0007d4f0       ?type_case_u@?$output_processor@_WV?$stream_output_adapter@_W@__crt_stdio_output@@V?$format_validation_base@_WV?$stream_output_adapter@_W@__crt_stdio_output@@@2@@__crt_stdio_output@@AEAA_NXZ 00000001800ec4f0 f i libucrtd:output.obj
 0002:0007d510       ?type_case_u@?$output_processor@_WV?$stream_output_adapter@_W@__crt_stdio_output@@V?$positional_parameter_base@_WV?$stream_output_adapter@_W@__crt_stdio_output@@@2@@__crt_stdio_output@@AEAA_NXZ 00000001800ec510 f i libucrtd:output.obj
 0002:0007d530       ?type_case_u@?$output_processor@_WV?$stream_output_adapter@_W@__crt_stdio_output@@V?$standard_base@_WV?$stream_output_adapter@_W@__crt_stdio_output@@@2@@__crt_stdio_output@@AEAA_NXZ 00000001800ec530 f i libucrtd:output.obj
 0002:0007d550       ?type_case_u@?$output_processor@_WV?$string_output_adapter@_W@__crt_stdio_output@@V?$format_validation_base@_WV?$string_output_adapter@_W@__crt_stdio_output@@@2@@__crt_stdio_output@@AEAA_NXZ 00000001800ec550 f i libucrtd:output.obj
 0002:0007d570       ?type_case_u@?$output_processor@_WV?$string_output_adapter@_W@__crt_stdio_output@@V?$positional_parameter_base@_WV?$string_output_adapter@_W@__crt_stdio_output@@@2@@__crt_stdio_output@@AEAA_NXZ 00000001800ec570 f i libucrtd:output.obj
 0002:0007d590       ?type_case_u@?$output_processor@_WV?$string_output_adapter@_W@__crt_stdio_output@@V?$standard_base@_WV?$string_output_adapter@_W@__crt_stdio_output@@@2@@__crt_stdio_output@@AEAA_NXZ 00000001800ec590 f i libucrtd:output.obj
 0002:0007d5b0       ?type_case_x@?$output_processor@DV?$stream_output_adapter@D@__crt_stdio_output@@V?$format_validation_base@DV?$stream_output_adapter@D@__crt_stdio_output@@@2@@__crt_stdio_output@@AEAA_NXZ 00000001800ec5b0 f i libucrtd:output.obj
 0002:0007d5d0       ?type_case_x@?$output_processor@DV?$stream_output_adapter@D@__crt_stdio_output@@V?$positional_parameter_base@DV?$stream_output_adapter@D@__crt_stdio_output@@@2@@__crt_stdio_output@@AEAA_NXZ 00000001800ec5d0 f i libucrtd:output.obj
 0002:0007d5f0       ?type_case_x@?$output_processor@DV?$stream_output_adapter@D@__crt_stdio_output@@V?$standard_base@DV?$stream_output_adapter@D@__crt_stdio_output@@@2@@__crt_stdio_output@@AEAA_NXZ 00000001800ec5f0 f i libucrtd:output.obj
 0002:0007d610       ?type_case_x@?$output_processor@DV?$string_output_adapter@D@__crt_stdio_output@@V?$format_validation_base@DV?$string_output_adapter@D@__crt_stdio_output@@@2@@__crt_stdio_output@@AEAA_NXZ 00000001800ec610 f i libucrtd:output.obj
 0002:0007d630       ?type_case_x@?$output_processor@DV?$string_output_adapter@D@__crt_stdio_output@@V?$positional_parameter_base@DV?$string_output_adapter@D@__crt_stdio_output@@@2@@__crt_stdio_output@@AEAA_NXZ 00000001800ec630 f i libucrtd:output.obj
 0002:0007d650       ?type_case_x@?$output_processor@DV?$string_output_adapter@D@__crt_stdio_output@@V?$standard_base@DV?$string_output_adapter@D@__crt_stdio_output@@@2@@__crt_stdio_output@@AEAA_NXZ 00000001800ec650 f i libucrtd:output.obj
 0002:0007d670       ?type_case_x@?$output_processor@_WV?$stream_output_adapter@_W@__crt_stdio_output@@V?$format_validation_base@_WV?$stream_output_adapter@_W@__crt_stdio_output@@@2@@__crt_stdio_output@@AEAA_NXZ 00000001800ec670 f i libucrtd:output.obj
 0002:0007d690       ?type_case_x@?$output_processor@_WV?$stream_output_adapter@_W@__crt_stdio_output@@V?$positional_parameter_base@_WV?$stream_output_adapter@_W@__crt_stdio_output@@@2@@__crt_stdio_output@@AEAA_NXZ 00000001800ec690 f i libucrtd:output.obj
 0002:0007d6b0       ?type_case_x@?$output_processor@_WV?$stream_output_adapter@_W@__crt_stdio_output@@V?$standard_base@_WV?$stream_output_adapter@_W@__crt_stdio_output@@@2@@__crt_stdio_output@@AEAA_NXZ 00000001800ec6b0 f i libucrtd:output.obj
 0002:0007d6d0       ?type_case_x@?$output_processor@_WV?$string_output_adapter@_W@__crt_stdio_output@@V?$format_validation_base@_WV?$string_output_adapter@_W@__crt_stdio_output@@@2@@__crt_stdio_output@@AEAA_NXZ 00000001800ec6d0 f i libucrtd:output.obj
 0002:0007d6f0       ?type_case_x@?$output_processor@_WV?$string_output_adapter@_W@__crt_stdio_output@@V?$positional_parameter_base@_WV?$string_output_adapter@_W@__crt_stdio_output@@@2@@__crt_stdio_output@@AEAA_NXZ 00000001800ec6f0 f i libucrtd:output.obj
 0002:0007d710       ?type_case_x@?$output_processor@_WV?$string_output_adapter@_W@__crt_stdio_output@@V?$standard_base@_WV?$string_output_adapter@_W@__crt_stdio_output@@@2@@__crt_stdio_output@@AEAA_NXZ 00000001800ec710 f i libucrtd:output.obj
 0002:0007d730       ?unget@?$c_string_character_source@D@__crt_strtox@@QEAAXD@Z 00000001800ec730 f i libucrtd:output.obj
 0002:0007d840       ?unget@?$c_string_character_source@_W@__crt_strtox@@QEAAX_W@Z 00000001800ec840 f i libucrtd:output.obj
 0002:0007d950       ?unsafe_value@?$cached@H@__crt_cached_ptd_host@@QEAAHXZ 00000001800ec950 f i libucrtd:output.obj
 0002:0007d960       ?unsafe_value@?$cached@K@__crt_cached_ptd_host@@QEAAKXZ 00000001800ec960 f i libucrtd:output.obj
 0002:0007d970       ?unset_flag@?$output_processor@DV?$stream_output_adapter@D@__crt_stdio_output@@V?$format_validation_base@DV?$stream_output_adapter@D@__crt_stdio_output@@@2@@__crt_stdio_output@@AEAAXI@Z 00000001800ec970 f i libucrtd:output.obj
 0002:0007d9a0       ?unset_flag@?$output_processor@DV?$stream_output_adapter@D@__crt_stdio_output@@V?$positional_parameter_base@DV?$stream_output_adapter@D@__crt_stdio_output@@@2@@__crt_stdio_output@@AEAAXI@Z 00000001800ec9a0 f i libucrtd:output.obj
 0002:0007d9d0       ?unset_flag@?$output_processor@DV?$stream_output_adapter@D@__crt_stdio_output@@V?$standard_base@DV?$stream_output_adapter@D@__crt_stdio_output@@@2@@__crt_stdio_output@@AEAAXI@Z 00000001800ec9d0 f i libucrtd:output.obj
 0002:0007da00       ?unset_flag@?$output_processor@DV?$string_output_adapter@D@__crt_stdio_output@@V?$format_validation_base@DV?$string_output_adapter@D@__crt_stdio_output@@@2@@__crt_stdio_output@@AEAAXI@Z 00000001800eca00 f i libucrtd:output.obj
 0002:0007da30       ?unset_flag@?$output_processor@DV?$string_output_adapter@D@__crt_stdio_output@@V?$positional_parameter_base@DV?$string_output_adapter@D@__crt_stdio_output@@@2@@__crt_stdio_output@@AEAAXI@Z 00000001800eca30 f i libucrtd:output.obj
 0002:0007da60       ?unset_flag@?$output_processor@DV?$string_output_adapter@D@__crt_stdio_output@@V?$standard_base@DV?$string_output_adapter@D@__crt_stdio_output@@@2@@__crt_stdio_output@@AEAAXI@Z 00000001800eca60 f i libucrtd:output.obj
 0002:0007da90       ?unset_flag@?$output_processor@_WV?$stream_output_adapter@_W@__crt_stdio_output@@V?$format_validation_base@_WV?$stream_output_adapter@_W@__crt_stdio_output@@@2@@__crt_stdio_output@@AEAAXI@Z 00000001800eca90 f i libucrtd:output.obj
 0002:0007dac0       ?unset_flag@?$output_processor@_WV?$stream_output_adapter@_W@__crt_stdio_output@@V?$positional_parameter_base@_WV?$stream_output_adapter@_W@__crt_stdio_output@@@2@@__crt_stdio_output@@AEAAXI@Z 00000001800ecac0 f i libucrtd:output.obj
 0002:0007daf0       ?unset_flag@?$output_processor@_WV?$stream_output_adapter@_W@__crt_stdio_output@@V?$standard_base@_WV?$stream_output_adapter@_W@__crt_stdio_output@@@2@@__crt_stdio_output@@AEAAXI@Z 00000001800ecaf0 f i libucrtd:output.obj
 0002:0007db20       ?unset_flag@?$output_processor@_WV?$string_output_adapter@_W@__crt_stdio_output@@V?$format_validation_base@_WV?$string_output_adapter@_W@__crt_stdio_output@@@2@@__crt_stdio_output@@AEAAXI@Z 00000001800ecb20 f i libucrtd:output.obj
 0002:0007db50       ?unset_flag@?$output_processor@_WV?$string_output_adapter@_W@__crt_stdio_output@@V?$positional_parameter_base@_WV?$string_output_adapter@_W@__crt_stdio_output@@@2@@__crt_stdio_output@@AEAAXI@Z 00000001800ecb50 f i libucrtd:output.obj
 0002:0007db80       ?unset_flag@?$output_processor@_WV?$string_output_adapter@_W@__crt_stdio_output@@V?$standard_base@_WV?$string_output_adapter@_W@__crt_stdio_output@@@2@@__crt_stdio_output@@AEAAXI@Z 00000001800ecb80 f i libucrtd:output.obj
 0002:0007dbb0       ?update_field_width@?$positional_parameter_base@DV?$stream_output_adapter@D@__crt_stdio_output@@@__crt_stdio_output@@IEAA_NXZ 00000001800ecbb0 f i libucrtd:output.obj
 0002:0007de30       ?update_field_width@?$positional_parameter_base@DV?$string_output_adapter@D@__crt_stdio_output@@@__crt_stdio_output@@IEAA_NXZ 00000001800ece30 f i libucrtd:output.obj
 0002:0007e0b0       ?update_field_width@?$positional_parameter_base@_WV?$stream_output_adapter@_W@__crt_stdio_output@@@__crt_stdio_output@@IEAA_NXZ 00000001800ed0b0 f i libucrtd:output.obj
 0002:0007e330       ?update_field_width@?$positional_parameter_base@_WV?$string_output_adapter@_W@__crt_stdio_output@@@__crt_stdio_output@@IEAA_NXZ 00000001800ed330 f i libucrtd:output.obj
 0002:0007e5b0       ?update_field_width@?$standard_base@DV?$stream_output_adapter@D@__crt_stdio_output@@@__crt_stdio_output@@IEAA_NXZ 00000001800ed5b0 f i libucrtd:output.obj
 0002:0007e5f0       ?update_field_width@?$standard_base@DV?$string_output_adapter@D@__crt_stdio_output@@@__crt_stdio_output@@IEAA_NXZ 00000001800ed5f0 f i libucrtd:output.obj
 0002:0007e630       ?update_field_width@?$standard_base@_WV?$stream_output_adapter@_W@__crt_stdio_output@@@__crt_stdio_output@@IEAA_NXZ 00000001800ed630 f i libucrtd:output.obj
 0002:0007e670       ?update_field_width@?$standard_base@_WV?$string_output_adapter@_W@__crt_stdio_output@@@__crt_stdio_output@@IEAA_NXZ 00000001800ed670 f i libucrtd:output.obj
 0002:0007e6b0       ?update_locale@__crt_cached_ptd_host@@AEAAXXZ 00000001800ed6b0 f i libucrtd:output.obj
 0002:0007e6e0       ?update_locale_slow@__crt_cached_ptd_host@@AEAAXXZ 00000001800ed6e0 f i libucrtd:output.obj
 0002:0007e7c0       ?update_precision@?$positional_parameter_base@DV?$stream_output_adapter@D@__crt_stdio_output@@@__crt_stdio_output@@IEAA_NXZ 00000001800ed7c0 f i libucrtd:output.obj
 0002:0007ea40       ?update_precision@?$positional_parameter_base@DV?$string_output_adapter@D@__crt_stdio_output@@@__crt_stdio_output@@IEAA_NXZ 00000001800eda40 f i libucrtd:output.obj
 0002:0007ecc0       ?update_precision@?$positional_parameter_base@_WV?$stream_output_adapter@_W@__crt_stdio_output@@@__crt_stdio_output@@IEAA_NXZ 00000001800edcc0 f i libucrtd:output.obj
 0002:0007ef40       ?update_precision@?$positional_parameter_base@_WV?$string_output_adapter@_W@__crt_stdio_output@@@__crt_stdio_output@@IEAA_NXZ 00000001800edf40 f i libucrtd:output.obj
 0002:0007f1c0       ?update_precision@?$standard_base@DV?$stream_output_adapter@D@__crt_stdio_output@@@__crt_stdio_output@@IEAA_NXZ 00000001800ee1c0 f i libucrtd:output.obj
 0002:0007f200       ?update_precision@?$standard_base@DV?$string_output_adapter@D@__crt_stdio_output@@@__crt_stdio_output@@IEAA_NXZ 00000001800ee200 f i libucrtd:output.obj
 0002:0007f240       ?update_precision@?$standard_base@_WV?$stream_output_adapter@_W@__crt_stdio_output@@@__crt_stdio_output@@IEAA_NXZ 00000001800ee240 f i libucrtd:output.obj
 0002:0007f280       ?update_precision@?$standard_base@_WV?$string_output_adapter@_W@__crt_stdio_output@@@__crt_stdio_output@@IEAA_NXZ 00000001800ee280 f i libucrtd:output.obj
 0002:0007f2c0       ?valid@?$cached@H@__crt_cached_ptd_host@@QEBA_NXZ 00000001800ee2c0 f i libucrtd:output.obj
 0002:0007f2e0       ?valid@?$cached@K@__crt_cached_ptd_host@@QEBA_NXZ 00000001800ee2e0 f i libucrtd:output.obj
 0002:0007f300       ?valid@__crt_stdio_stream@@QEBA_NXZ 00000001800ee300 f i libucrtd:output.obj
 0002:0007f340       ?validate@?$c_string_character_source@D@__crt_strtox@@QEBA_NXZ 00000001800ee340 f i libucrtd:output.obj
 0002:0007f430       ?validate@?$c_string_character_source@_W@__crt_strtox@@QEBA_NXZ 00000001800ee430 f i libucrtd:output.obj
 0002:0007f520       ?validate@?$stream_output_adapter@D@__crt_stdio_output@@QEBA_NAEAV__crt_cached_ptd_host@@@Z 00000001800ee520 f i libucrtd:output.obj
 0002:0007f650       ?validate@?$stream_output_adapter@_W@__crt_stdio_output@@QEBA_NAEAV__crt_cached_ptd_host@@@Z 00000001800ee650 f i libucrtd:output.obj
 0002:0007f780       ?validate@?$string_output_adapter@D@__crt_stdio_output@@QEBA_NAEAV__crt_cached_ptd_host@@@Z 00000001800ee780 f i libucrtd:output.obj
 0002:0007f890       ?validate@?$string_output_adapter@_W@__crt_stdio_output@@QEBA_NAEAV__crt_cached_ptd_host@@@Z 00000001800ee890 f i libucrtd:output.obj
 0002:0007f9a0       ?validate_and_store_parameter_data@?$positional_parameter_base@DV?$stream_output_adapter@D@__crt_stdio_output@@@__crt_stdio_output@@AEAA_NAEAUparameter_data@12@W4parameter_type@12@DW4length_modifier@2@@Z 00000001800ee9a0 f i libucrtd:output.obj
 0002:0007fb30       ?validate_and_store_parameter_data@?$positional_parameter_base@DV?$string_output_adapter@D@__crt_stdio_output@@@__crt_stdio_output@@AEAA_NAEAUparameter_data@12@W4parameter_type@12@DW4length_modifier@2@@Z 00000001800eeb30 f i libucrtd:output.obj
 0002:0007fcc0       ?validate_and_store_parameter_data@?$positional_parameter_base@_WV?$stream_output_adapter@_W@__crt_stdio_output@@@__crt_stdio_output@@AEAA_NAEAUparameter_data@12@W4parameter_type@12@_WW4length_modifier@2@@Z 00000001800eecc0 f i libucrtd:output.obj
 0002:0007fe50       ?validate_and_store_parameter_data@?$positional_parameter_base@_WV?$string_output_adapter@_W@__crt_stdio_output@@@__crt_stdio_output@@AEAA_NAEAUparameter_data@12@W4parameter_type@12@_WW4length_modifier@2@@Z 00000001800eee50 f i libucrtd:output.obj
 0002:0007ffe0       ?validate_and_update_state_at_beginning_of_format_character@?$positional_parameter_base@DV?$stream_output_adapter@D@__crt_stdio_output@@@__crt_stdio_output@@IEAA_NXZ 00000001800eefe0 f i libucrtd:output.obj
 0002:00080330       ?validate_and_update_state_at_beginning_of_format_character@?$positional_parameter_base@DV?$string_output_adapter@D@__crt_stdio_output@@@__crt_stdio_output@@IEAA_NXZ 00000001800ef330 f i libucrtd:output.obj
 0002:00080680       ?validate_and_update_state_at_beginning_of_format_character@?$positional_parameter_base@_WV?$stream_output_adapter@_W@__crt_stdio_output@@@__crt_stdio_output@@IEAA_NXZ 00000001800ef680 f i libucrtd:output.obj
 0002:000809d0       ?validate_and_update_state_at_beginning_of_format_character@?$positional_parameter_base@_WV?$string_output_adapter@_W@__crt_stdio_output@@@__crt_stdio_output@@IEAA_NXZ 00000001800ef9d0 f i libucrtd:output.obj
 0002:00080d20       ?validate_and_update_state_at_beginning_of_format_character@?$standard_base@DV?$stream_output_adapter@D@__crt_stdio_output@@@__crt_stdio_output@@IEAA_NXZ 00000001800efd20 f i libucrtd:output.obj
 0002:00080d30       ?validate_and_update_state_at_beginning_of_format_character@?$standard_base@DV?$string_output_adapter@D@__crt_stdio_output@@@__crt_stdio_output@@IEAA_NXZ 00000001800efd30 f i libucrtd:output.obj
 0002:00080d40       ?validate_and_update_state_at_beginning_of_format_character@?$standard_base@_WV?$stream_output_adapter@_W@__crt_stdio_output@@@__crt_stdio_output@@IEAA_NXZ 00000001800efd40 f i libucrtd:output.obj
 0002:00080d50       ?validate_and_update_state_at_beginning_of_format_character@?$standard_base@_WV?$string_output_adapter@_W@__crt_stdio_output@@@__crt_stdio_output@@IEAA_NXZ 00000001800efd50 f i libucrtd:output.obj
 0002:00080d60       ?validate_and_update_state_at_end_of_format_string@?$format_validation_base@DV?$stream_output_adapter@D@__crt_stdio_output@@@__crt_stdio_output@@IEAA_NXZ 00000001800efd60 f i libucrtd:output.obj
 0002:00080e80       ?validate_and_update_state_at_end_of_format_string@?$format_validation_base@DV?$string_output_adapter@D@__crt_stdio_output@@@__crt_stdio_output@@IEAA_NXZ 00000001800efe80 f i libucrtd:output.obj
 0002:00080fa0       ?validate_and_update_state_at_end_of_format_string@?$format_validation_base@_WV?$stream_output_adapter@_W@__crt_stdio_output@@@__crt_stdio_output@@IEAA_NXZ 00000001800effa0 f i libucrtd:output.obj
 0002:000810c0       ?validate_and_update_state_at_end_of_format_string@?$format_validation_base@_WV?$string_output_adapter@_W@__crt_stdio_output@@@__crt_stdio_output@@IEAA_NXZ 00000001800f00c0 f i libucrtd:output.obj
 0002:000811e0       ?validate_and_update_state_at_end_of_format_string@?$positional_parameter_base@DV?$stream_output_adapter@D@__crt_stdio_output@@@__crt_stdio_output@@IEAA_NXZ 00000001800f01e0 f i libucrtd:output.obj
 0002:000814a0       ?validate_and_update_state_at_end_of_format_string@?$positional_parameter_base@DV?$string_output_adapter@D@__crt_stdio_output@@@__crt_stdio_output@@IEAA_NXZ 00000001800f04a0 f i libucrtd:output.obj
 0002:00081760       ?validate_and_update_state_at_end_of_format_string@?$positional_parameter_base@_WV?$stream_output_adapter@_W@__crt_stdio_output@@@__crt_stdio_output@@IEAA_NXZ 00000001800f0760 f i libucrtd:output.obj
 0002:00081a20       ?validate_and_update_state_at_end_of_format_string@?$positional_parameter_base@_WV?$string_output_adapter@_W@__crt_stdio_output@@@__crt_stdio_output@@IEAA_NXZ 00000001800f0a20 f i libucrtd:output.obj
 0002:00081ce0       ?validate_and_update_state_at_end_of_format_string@?$standard_base@DV?$stream_output_adapter@D@__crt_stdio_output@@@__crt_stdio_output@@IEBA_NXZ 00000001800f0ce0 f i libucrtd:output.obj
 0002:00081cf0       ?validate_and_update_state_at_end_of_format_string@?$standard_base@DV?$string_output_adapter@D@__crt_stdio_output@@@__crt_stdio_output@@IEBA_NXZ 00000001800f0cf0 f i libucrtd:output.obj
 0002:00081d00       ?validate_and_update_state_at_end_of_format_string@?$standard_base@_WV?$stream_output_adapter@_W@__crt_stdio_output@@@__crt_stdio_output@@IEBA_NXZ 00000001800f0d00 f i libucrtd:output.obj
 0002:00081d10       ?validate_and_update_state_at_end_of_format_string@?$standard_base@_WV?$string_output_adapter@_W@__crt_stdio_output@@@__crt_stdio_output@@IEBA_NXZ 00000001800f0d10 f i libucrtd:output.obj
 0002:00081d20       ?validate_state_for_type_case_a@?$positional_parameter_base@DV?$stream_output_adapter@D@__crt_stdio_output@@@__crt_stdio_output@@IEAA_NXZ 00000001800f0d20 f i libucrtd:output.obj
 0002:00081ed0       ?validate_state_for_type_case_a@?$positional_parameter_base@DV?$string_output_adapter@D@__crt_stdio_output@@@__crt_stdio_output@@IEAA_NXZ 00000001800f0ed0 f i libucrtd:output.obj
 0002:00082080       ?validate_state_for_type_case_a@?$positional_parameter_base@_WV?$stream_output_adapter@_W@__crt_stdio_output@@@__crt_stdio_output@@IEAA_NXZ 00000001800f1080 f i libucrtd:output.obj
 0002:00082230       ?validate_state_for_type_case_a@?$positional_parameter_base@_WV?$string_output_adapter@_W@__crt_stdio_output@@@__crt_stdio_output@@IEAA_NXZ 00000001800f1230 f i libucrtd:output.obj
 0002:000823e0       ?validate_state_for_type_case_a@?$standard_base@DV?$stream_output_adapter@D@__crt_stdio_output@@@__crt_stdio_output@@IEBA_NXZ 00000001800f13e0 f i libucrtd:output.obj
 0002:000823f0       ?validate_state_for_type_case_a@?$standard_base@DV?$string_output_adapter@D@__crt_stdio_output@@@__crt_stdio_output@@IEBA_NXZ 00000001800f13f0 f i libucrtd:output.obj
 0002:00082400       ?validate_state_for_type_case_a@?$standard_base@_WV?$stream_output_adapter@_W@__crt_stdio_output@@@__crt_stdio_output@@IEBA_NXZ 00000001800f1400 f i libucrtd:output.obj
 0002:00082410       ?validate_state_for_type_case_a@?$standard_base@_WV?$string_output_adapter@_W@__crt_stdio_output@@@__crt_stdio_output@@IEBA_NXZ 00000001800f1410 f i libucrtd:output.obj
 0002:00082420       ?validate_stream_is_ansi_if_required@?$__acrt_stdio_char_traits@D@@SA_NQEAU_iobuf@@@Z 00000001800f1420 f i libucrtd:output.obj
 0002:00082620       ?validate_stream_is_ansi_if_required@?$__acrt_stdio_char_traits@_W@@SA_NQEAU_iobuf@@@Z 00000001800f1620 f i libucrtd:output.obj
 0002:00082630       ?wide_character_to_digit@__crt_strtox@@YAH_W@Z 00000001800f1630 f i libucrtd:output.obj
 0002:00082a70       ?wide_null_string@?$output_processor@DV?$stream_output_adapter@D@__crt_stdio_output@@V?$format_validation_base@DV?$stream_output_adapter@D@__crt_stdio_output@@@2@@__crt_stdio_output@@CAPEA_WXZ 00000001800f1a70 f i libucrtd:output.obj
 0002:00082a80       ?wide_null_string@?$output_processor@DV?$stream_output_adapter@D@__crt_stdio_output@@V?$positional_parameter_base@DV?$stream_output_adapter@D@__crt_stdio_output@@@2@@__crt_stdio_output@@CAPEA_WXZ 00000001800f1a80 f i libucrtd:output.obj
 0002:00082a90       ?wide_null_string@?$output_processor@DV?$stream_output_adapter@D@__crt_stdio_output@@V?$standard_base@DV?$stream_output_adapter@D@__crt_stdio_output@@@2@@__crt_stdio_output@@CAPEA_WXZ 00000001800f1a90 f i libucrtd:output.obj
 0002:00082aa0       ?wide_null_string@?$output_processor@DV?$string_output_adapter@D@__crt_stdio_output@@V?$format_validation_base@DV?$string_output_adapter@D@__crt_stdio_output@@@2@@__crt_stdio_output@@CAPEA_WXZ 00000001800f1aa0 f i libucrtd:output.obj
 0002:00082ab0       ?wide_null_string@?$output_processor@DV?$string_output_adapter@D@__crt_stdio_output@@V?$positional_parameter_base@DV?$string_output_adapter@D@__crt_stdio_output@@@2@@__crt_stdio_output@@CAPEA_WXZ 00000001800f1ab0 f i libucrtd:output.obj
 0002:00082ac0       ?wide_null_string@?$output_processor@DV?$string_output_adapter@D@__crt_stdio_output@@V?$standard_base@DV?$string_output_adapter@D@__crt_stdio_output@@@2@@__crt_stdio_output@@CAPEA_WXZ 00000001800f1ac0 f i libucrtd:output.obj
 0002:00082ad0       ?wide_null_string@?$output_processor@_WV?$stream_output_adapter@_W@__crt_stdio_output@@V?$format_validation_base@_WV?$stream_output_adapter@_W@__crt_stdio_output@@@2@@__crt_stdio_output@@CAPEA_WXZ 00000001800f1ad0 f i libucrtd:output.obj
 0002:00082ae0       ?wide_null_string@?$output_processor@_WV?$stream_output_adapter@_W@__crt_stdio_output@@V?$positional_parameter_base@_WV?$stream_output_adapter@_W@__crt_stdio_output@@@2@@__crt_stdio_output@@CAPEA_WXZ 00000001800f1ae0 f i libucrtd:output.obj
 0002:00082af0       ?wide_null_string@?$output_processor@_WV?$stream_output_adapter@_W@__crt_stdio_output@@V?$standard_base@_WV?$stream_output_adapter@_W@__crt_stdio_output@@@2@@__crt_stdio_output@@CAPEA_WXZ 00000001800f1af0 f i libucrtd:output.obj
 0002:00082b00       ?wide_null_string@?$output_processor@_WV?$string_output_adapter@_W@__crt_stdio_output@@V?$format_validation_base@_WV?$string_output_adapter@_W@__crt_stdio_output@@@2@@__crt_stdio_output@@CAPEA_WXZ 00000001800f1b00 f i libucrtd:output.obj
 0002:00082b10       ?wide_null_string@?$output_processor@_WV?$string_output_adapter@_W@__crt_stdio_output@@V?$positional_parameter_base@_WV?$string_output_adapter@_W@__crt_stdio_output@@@2@@__crt_stdio_output@@CAPEA_WXZ 00000001800f1b10 f i libucrtd:output.obj
 0002:00082b20       ?wide_null_string@?$output_processor@_WV?$string_output_adapter@_W@__crt_stdio_output@@V?$standard_base@_WV?$string_output_adapter@_W@__crt_stdio_output@@@2@@__crt_stdio_output@@CAPEA_WXZ 00000001800f1b20 f i libucrtd:output.obj
 0002:00082b30       ?write_character@?$output_adapter_common@DV?$stream_output_adapter@D@__crt_stdio_output@@@__crt_stdio_output@@QEBAXDQEAHAEAV__crt_cached_ptd_host@@@Z 00000001800f1b30 f i libucrtd:output.obj
 0002:00082ba0       ?write_character@?$output_adapter_common@_WV?$stream_output_adapter@_W@__crt_stdio_output@@@__crt_stdio_output@@QEBAX_WQEAHAEAV__crt_cached_ptd_host@@@Z 00000001800f1ba0 f i libucrtd:output.obj
 0002:00082c10       ?write_character@?$string_output_adapter@D@__crt_stdio_output@@QEBA_NDQEAHAEAV__crt_cached_ptd_host@@@Z 00000001800f1c10 f i libucrtd:output.obj
 0002:00082d10       ?write_character@?$string_output_adapter@_W@__crt_stdio_output@@QEBA_N_WQEAHAEAV__crt_cached_ptd_host@@@Z 00000001800f1d10 f i libucrtd:output.obj
 0002:00082e10       ?write_character_without_count_update@?$stream_output_adapter@D@__crt_stdio_output@@QEBA_NDAEAV__crt_cached_ptd_host@@@Z 00000001800f1e10 f i libucrtd:output.obj
 0002:00082ec0       ?write_character_without_count_update@?$stream_output_adapter@_W@__crt_stdio_output@@QEBA_N_WAEAV__crt_cached_ptd_host@@@Z 00000001800f1ec0 f i libucrtd:output.obj
 0002:00082f70       ?write_stored_string_tchar@?$output_processor@DV?$stream_output_adapter@D@__crt_stdio_output@@V?$format_validation_base@DV?$stream_output_adapter@D@__crt_stdio_output@@@2@@__crt_stdio_output@@AEAA_ND@Z 00000001800f1f70 f i libucrtd:output.obj
 0002:00083310       ?write_stored_string_tchar@?$output_processor@DV?$stream_output_adapter@D@__crt_stdio_output@@V?$positional_parameter_base@DV?$stream_output_adapter@D@__crt_stdio_output@@@2@@__crt_stdio_output@@AEAA_ND@Z 00000001800f2310 f i libucrtd:output.obj
 0002:000836b0       ?write_stored_string_tchar@?$output_processor@DV?$stream_output_adapter@D@__crt_stdio_output@@V?$standard_base@DV?$stream_output_adapter@D@__crt_stdio_output@@@2@@__crt_stdio_output@@AEAA_ND@Z 00000001800f26b0 f i libucrtd:output.obj
 0002:00083a50       ?write_stored_string_tchar@?$output_processor@DV?$string_output_adapter@D@__crt_stdio_output@@V?$format_validation_base@DV?$string_output_adapter@D@__crt_stdio_output@@@2@@__crt_stdio_output@@AEAA_ND@Z 00000001800f2a50 f i libucrtd:output.obj
 0002:00083df0       ?write_stored_string_tchar@?$output_processor@DV?$string_output_adapter@D@__crt_stdio_output@@V?$positional_parameter_base@DV?$string_output_adapter@D@__crt_stdio_output@@@2@@__crt_stdio_output@@AEAA_ND@Z 00000001800f2df0 f i libucrtd:output.obj
 0002:00084190       ?write_stored_string_tchar@?$output_processor@DV?$string_output_adapter@D@__crt_stdio_output@@V?$standard_base@DV?$string_output_adapter@D@__crt_stdio_output@@@2@@__crt_stdio_output@@AEAA_ND@Z 00000001800f3190 f i libucrtd:output.obj
 0002:00084530       ?write_stored_string_tchar@?$output_processor@_WV?$stream_output_adapter@_W@__crt_stdio_output@@V?$format_validation_base@_WV?$stream_output_adapter@_W@__crt_stdio_output@@@2@@__crt_stdio_output@@AEAA_N_W@Z 00000001800f3530 f i libucrtd:output.obj
 0002:00084910       ?write_stored_string_tchar@?$output_processor@_WV?$stream_output_adapter@_W@__crt_stdio_output@@V?$positional_parameter_base@_WV?$stream_output_adapter@_W@__crt_stdio_output@@@2@@__crt_stdio_output@@AEAA_N_W@Z 00000001800f3910 f i libucrtd:output.obj
 0002:00084cf0       ?write_stored_string_tchar@?$output_processor@_WV?$stream_output_adapter@_W@__crt_stdio_output@@V?$standard_base@_WV?$stream_output_adapter@_W@__crt_stdio_output@@@2@@__crt_stdio_output@@AEAA_N_W@Z 00000001800f3cf0 f i libucrtd:output.obj
 0002:000850d0       ?write_stored_string_tchar@?$output_processor@_WV?$string_output_adapter@_W@__crt_stdio_output@@V?$format_validation_base@_WV?$string_output_adapter@_W@__crt_stdio_output@@@2@@__crt_stdio_output@@AEAA_N_W@Z 00000001800f40d0 f i libucrtd:output.obj
 0002:000854b0       ?write_stored_string_tchar@?$output_processor@_WV?$string_output_adapter@_W@__crt_stdio_output@@V?$positional_parameter_base@_WV?$string_output_adapter@_W@__crt_stdio_output@@@2@@__crt_stdio_output@@AEAA_N_W@Z 00000001800f44b0 f i libucrtd:output.obj
 0002:00085890       ?write_stored_string_tchar@?$output_processor@_WV?$string_output_adapter@_W@__crt_stdio_output@@V?$standard_base@_WV?$string_output_adapter@_W@__crt_stdio_output@@@2@@__crt_stdio_output@@AEAA_N_W@Z 00000001800f4890 f i libucrtd:output.obj
 0002:00085c70       ?write_string@?$stream_output_adapter@D@__crt_stdio_output@@QEBAXQEBDHQEAHAEAV__crt_cached_ptd_host@@@Z 00000001800f4c70 f i libucrtd:output.obj
 0002:00085d10       ?write_string@?$stream_output_adapter@_W@__crt_stdio_output@@QEBAXQEB_WHQEAHAEAV__crt_cached_ptd_host@@@Z 00000001800f4d10 f i libucrtd:output.obj
 0002:00085db0       ?write_string@?$string_output_adapter@D@__crt_stdio_output@@QEBAXQEBDHQEAHAEAV__crt_cached_ptd_host@@@Z 00000001800f4db0 f i libucrtd:output.obj
 0002:00085f70       ?write_string@?$string_output_adapter@_W@__crt_stdio_output@@QEBAXQEB_WHQEAHAEAV__crt_cached_ptd_host@@@Z 00000001800f4f70 f i libucrtd:output.obj
 0002:00086140       ?write_string_impl@?$output_adapter_common@DV?$stream_output_adapter@D@__crt_stdio_output@@@__crt_stdio_output@@IEBAXQEBDHQEAHAEAV__crt_cached_ptd_host@@@Z 00000001800f5140 f i libucrtd:output.obj
 0002:000862b0       ?write_string_impl@?$output_adapter_common@_WV?$stream_output_adapter@_W@__crt_stdio_output@@@__crt_stdio_output@@IEBAXQEB_WHQEAHAEAV__crt_cached_ptd_host@@@Z 00000001800f52b0 f i libucrtd:output.obj
 0002:00086420       __acrt_disable_global_locale_sync 00000001800f5420 f i libucrtd:output.obj
 0002:00086450       __acrt_enable_global_locale_sync 00000001800f5450 f i libucrtd:output.obj
 0002:00086490       __acrt_isleadbyte_l_noupdate 00000001800f5490 f i libucrtd:output.obj
 0002:000864d0       __acrt_locale_changed      00000001800f54d0 f i libucrtd:output.obj
 0002:00086500       __acrt_locale_get_ctype_array_value 00000001800f5500 f i libucrtd:output.obj
 0002:00086550       __ascii_iswalpha           00000001800f5550 f i libucrtd:output.obj
 0002:000865a0       __ascii_toupper            00000001800f55a0 f i libucrtd:output.obj
 0002:000865d0       __ascii_towupper           00000001800f55d0 f i libucrtd:output.obj
 0002:000865f0       __stdio_common_vfprintf    00000001800f55f0 f   libucrtd:output.obj
 0002:00086690       __stdio_common_vfprintf_p  00000001800f5690 f   libucrtd:output.obj
 0002:00086730       __stdio_common_vfprintf_s  00000001800f5730 f   libucrtd:output.obj
 0002:000867d0       __stdio_common_vfwprintf   00000001800f57d0 f   libucrtd:output.obj
 0002:00086870       __stdio_common_vfwprintf_p 00000001800f5870 f   libucrtd:output.obj
 0002:00086910       __stdio_common_vfwprintf_s 00000001800f5910 f   libucrtd:output.obj
 0002:000869b0       __stdio_common_vsnprintf_s 00000001800f59b0 f   libucrtd:output.obj
 0002:00086a70       __stdio_common_vsnwprintf_s 00000001800f5a70 f   libucrtd:output.obj
 0002:00086b30       __stdio_common_vsprintf    00000001800f5b30 f   libucrtd:output.obj
 0002:00086be0       __stdio_common_vsprintf_p  00000001800f5be0 f   libucrtd:output.obj
 0002:00086c90       __stdio_common_vsprintf_s  00000001800f5c90 f   libucrtd:output.obj
 0002:00086d40       __stdio_common_vswprintf   00000001800f5d40 f   libucrtd:output.obj
 0002:00086df0       __stdio_common_vswprintf_p 00000001800f5df0 f   libucrtd:output.obj
 0002:00086ea0       __stdio_common_vswprintf_s 00000001800f5ea0 f   libucrtd:output.obj
 0002:00086f50       _ctype_fast_check_internal 00000001800f5f50 f i libucrtd:output.obj
 0002:00086f80       _isdigit_fast_internal     00000001800f5f80 f i libucrtd:output.obj
 0002:00086fb0       _tolower_fast_internal     00000001800f5fb0 f i libucrtd:output.obj
 0002:00088140       _makepath                  00000001800f7140 f   libucrtd:makepath.obj
 0002:000881a0       _makepath_s                00000001800f71a0 f   libucrtd:makepath.obj
 0002:00088200       _wmakepath                 00000001800f7200 f   libucrtd:makepath.obj
 0002:00088260       _wmakepath_s               00000001800f7260 f   libucrtd:makepath.obj
 0002:0008b260       ??$tcsncpy_s@AEAPEAD_KAEAPEBDAEB_K@?$__crt_char_traits@D@@SAHAEAPEAD$$QEA_KAEAPEBDAEB_K@Z 00000001800fa260 f i libucrtd:splitpath.obj
 0002:0008b2c0       ??$tcsncpy_s@AEAPEAD_KAEAPEBDH@?$__crt_char_traits@D@@SAHAEAPEAD$$QEA_KAEAPEBD$$QEAH@Z 00000001800fa2c0 f i libucrtd:splitpath.obj
 0002:0008b320       ??$tcsncpy_s@AEAPEA_W_KAEAPEB_WAEB_K@?$__crt_char_traits@_W@@SAHAEAPEA_W$$QEA_KAEAPEB_WAEB_K@Z 00000001800fa320 f i libucrtd:splitpath.obj
 0002:0008b380       ??$tcsncpy_s@AEAPEA_W_KAEAPEB_WH@?$__crt_char_traits@_W@@SAHAEAPEA_W$$QEA_KAEAPEB_W$$QEAH@Z 00000001800fa380 f i libucrtd:splitpath.obj
 0002:0008b6d0       _splitpath                 00000001800fa6d0 f   libucrtd:splitpath.obj
 0002:0008b720       _splitpath_s               00000001800fa720 f   libucrtd:splitpath.obj
 0002:0008b7e0       _wsplitpath                00000001800fa7e0 f   libucrtd:splitpath.obj
 0002:0008b830       _wsplitpath_s              00000001800fa830 f   libucrtd:splitpath.obj
 0002:0008bf20       wcscpy_s                   00000001800faf20 f   libucrtd:wcscpy_s.obj
 0002:0008bf60       __p__crtDbgFlag            00000001800faf60 f   libucrtd:debug_heap.obj
 0002:0008bf70       __p__crtBreakAlloc         00000001800faf70 f   libucrtd:debug_heap.obj
 0002:0008bf80       _CrtGetAllocHook           00000001800faf80 f   libucrtd:debug_heap.obj
 0002:0008bf90       _CrtSetAllocHook           00000001800faf90 f   libucrtd:debug_heap.obj
 0002:0008bfc0       _CrtGetDumpClient          00000001800fafc0 f   libucrtd:debug_heap.obj
 0002:0008bfd0       _CrtSetDumpClient          00000001800fafd0 f   libucrtd:debug_heap.obj
 0002:0008c000       _CrtCheckMemory            00000001800fb000 f   libucrtd:debug_heap.obj
 0002:0008c1a0       _CrtDoForAllClientObjects  00000001800fb1a0 f   libucrtd:debug_heap.obj
 0002:0008c2f0       _CrtDumpMemoryLeaks        00000001800fb2f0 f   libucrtd:debug_heap.obj
 0002:0008c3d0       _CrtIsMemoryBlock          00000001800fb3d0 f   libucrtd:debug_heap.obj
 0002:0008c510       _CrtIsValidHeapPointer     00000001800fb510 f   libucrtd:debug_heap.obj
 0002:0008c560       _CrtIsValidPointer         00000001800fb560 f   libucrtd:debug_heap.obj
 0002:0008c5a0       _CrtMemCheckpoint          00000001800fb5a0 f   libucrtd:debug_heap.obj
 0002:0008c830       _CrtMemDifference          00000001800fb830 f   libucrtd:debug_heap.obj
 0002:0008cb90       _CrtMemDumpAllObjectsSince 00000001800fbb90 f   libucrtd:debug_heap.obj
 0002:0008cbf0       _CrtMemDumpStatistics      00000001800fbbf0 f   libucrtd:debug_heap.obj
 0002:0008cd90       _CrtReportBlockType        00000001800fbd90 f   libucrtd:debug_heap.obj
 0002:0008cdd0       _CrtSetBreakAlloc          00000001800fbdd0 f   libucrtd:debug_heap.obj
 0002:0008ce00       _CrtSetDbgFlag             00000001800fbe00 f   libucrtd:debug_heap.obj
 0002:0008cf60       _aligned_free_dbg          00000001800fbf60 f   libucrtd:debug_heap.obj
 0002:0008d050       _aligned_malloc_dbg        00000001800fc050 f   libucrtd:debug_heap.obj
 0002:0008d0a0       _aligned_msize_dbg         00000001800fc0a0 f   libucrtd:debug_heap.obj
 0002:0008d270       _aligned_offset_malloc_dbg 00000001800fc270 f   libucrtd:debug_heap.obj
 0002:0008d560       _aligned_offset_realloc_dbg 00000001800fc560 f   libucrtd:debug_heap.obj
 0002:0008da60       _aligned_offset_recalloc_dbg 00000001800fca60 f   libucrtd:debug_heap.obj
 0002:0008db80       _aligned_realloc_dbg       00000001800fcb80 f   libucrtd:debug_heap.obj
 0002:0008dbd0       _aligned_recalloc_dbg      00000001800fcbd0 f   libucrtd:debug_heap.obj
 0002:0008dc30       _calloc_dbg                00000001800fcc30 f   libucrtd:debug_heap.obj
 0002:0008dcd0       _expand_dbg                00000001800fccd0 f   libucrtd:debug_heap.obj
 0002:0008de10       _free_dbg                  00000001800fce10 f   libucrtd:debug_heap.obj
 0002:0008de80       _malloc_dbg                00000001800fce80 f   libucrtd:debug_heap.obj
 0002:0008dec0       _msize_dbg                 00000001800fcec0 f   libucrtd:debug_heap.obj
 0002:0008e060       _realloc_dbg               00000001800fd060 f   libucrtd:debug_heap.obj
 0002:0008e0e0       _recalloc_dbg              00000001800fd0e0 f   libucrtd:debug_heap.obj
 0002:0008f9c0       _CrtSetDbgBlockType        00000001800fe9c0 f   libucrtd:debug_heap.obj
 0002:00091840       ??0_LocaleUpdate@@QEAA@QEAU__crt_locale_pointers@@@Z 0000000180100840 f i libucrtd:debug_heap.obj
 0002:000919a0       ??1_LocaleUpdate@@QEAA@XZ  00000001801009a0 f i libucrtd:debug_heap.obj
 0002:000919e0       ?GetLocaleT@_LocaleUpdate@@QEAAPEAU__crt_locale_pointers@@XZ 00000001801009e0 f i libucrtd:debug_heap.obj
 0002:00091a00       __acrt_get_locale_data_prefix 0000000180100a00 f i libucrtd:debug_heap.obj
 0002:00091a30       _chvalidchk_l              0000000180100a30 f i libucrtd:debug_heap.obj
 0002:00091a70       _ischartype_l              0000000180100a70 f i libucrtd:debug_heap.obj
 0002:00091b20       _set_abort_behavior        0000000180100b20 f   libucrtd:abort.obj
 0002:00091b70       abort                      0000000180100b70 f   libucrtd:abort.obj
 0002:00091c10       ??$__crt_fast_decode_pointer@P6AXPEB_W00I_K@Z@@YAP6AXPEB_W00I_K@ZQ6AX000I1@Z@Z 0000000180100c10 f i libucrtd:invalid_parameter.obj
 0002:00091c60       ??$__crt_fast_encode_pointer@P6AXPEB_W00I_K@Z@@YAP6AXPEB_W00I_K@ZQ6AX000I1@Z@Z 0000000180100c60 f i libucrtd:invalid_parameter.obj
 0002:00091cb0       ??$initialize_from_array@$$BY00Q6AXPEB_W00I_K@Z@?$dual_state_global@P6AXPEB_W00I_K@Z@__crt_state_management@@QEAAXAEAY00Q6AXPEB_W00I_K@Z@Z 0000000180100cb0 f i libucrtd:invalid_parameter.obj
 0002:00091e20       ?check_synchronize_global_state_index@__crt_cached_ptd_host@@AEAA_KXZ 0000000180100e20 f i libucrtd:invalid_parameter.obj
 0002:00091e90       ?dangerous_get_state_array@?$dual_state_global@P6AXPEB_W00I_K@Z@__crt_state_management@@QEAAPEAP6AXPEB_W00I_K@ZXZ 0000000180100e90 f i libucrtd:invalid_parameter.obj
 0002:00091ea0       ?get_current_global_state_index@__crt_cached_ptd_host@@QEAA_KXZ 0000000180100ea0 f i libucrtd:invalid_parameter.obj
 0002:00091ec0       ?get_raw_ptd_noexit@__crt_cached_ptd_host@@QEAAPEAU__acrt_ptd@@XZ 0000000180100ec0 f i libucrtd:invalid_parameter.obj
 0002:00091ee0       ?try_synchronize_per_thread_data@__crt_cached_ptd_host@@AEAAPEAU__acrt_ptd@@XZ 0000000180100ee0 f i libucrtd:invalid_parameter.obj
 0002:00091f20       ?value@?$dual_state_global@P6AXPEB_W00I_K@Z@__crt_state_management@@QEAAAEAP6AXPEB_W00I_K@ZAEAV__crt_cached_ptd_host@@@Z 0000000180100f20 f i libucrtd:invalid_parameter.obj
 0002:00091f50       ?value@?$dual_state_global@P6AXPEB_W00I_K@Z@__crt_state_management@@QEAAAEAP6AXPEB_W00I_K@ZXZ 0000000180100f50 f i libucrtd:invalid_parameter.obj
 0002:00091f80       __acrt_call_reportfault    0000000180100f80 f   libucrtd:invalid_parameter.obj
 0002:00092100       __acrt_initialize_invalid_parameter_handler 0000000180101100 f   libucrtd:invalid_parameter.obj
 0002:00092140       _get_invalid_parameter_handler 0000000180101140 f   libucrtd:invalid_parameter.obj
 0002:00092170       _get_thread_local_invalid_parameter_handler 0000000180101170 f   libucrtd:invalid_parameter.obj
 0002:000921b0       _invalid_parameter         00000001801011b0 f   libucrtd:invalid_parameter.obj
 0002:00092240       _invalid_parameter_internal 0000000180101240 f   libucrtd:invalid_parameter.obj
 0002:000923c0       _invalid_parameter_noinfo  00000001801013c0 f   libucrtd:invalid_parameter.obj
 0002:000923f0       _invalid_parameter_noinfo_noreturn 00000001801013f0 f   libucrtd:invalid_parameter.obj
 0002:00092440       _invoke_watson             0000000180101440 f   libucrtd:invalid_parameter.obj
 0002:000924c0       _set_invalid_parameter_handler 00000001801014c0 f   libucrtd:invalid_parameter.obj
 0002:00092530       _set_thread_local_invalid_parameter_handler 0000000180101530 f   libucrtd:invalid_parameter.obj
 0002:00092580       ??$is_overflow_condition@_K@__crt_strtox@@YA_NI_K@Z 0000000180101580 f i libucrtd:atox.obj
 0002:00092610       ??$make_c_string_character_source@D$$T@__crt_strtox@@YA?AV?$c_string_character_source@D@0@QEBD$$T@Z 0000000180101610 f i libucrtd:atox.obj
 0002:00092650       ??$make_c_string_character_source@_W$$T@__crt_strtox@@YA?AV?$c_string_character_source@_W@0@QEB_W$$T@Z 0000000180101650 f i libucrtd:atox.obj
 0002:00092690       ??$parse_integer@KV?$c_string_character_source@D@__crt_strtox@@$00@__crt_strtox@@YAKAEAV__crt_cached_ptd_host@@V?$c_string_character_source@D@0@H_N@Z 0000000180101690 f i libucrtd:atox.obj
 0002:00092c80       ??$parse_integer@KV?$c_string_character_source@_W@__crt_strtox@@$00@__crt_strtox@@YAKAEAV__crt_cached_ptd_host@@V?$c_string_character_source@_W@0@H_N@Z 0000000180101c80 f i libucrtd:atox.obj
 0002:00093280       ??$parse_integer@_KV?$c_string_character_source@D@__crt_strtox@@$00@__crt_strtox@@YA_KAEAV__crt_cached_ptd_host@@V?$c_string_character_source@D@0@H_N@Z 0000000180102280 f i libucrtd:atox.obj
 0002:000938e0       ??$parse_integer@_KV?$c_string_character_source@_W@__crt_strtox@@$00@__crt_strtox@@YA_KAEAV__crt_cached_ptd_host@@V?$c_string_character_source@_W@0@H_N@Z 00000001801028e0 f i libucrtd:atox.obj
 0002:00093f50       ??$parse_integer_from_string@JD$$T@__crt_strtox@@YAJQEBD$$THQEAU__crt_locale_pointers@@@Z 0000000180102f50 f i libucrtd:atox.obj
 0002:00094000       ??$parse_integer_from_string@J_W$$T@__crt_strtox@@YAJQEB_W$$THQEAU__crt_locale_pointers@@@Z 0000000180103000 f i libucrtd:atox.obj
 0002:000940b0       ??$parse_integer_from_string@_JD$$T@__crt_strtox@@YA_JQEBD$$THQEAU__crt_locale_pointers@@@Z 00000001801030b0 f i libucrtd:atox.obj
 0002:00094160       ??$parse_integer_from_string@_J_W$$T@__crt_strtox@@YA_JQEB_W$$THQEAU__crt_locale_pointers@@@Z 0000000180103160 f i libucrtd:atox.obj
 0002:00094210       ?is_space@__crt_strtox@@YA_NDQEAU__crt_locale_pointers@@@Z 0000000180103210 f i libucrtd:atox.obj
 0002:00094270       ?is_space@__crt_strtox@@YA_N_WPEAU__crt_locale_pointers@@@Z 0000000180103270 f i libucrtd:atox.obj
 0002:000942c0       ?maximum_signed_value@__crt_strtox@@YA_J_K@Z 00000001801032c0 f i libucrtd:atox.obj
 0002:000942e0       ?minimum_signed_value@__crt_strtox@@YA_J_K@Z 00000001801032e0 f i libucrtd:atox.obj
 0002:00094300       _atoi64                    0000000180103300 f   libucrtd:atox.obj
 0002:00094330       _atoi64_l                  0000000180103330 f   libucrtd:atox.obj
 0002:00094370       _atoi_l                    0000000180103370 f   libucrtd:atox.obj
 0002:000943b0       _atol_l                    00000001801033b0 f   libucrtd:atox.obj
 0002:000943f0       _atoll_l                   00000001801033f0 f   libucrtd:atox.obj
 0002:00094430       _wtoi                      0000000180103430 f   libucrtd:atox.obj
 0002:00094460       _wtoi64                    0000000180103460 f   libucrtd:atox.obj
 0002:00094490       _wtoi64_l                  0000000180103490 f   libucrtd:atox.obj
 0002:000944d0       _wtoi_l                    00000001801034d0 f   libucrtd:atox.obj
 0002:00094510       _wtol                      0000000180103510 f   libucrtd:atox.obj
 0002:00094540       _wtol_l                    0000000180103540 f   libucrtd:atox.obj
 0002:00094580       _wtoll                     0000000180103580 f   libucrtd:atox.obj
 0002:000945b0       _wtoll_l                   00000001801035b0 f   libucrtd:atox.obj
 0002:000945f0       atoi                       00000001801035f0 f   libucrtd:atox.obj
 0002:00094620       atol                       0000000180103620 f   libucrtd:atox.obj
 0002:00094650       atoll                      0000000180103650 f   libucrtd:atox.obj
 0002:00094680       wcsncmp                    0000000180103680 f   libucrtd:wcsncmp.obj
 0002:00094730       free                       0000000180103730 f   libucrtd:free.obj
 0002:00094760       malloc                     0000000180103760 f   libucrtd:malloc.obj
 0002:00094790       _CrtGetReportHook          0000000180103790 f   libucrtd:dbgrptt.obj
 0002:000947a0       _CrtSetReportFile          00000001801037a0 f   libucrtd:dbgrptt.obj
 0002:00094960       _CrtSetReportHook          0000000180103960 f   libucrtd:dbgrptt.obj
 0002:000949a0       _CrtSetReportMode          00000001801039a0 f   libucrtd:dbgrptt.obj
 0002:00094bd0       _VCrtDbgReportA            0000000180103bd0 f   libucrtd:dbgrptt.obj
 0002:00095870       _VCrtDbgReportW            0000000180104870 f   libucrtd:dbgrptt.obj
 0002:00096750       _snprintf_s                0000000180105750 f i libucrtd:dbgrptt.obj
 0002:000967f0       _vsnprintf_s               00000001801057f0 f i libucrtd:dbgrptt.obj
 0002:00096850       _vsnprintf_s_l             0000000180105850 f i libucrtd:dbgrptt.obj
 0002:00096ac0       ?get_doserrno@__crt_cached_ptd_host@@QEAA@XZ 0000000180105ac0 f i libucrtd:errno.obj
 0002:00096ae0       ?set@?$cached@K@__crt_cached_ptd_host@@QEAAKK@Z 0000000180105ae0 f i libucrtd:errno.obj
 0002:00096b10       __acrt_errno_from_os_error 0000000180105b10 f   libucrtd:errno.obj
 0002:00096c10       __acrt_errno_map_os_error  0000000180105c10 f   libucrtd:errno.obj
 0002:00096c50       __acrt_errno_map_os_error_ptd 0000000180105c50 f   libucrtd:errno.obj
 0002:00096cc0       __doserrno                 0000000180105cc0 f   libucrtd:errno.obj
 0002:00096d00       _errno                     0000000180105d00 f   libucrtd:errno.obj
 0002:00096d40       _get_doserrno              0000000180105d40 f   libucrtd:errno.obj
 0002:00096e30       _get_errno                 0000000180105e30 f   libucrtd:errno.obj
 0002:00096f20       _set_doserrno              0000000180105f20 f   libucrtd:errno.obj
 0002:00096f60       _set_errno                 0000000180105f60 f   libucrtd:errno.obj
 0002:00096fa0       ??$__acrt_convert_wcs_mbs_cp@_WDV<lambda_f788ae46380686e8b737efdd8c720d07>@@U__crt_win32_buffer_no_resizing@@@@YAHQEB_WAEAV?$__crt_win32_buffer@DU__crt_win32_buffer_no_resizing@@@@AEBV<lambda_f788ae46380686e8b737efdd8c720d07>@@I@Z 0000000180105fa0 f i libucrtd:getmodulefilenamea.obj
 0002:000971c0       ??$__acrt_wcs_to_mbs_cp@U__crt_win32_buffer_no_resizing@@@@YAHQEB_WAEAV?$__crt_win32_buffer@DU__crt_win32_buffer_no_resizing@@@@I@Z 00000001801061c0 f i libucrtd:getmodulefilenamea.obj
 0002:00097220       ??0?$__crt_win32_buffer@DU__crt_win32_buffer_no_resizing@@@@QEAA@QEAD_K@Z 0000000180106220 f i libucrtd:getmodulefilenamea.obj
 0002:000972a0       ??1?$__crt_win32_buffer@DU__crt_win32_buffer_no_resizing@@@@QEAA@XZ 00000001801062a0 f i libucrtd:getmodulefilenamea.obj
 0002:000972d0       ??R<lambda_f788ae46380686e8b737efdd8c720d07>@@QEBA@IQEB_WQEAD_K@Z 00000001801062d0 f i libucrtd:getmodulefilenamea.obj
 0002:00097340       ?__acrt_get_utf8_acp_compatibility_codepage@@YAIXZ 0000000180106340 f i libucrtd:getmodulefilenamea.obj
 0002:00097410       ?_deallocate@?$__crt_win32_buffer@DU__crt_win32_buffer_no_resizing@@@@AEAAXXZ 0000000180106410 f i libucrtd:getmodulefilenamea.obj
 0002:00097480       ?allocate@?$__crt_win32_buffer@DU__crt_win32_buffer_no_resizing@@@@QEAAH_K@Z 0000000180106480 f i libucrtd:getmodulefilenamea.obj
 0002:00097520       ?allocate@__crt_win32_buffer_no_resizing@@SAHQEAPEAX_KAEBV__crt_win32_buffer_empty_debug_info@@@Z 0000000180106520 f i libucrtd:getmodulefilenamea.obj
 0002:00097560       ?capacity@?$__crt_win32_buffer@DU__crt_win32_buffer_no_resizing@@@@QEBA_KXZ 0000000180106560 f i libucrtd:getmodulefilenamea.obj
 0002:00097580       ?data@?$__crt_win32_buffer@DU__crt_win32_buffer_no_resizing@@@@QEAAPEADXZ 0000000180106580 f i libucrtd:getmodulefilenamea.obj
 0002:000975a0       ?deallocate@__crt_win32_buffer_no_resizing@@SAXQEAXAEBV__crt_win32_buffer_empty_debug_info@@@Z 00000001801065a0 f i libucrtd:getmodulefilenamea.obj
 0002:000975b0       ?debug_info@?$__crt_win32_buffer@DU__crt_win32_buffer_no_resizing@@@@QEBAAEBV__crt_win32_buffer_empty_debug_info@@XZ 00000001801065b0 f i libucrtd:getmodulefilenamea.obj
 0002:000975c0       ?set_to_nullptr@?$__crt_win32_buffer@DU__crt_win32_buffer_no_resizing@@@@QEAAXXZ 00000001801065c0 f i libucrtd:getmodulefilenamea.obj
 0002:00097610       ?size@?$__crt_win32_buffer@DU__crt_win32_buffer_no_resizing@@@@QEAAX_K@Z 0000000180106610 f i libucrtd:getmodulefilenamea.obj
 0002:00097630       ?size@?$__crt_win32_buffer@DU__crt_win32_buffer_no_resizing@@@@QEBA_KXZ 0000000180106630 f i libucrtd:getmodulefilenamea.obj
 0002:00097650       __acrt_GetModuleFileNameA  0000000180106650 f   libucrtd:getmodulefilenamea.obj
 0002:00097a80       ??$message_box@$$TAEBQEBDAEBQEBDK@?$__crt_char_traits@D@@SAH$$QEA$$TAEBQEBD1$$QEAK@Z 0000000180106a80 f i libucrtd:crtmbox.obj
 0002:00097ae0       ??$message_box@$$TAEBQEB_WAEBQEB_WK@?$__crt_char_traits@_W@@SAH$$QEA$$TAEBQEB_W1$$QEAK@Z 0000000180106ae0 f i libucrtd:crtmbox.obj
 0002:00097b40       ??$message_box@PEAUHWND__@@AEBQEBDAEBQEBDAEBI@?$__crt_char_traits@D@@SAH$$QEAPEAUHWND__@@AEBQEBD1AEBI@Z 0000000180106b40 f i libucrtd:crtmbox.obj
 0002:00097ba0       ??$message_box@PEAUHWND__@@AEBQEB_WAEBQEB_WAEBI@?$__crt_char_traits@_W@@SAH$$QEAPEAUHWND__@@AEBQEB_W1AEBI@Z 0000000180106ba0 f i libucrtd:crtmbox.obj
 0002:00097c00       ??$output_debug_string@AEBQEBD@?$__crt_char_traits@D@@SAXAEBQEBD@Z 0000000180106c00 f i libucrtd:crtmbox.obj
 0002:00097c30       ??$output_debug_string@AEBQEB_W@?$__crt_char_traits@_W@@SAXAEBQEB_W@Z 0000000180106c30 f i libucrtd:crtmbox.obj
 0002:00097c60       __acrt_show_narrow_message_box 0000000180106c60 f   libucrtd:crtmbox.obj
 0002:00097ca0       __acrt_show_wide_message_box 0000000180106ca0 f   libucrtd:crtmbox.obj
 0002:00097ce0       __acrt_initialize_locks    0000000180106ce0 f   libucrtd:locks.obj
 0002:00097d70       __acrt_lock                0000000180106d70 f   libucrtd:locks.obj
 0002:00097db0       __acrt_uninitialize_locks  0000000180106db0 f   libucrtd:locks.obj
 0002:00097e30       __acrt_unlock              0000000180106e30 f   libucrtd:locks.obj
 0002:00097e70       _lock_locales              0000000180106e70 f   libucrtd:locks.obj
 0002:00097e90       _unlock_locales            0000000180106e90 f   libucrtd:locks.obj
 0002:00097eb0       ??$?B$$A6AXH@Z@__crt_fast_encoded_nullptr_t@@QEBAP6AXH@ZXZ 0000000180106eb0 f i libucrtd:signal.obj
 0002:00097fc0       ??$__crt_fast_decode_pointer@P6AXH@Z@@YAP6AXH@ZQ6AXH@Z@Z 0000000180106fc0 f i libucrtd:signal.obj
 0002:00098010       ??$__crt_fast_encode_pointer@P6AXH@Z@@YAP6AXH@ZQ6AXH@Z@Z 0000000180107010 f i libucrtd:signal.obj
 0002:00098330       ?initialize@?$dual_state_global@P6AXH@Z@__crt_state_management@@QEAAXQ6AXH@Z@Z 0000000180107330 f i libucrtd:signal.obj
 0002:00098500       ?value@?$dual_state_global@P6AXH@Z@__crt_state_management@@QEAAAEAP6AXH@ZXZ 0000000180107500 f i libucrtd:signal.obj
 0002:00098530       __acrt_get_sigabrt_handler 0000000180107530 f   libucrtd:signal.obj
 0002:00098570       __acrt_initialize_signal_handlers 0000000180107570 f   libucrtd:signal.obj
 0002:000985e0       __fpecode                  00000001801075e0 f   libucrtd:signal.obj
 0002:00098600       __pxcptinfoptrs            0000000180107600 f   libucrtd:signal.obj
 0002:00098620       raise                      0000000180107620 f   libucrtd:signal.obj
 0002:00098c60       signal                     0000000180107c60 f   libucrtd:signal.obj
 0002:00098fe0       ??$?RU__acrt_ptd@@@__crt_internal_free_policy@@QEBAXQEBU__acrt_ptd@@@Z 0000000180107fe0 f i libucrtd:per_thread_data.obj
 0002:00099350       ??$internal_get_ptd_head@P6APEAXK@Z@@YAPEAU__acrt_ptd@@P6APEAXK@Z@Z 0000000180108350 f i libucrtd:per_thread_data.obj
 0002:000993a0       ??$try_get_ptd_head@P6APEAXK@Z@@YAPEAU__acrt_ptd@@P6APEAXK@Z@Z 00000001801083a0 f i libucrtd:per_thread_data.obj
 0002:00099670       ??0?$__crt_unique_heap_ptr@U__acrt_ptd@@U__crt_internal_free_policy@@@@QEAA@QEAU__acrt_ptd@@@Z 0000000180108670 f i libucrtd:per_thread_data.obj
 0002:000996a0       ??1?$__crt_unique_heap_ptr@U__acrt_ptd@@U__crt_internal_free_policy@@@@QEAA@XZ 00000001801086a0 f i libucrtd:per_thread_data.obj
 0002:000996c0       ??B?$__crt_unique_heap_ptr@U__acrt_ptd@@U__crt_internal_free_policy@@@@QEBA_NXZ 00000001801086c0 f i libucrtd:per_thread_data.obj
 0002:00099aa0       ?dangerous_get_state_array@?$dual_state_global@PEAU__crt_locale_data@@@__crt_state_management@@QEAAPEAPEAU__crt_locale_data@@XZ 0000000180108aa0 f i libucrtd:per_thread_data.obj
 0002:00099cc0       ?detach@?$__crt_unique_heap_ptr@U__acrt_ptd@@U__crt_internal_free_policy@@@@QEAAPEAU__acrt_ptd@@XZ 0000000180108cc0 f i libucrtd:per_thread_data.obj
 0002:00099d00       ?get@?$__crt_unique_heap_ptr@U__acrt_ptd@@U__crt_internal_free_policy@@@@QEBAPEAU__acrt_ptd@@XZ 0000000180108d00 f i libucrtd:per_thread_data.obj
 0002:00099d20       ?get_current_state_index2@__crt_state_management@@YA_KXZ 0000000180108d20 f i libucrtd:per_thread_data.obj
 0002:00099d30       ?internal_get_ptd_head_slow@@YAPEAU__acrt_ptd@@XZ 0000000180108d30 f   libucrtd:per_thread_data.obj
 0002:00099fe0       ?is_valid@?$__crt_unique_heap_ptr@U__acrt_ptd@@U__crt_internal_free_policy@@@@QEBA_NXZ 0000000180108fe0 f i libucrtd:per_thread_data.obj
 0002:0009a020       ?release@?$__crt_unique_heap_ptr@U__acrt_ptd@@U__crt_internal_free_policy@@@@QEAAXXZ 0000000180109020 f i libucrtd:per_thread_data.obj
 0002:0009a150       ?value@?$dual_state_global@PEAU__crt_locale_data@@@__crt_state_management@@QEAAAEAPEAU__crt_locale_data@@XZ 0000000180109150 f i libucrtd:per_thread_data.obj
 0002:0009a180       __acrt_freeptd             0000000180109180 f   libucrtd:per_thread_data.obj
 0002:0009a1d0       __acrt_getptd              00000001801091d0 f   libucrtd:per_thread_data.obj
 0002:0009a200       __acrt_getptd_head         0000000180109200 f   libucrtd:per_thread_data.obj
 0002:0009a240       __acrt_getptd_noexit       0000000180109240 f   libucrtd:per_thread_data.obj
 0002:0009a290       __acrt_getptd_noexit_explicit 0000000180109290 f   libucrtd:per_thread_data.obj
 0002:0009a2c0       __acrt_initialize_ptd      00000001801092c0 f   libucrtd:per_thread_data.obj
 0002:0009a320       __acrt_uninitialize_ptd    0000000180109320 f   libucrtd:per_thread_data.obj
 0002:0009a360       __threadhandle             0000000180109360 f   libucrtd:per_thread_data.obj
 0002:0009a380       __threadid                 0000000180109380 f   libucrtd:per_thread_data.obj
 0002:0009a3a0       __acrt_app_verifier_enabled 00000001801093a0 f   libucrtd:peb_access.obj
 0002:0009a3f0       __acrt_is_secure_process   00000001801093f0 f   libucrtd:peb_access.obj
 0002:0009a8a0       __acrt_get_begin_thread_init_policy 00000001801098a0 f   libucrtd:win_policies.obj
 0002:0009a8c0       __acrt_get_developer_information_policy 00000001801098c0 f   libucrtd:win_policies.obj
 0002:0009a8e0       __acrt_get_process_end_policy 00000001801098e0 f   libucrtd:win_policies.obj
 0002:0009a900       __acrt_get_windowing_model_policy 0000000180109900 f   libucrtd:win_policies.obj
 0002:0009a980       ??$__acrt_convert_wcs_mbs_cp@D_WV<lambda_7c9dea7b4ca7285d2cdb541a38da6275>@@U__crt_win32_buffer_internal_dynamic_resizing@@@@YAHQEBDAEAV?$__crt_win32_buffer@_WU__crt_win32_buffer_internal_dynamic_resizing@@@@AEBV<lambda_7c9dea7b4ca7285d2cdb541a38da6275>@@I@Z 0000000180109980 f i libucrtd:argv_wildcards.obj
 0002:0009aba0       ??$__acrt_convert_wcs_mbs_cp@_WDV<lambda_d8593a27d1aa8c02be35c86a17d324c4>@@U__crt_win32_buffer_internal_dynamic_resizing@@@@YAHQEB_WAEAV?$__crt_win32_buffer@DU__crt_win32_buffer_internal_dynamic_resizing@@@@AEBV<lambda_d8593a27d1aa8c02be35c86a17d324c4>@@I@Z 0000000180109ba0 f i libucrtd:argv_wildcards.obj
 0002:0009adc0       ??$__acrt_mbs_to_wcs_cp@U__crt_win32_buffer_internal_dynamic_resizing@@@@YAHQEBDAEAV?$__crt_win32_buffer@_WU__crt_win32_buffer_internal_dynamic_resizing@@@@I@Z 0000000180109dc0 f i libucrtd:argv_wildcards.obj
 0002:0009ae20       ??$__acrt_wcs_to_mbs_cp@U__crt_win32_buffer_internal_dynamic_resizing@@@@YAHQEB_WAEAV?$__crt_win32_buffer@DU__crt_win32_buffer_internal_dynamic_resizing@@@@I@Z 0000000180109e20 f i libucrtd:argv_wildcards.obj
 0002:0009c7e0       ??$tcsncpy_s@AEAPEAD_KAEAPEADAEB_K@?$__crt_char_traits@D@@SAHAEAPEAD$$QEA_K0AEB_K@Z 000000018010b7e0 f i libucrtd:argv_wildcards.obj
 0002:0009c840       ??$tcsncpy_s@AEAPEA_W_KAEAPEA_WAEB_K@?$__crt_char_traits@_W@@SAHAEAPEA_W$$QEA_K0AEB_K@Z 000000018010b840 f i libucrtd:argv_wildcards.obj
 0002:0009c8a0       ??$tcsncpy_s@PEADAEB_KAEBQEBDAEB_K@?$__crt_char_traits@D@@SAH$$QEAPEADAEB_KAEBQEBD1@Z 000000018010b8a0 f i libucrtd:argv_wildcards.obj
 0002:0009c900       ??$tcsncpy_s@PEAD_KAEBQEBDAEB_K@?$__crt_char_traits@D@@SAH$$QEAPEAD$$QEA_KAEBQEBDAEB_K@Z 000000018010b900 f i libucrtd:argv_wildcards.obj
 0002:0009c960       ??$tcsncpy_s@PEA_WAEB_KAEBQEB_WAEB_K@?$__crt_char_traits@_W@@SAH$$QEAPEA_WAEB_KAEBQEB_W1@Z 000000018010b960 f i libucrtd:argv_wildcards.obj
 0002:0009c9c0       ??$tcsncpy_s@PEA_W_KAEBQEB_WAEB_K@?$__crt_char_traits@_W@@SAH$$QEAPEA_W$$QEA_KAEBQEB_WAEB_K@Z 000000018010b9c0 f i libucrtd:argv_wildcards.obj
 0002:0009ca20       ??$tcspbrk@AEAPEADAEAY02$$CBD@?$__crt_char_traits@D@@SAPEADAEAPEADAEAY02$$CBD@Z 000000018010ba20 f i libucrtd:argv_wildcards.obj
 0002:0009ca60       ??$tcspbrk@AEAPEA_WAEAY02$$CB_W@?$__crt_char_traits@_W@@SAPEA_WAEAPEA_WAEAY02$$CB_W@Z 000000018010ba60 f i libucrtd:argv_wildcards.obj
 0002:0009caa0       ??0?$__crt_unique_handle_t@U__crt_findfile_traits@@@@QEAA@QEAX@Z 000000018010baa0 f i libucrtd:argv_wildcards.obj
 0002:0009cad0       ??0?$__crt_win32_buffer@DU__crt_win32_buffer_internal_dynamic_resizing@@@@QEAA@XZ 000000018010bad0 f i libucrtd:argv_wildcards.obj
 0002:0009cb40       ??0?$__crt_win32_buffer@_WU__crt_win32_buffer_internal_dynamic_resizing@@@@QEAA@XZ 000000018010bb40 f i libucrtd:argv_wildcards.obj
 0002:0009cc30       ??1?$__crt_unique_handle_t@U__crt_findfile_traits@@@@QEAA@XZ 000000018010bc30 f i libucrtd:argv_wildcards.obj
 0002:0009cc50       ??1?$__crt_win32_buffer@DU__crt_win32_buffer_internal_dynamic_resizing@@@@QEAA@XZ 000000018010bc50 f i libucrtd:argv_wildcards.obj
 0002:0009cc80       ??1?$__crt_win32_buffer@_WU__crt_win32_buffer_internal_dynamic_resizing@@@@QEAA@XZ 000000018010bc80 f i libucrtd:argv_wildcards.obj
 0002:0009cdd0       ??R<lambda_7c9dea7b4ca7285d2cdb541a38da6275>@@QEBA@IQEBDQEA_W_K@Z 000000018010bdd0 f i libucrtd:argv_wildcards.obj
 0002:0009cf90       ??R<lambda_d8593a27d1aa8c02be35c86a17d324c4>@@QEBA@IQEB_WQEAD_K@Z 000000018010bf90 f i libucrtd:argv_wildcards.obj
 0002:0009d000       ?_deallocate@?$__crt_win32_buffer@DU__crt_win32_buffer_internal_dynamic_resizing@@@@AEAAXXZ 000000018010c000 f i libucrtd:argv_wildcards.obj
 0002:0009d070       ?_deallocate@?$__crt_win32_buffer@_WU__crt_win32_buffer_internal_dynamic_resizing@@@@AEAAXXZ 000000018010c070 f i libucrtd:argv_wildcards.obj
 0002:0009d0e0       ?allocate@?$__crt_win32_buffer@DU__crt_win32_buffer_internal_dynamic_resizing@@@@QEAAH_K@Z 000000018010c0e0 f i libucrtd:argv_wildcards.obj
 0002:0009d180       ?allocate@?$__crt_win32_buffer@_WU__crt_win32_buffer_internal_dynamic_resizing@@@@QEAAH_K@Z 000000018010c180 f i libucrtd:argv_wildcards.obj
 0002:0009d240       ?allocate@__crt_win32_buffer_internal_dynamic_resizing@@SAHQEAPEAX_KAEBV__crt_win32_buffer_empty_debug_info@@@Z 000000018010c240 f i libucrtd:argv_wildcards.obj
 0002:0009d3f0       ?capacity@?$__crt_win32_buffer@DU__crt_win32_buffer_internal_dynamic_resizing@@@@QEBA_KXZ 000000018010c3f0 f i libucrtd:argv_wildcards.obj
 0002:0009d410       ?capacity@?$__crt_win32_buffer@_WU__crt_win32_buffer_internal_dynamic_resizing@@@@QEBA_KXZ 000000018010c410 f i libucrtd:argv_wildcards.obj
 0002:0009d430       ?close@?$__crt_unique_handle_t@U__crt_findfile_traits@@@@QEAAXXZ 000000018010c430 f i libucrtd:argv_wildcards.obj
 0002:0009d480       ?close@__crt_findfile_traits@@SA_NPEAX@Z 000000018010c480 f i libucrtd:argv_wildcards.obj
 0002:0009d4d0       ?data@?$__crt_win32_buffer@DU__crt_win32_buffer_internal_dynamic_resizing@@@@QEAAPEADXZ 000000018010c4d0 f i libucrtd:argv_wildcards.obj
 0002:0009d4f0       ?data@?$__crt_win32_buffer@_WU__crt_win32_buffer_internal_dynamic_resizing@@@@QEAAPEA_WXZ 000000018010c4f0 f i libucrtd:argv_wildcards.obj
 0002:0009d510       ?deallocate@__crt_win32_buffer_internal_dynamic_resizing@@SAXQEAXAEBV__crt_win32_buffer_empty_debug_info@@@Z 000000018010c510 f i libucrtd:argv_wildcards.obj
 0002:0009d540       ?debug_info@?$__crt_win32_buffer@DU__crt_win32_buffer_internal_dynamic_resizing@@@@QEBAAEBV__crt_win32_buffer_empty_debug_info@@XZ 000000018010c540 f i libucrtd:argv_wildcards.obj
 0002:0009d550       ?debug_info@?$__crt_win32_buffer@_WU__crt_win32_buffer_internal_dynamic_resizing@@@@QEBAAEBV__crt_win32_buffer_empty_debug_info@@XZ 000000018010c550 f i libucrtd:argv_wildcards.obj
 0002:0009da60       ?get@?$__crt_unique_handle_t@U__crt_findfile_traits@@@@QEBAPEAXXZ 000000018010ca60 f i libucrtd:argv_wildcards.obj
 0002:0009db00       ?get_invalid_value@__crt_findfile_traits@@SAPEAXXZ 000000018010cb00 f i libucrtd:argv_wildcards.obj
 0002:0009dbe0       ?set_to_nullptr@?$__crt_win32_buffer@DU__crt_win32_buffer_internal_dynamic_resizing@@@@QEAAXXZ 000000018010cbe0 f i libucrtd:argv_wildcards.obj
 0002:0009dc30       ?set_to_nullptr@?$__crt_win32_buffer@_WU__crt_win32_buffer_internal_dynamic_resizing@@@@QEAAXXZ 000000018010cc30 f i libucrtd:argv_wildcards.obj
 0002:0009dc80       ?size@?$__crt_win32_buffer@DU__crt_win32_buffer_internal_dynamic_resizing@@@@QEAAX_K@Z 000000018010cc80 f i libucrtd:argv_wildcards.obj
 0002:0009dca0       ?size@?$__crt_win32_buffer@_WU__crt_win32_buffer_internal_dynamic_resizing@@@@QEAAX_K@Z 000000018010cca0 f i libucrtd:argv_wildcards.obj
 0002:0009dd20       ?strpbrk@@YAPEADQEADQEBD@Z 000000018010cd20 f i libucrtd:argv_wildcards.obj
 0002:0009dd50       ?wcspbrk@@YAPEA_WPEA_WPEB_W@Z 000000018010cd50 f i libucrtd:argv_wildcards.obj
 0002:0009dd80       __acrt_expand_narrow_argv_wildcards 000000018010cd80 f   libucrtd:argv_wildcards.obj
 0002:0009ddb0       __acrt_expand_wide_argv_wildcards 000000018010cdb0 f   libucrtd:argv_wildcards.obj
 0002:0009dde0       ??$?RU__crt_multibyte_data@@@__crt_internal_free_policy@@QEBAXQEBU__crt_multibyte_data@@@Z 000000018010cde0 f i libucrtd:mbctype.obj
 0002:0009dee0       ??$initialize_from_array@$$BY10BAA@E@?$dual_state_global@PEAE@__crt_state_management@@QEAAXAEAY10BAA@E@Z 000000018010cee0 f i libucrtd:mbctype.obj
 0002:0009df60       ??$initialize_from_array@$$BY10BAB@E@?$dual_state_global@PEAE@__crt_state_management@@QEAAXAEAY10BAB@E@Z 000000018010cf60 f i libucrtd:mbctype.obj
 0002:0009e080       ??0?$__crt_unique_heap_ptr@U__crt_multibyte_data@@U__crt_internal_free_policy@@@@QEAA@QEAU__crt_multibyte_data@@@Z 000000018010d080 f i libucrtd:mbctype.obj
 0002:0009e0b0       ??1?$__crt_unique_heap_ptr@U__crt_multibyte_data@@U__crt_internal_free_policy@@@@QEAA@XZ 000000018010d0b0 f i libucrtd:mbctype.obj
 0002:0009e0d0       ??B?$__crt_unique_heap_ptr@U__crt_multibyte_data@@U__crt_internal_free_policy@@@@QEBA_NXZ 000000018010d0d0 f i libucrtd:mbctype.obj
 0002:0009e370       ?dangerous_get_state_array@?$dual_state_global@PEAE@__crt_state_management@@QEAAPEAPEAEXZ 000000018010d370 f i libucrtd:mbctype.obj
 0002:0009e380       ?dangerous_get_state_array@?$dual_state_global@PEAU__crt_multibyte_data@@@__crt_state_management@@QEAAPEAPEAU__crt_multibyte_data@@XZ 000000018010d380 f i libucrtd:mbctype.obj
 0002:0009e390       ?detach@?$__crt_unique_heap_ptr@U__crt_multibyte_data@@U__crt_internal_free_policy@@@@QEAAPEAU__crt_multibyte_data@@XZ 000000018010d390 f i libucrtd:mbctype.obj
 0002:0009e3d0       ?get@?$__crt_unique_heap_ptr@U__crt_multibyte_data@@U__crt_internal_free_policy@@@@QEBAPEAU__crt_multibyte_data@@XZ 000000018010d3d0 f i libucrtd:mbctype.obj
 0002:0009e500       ?initialize@?$dual_state_global@PEAU__crt_multibyte_data@@@__crt_state_management@@QEAAXQEAU__crt_multibyte_data@@@Z 000000018010d500 f i libucrtd:mbctype.obj
 0002:0009e560       ?is_valid@?$__crt_unique_heap_ptr@U__crt_multibyte_data@@U__crt_internal_free_policy@@@@QEBA_NXZ 000000018010d560 f i libucrtd:mbctype.obj
 0002:0009e5a0       ?release@?$__crt_unique_heap_ptr@U__crt_multibyte_data@@U__crt_internal_free_policy@@@@QEAAXXZ 000000018010d5a0 f i libucrtd:mbctype.obj
 0002:0009f0c0       ?value@?$dual_state_global@PEAE@__crt_state_management@@QEAAAEAPEAEXZ 000000018010e0c0 f i libucrtd:mbctype.obj
 0002:0009f0f0       ?value@?$dual_state_global@PEAU__crt_multibyte_data@@@__crt_state_management@@QEAAAEAPEAU__crt_multibyte_data@@XZ 000000018010e0f0 f i libucrtd:mbctype.obj
 0002:0009f120       __acrt_initialize_multibyte 000000018010e120 f   libucrtd:mbctype.obj
 0002:0009f220       __acrt_should_sync_with_global_locale 000000018010e220 f i libucrtd:mbctype.obj
 0002:0009f270       __acrt_update_thread_multibyte_data 000000018010e270 f   libucrtd:mbctype.obj
 0002:0009f2b0       __p__mbcasemap             000000018010e2b0 f   libucrtd:mbctype.obj
 0002:0009f2d0       __p__mbctype               000000018010e2d0 f   libucrtd:mbctype.obj
 0002:0009f2f0       _getmbcp                   000000018010e2f0 f   libucrtd:mbctype.obj
 0002:0009f390       _setmbcp                   000000018010e390 f   libucrtd:mbctype.obj
 0002:0009f3e0       _setmbcp_nolock            000000018010e3e0 f   libucrtd:mbctype.obj
 0002:0009fcd0       _ismbbalnum                000000018010ecd0 f   libucrtd:ismbbyte.obj
 0002:0009fd00       _ismbbalnum_l              000000018010ed00 f   libucrtd:ismbbyte.obj
 0002:0009fd40       _ismbbalpha                000000018010ed40 f   libucrtd:ismbbyte.obj
 0002:0009fd70       _ismbbalpha_l              000000018010ed70 f   libucrtd:ismbbyte.obj
 0002:0009fdb0       _ismbbblank                000000018010edb0 f   libucrtd:ismbbyte.obj
 0002:0009fe00       _ismbbblank_l              000000018010ee00 f   libucrtd:ismbbyte.obj
 0002:0009fe60       _ismbbgraph                000000018010ee60 f   libucrtd:ismbbyte.obj
 0002:0009fe90       _ismbbgraph_l              000000018010ee90 f   libucrtd:ismbbyte.obj
 0002:0009fed0       _ismbbkalnum               000000018010eed0 f   libucrtd:ismbbyte.obj
 0002:0009ff00       _ismbbkalnum_l             000000018010ef00 f   libucrtd:ismbbyte.obj
 0002:0009ff40       _ismbbkana                 000000018010ef40 f   libucrtd:ismbbyte.obj
 0002:0009ff60       _ismbbkana_l               000000018010ef60 f   libucrtd:ismbbyte.obj
 0002:000a0010       _ismbbkprint               000000018010f010 f   libucrtd:ismbbyte.obj
 0002:000a0040       _ismbbkprint_l             000000018010f040 f   libucrtd:ismbbyte.obj
 0002:000a0080       _ismbbkpunct               000000018010f080 f   libucrtd:ismbbyte.obj
 0002:000a00b0       _ismbbkpunct_l             000000018010f0b0 f   libucrtd:ismbbyte.obj
 0002:000a00f0       _ismbblead                 000000018010f0f0 f   libucrtd:ismbbyte.obj
 0002:000a0120       _ismbblead_l               000000018010f120 f   libucrtd:ismbbyte.obj
 0002:000a0160       _ismbbprint                000000018010f160 f   libucrtd:ismbbyte.obj
 0002:000a0190       _ismbbprint_l              000000018010f190 f   libucrtd:ismbbyte.obj
 0002:000a01d0       _ismbbpunct                000000018010f1d0 f   libucrtd:ismbbyte.obj
 0002:000a0200       _ismbbpunct_l              000000018010f200 f   libucrtd:ismbbyte.obj
 0002:000a0240       _ismbbtrail                000000018010f240 f   libucrtd:ismbbyte.obj
 0002:000a0270       _ismbbtrail_l              000000018010f270 f   libucrtd:ismbbyte.obj
 0002:000a02b0       __acrt_initialize_command_line 000000018010f2b0 f   libucrtd:argv_data.obj
 0002:000a02e0       __acrt_uninitialize_command_line 000000018010f2e0 f   libucrtd:argv_data.obj
 0002:000a02f0       __p___argc                 000000018010f2f0 f   libucrtd:argv_data.obj
 0002:000a0300       __p___argv                 000000018010f300 f   libucrtd:argv_data.obj
 0002:000a0310       __p___wargv                000000018010f310 f   libucrtd:argv_data.obj
 0002:000a0320       __p__acmdln                000000018010f320 f   libucrtd:argv_data.obj
 0002:000a0330       __p__pgmptr                000000018010f330 f   libucrtd:argv_data.obj
 0002:000a0340       __p__wcmdln                000000018010f340 f   libucrtd:argv_data.obj
 0002:000a0350       __p__wpgmptr               000000018010f350 f   libucrtd:argv_data.obj
 0002:000a0360       _get_pgmptr                000000018010f360 f   libucrtd:argv_data.obj
 0002:000a0530       _get_wpgmptr               000000018010f530 f   libucrtd:argv_data.obj
 0002:000a0860       __acrt_MultiByteToWideChar 000000018010f860 f   libucrtd:multibytetowidechar.obj
 0002:000a0a40       __acrt_WideCharToMultiByte 000000018010fa40 f   libucrtd:widechartomultibyte.obj
 0002:000a0d90       __dcrt_get_narrow_environment_from_os 000000018010fd90 f   libucrtd:get_environment_from_os.obj
 0002:000a1040       __dcrt_get_wide_environment_from_os 0000000180110040 f   libucrtd:get_environment_from_os.obj
 0002:000a2e70       ??$get_or_create_environment_nolock@$$V@?$__crt_char_traits@D@@SAPEAPEADXZ 0000000180111e70 f i libucrtd:setenv.obj
 0002:000a2e90       ??$get_or_create_environment_nolock@$$V@?$__crt_char_traits@_W@@SAPEAPEA_WXZ 0000000180111e90 f i libucrtd:setenv.obj
 0002:000a2eb0       ??$set_environment_variable@AEBQEADQEAD@?$__crt_char_traits@D@@SAHAEBQEAD$$QEBQEAD@Z 0000000180111eb0 f i libucrtd:setenv.obj
 0002:000a2ef0       ??$set_environment_variable@AEBQEA_WQEA_W@?$__crt_char_traits@_W@@SAHAEBQEA_W$$QEBQEA_W@Z 0000000180111ef0 f i libucrtd:setenv.obj
 0002:000a2f30       ??$tcschr@AEBQEADD@?$__crt_char_traits@D@@SAPEADAEBQEAD$$QEAD@Z 0000000180111f30 f i libucrtd:setenv.obj
 0002:000a2f80       ??$tcschr@AEBQEA_WD@?$__crt_char_traits@_W@@SAPEA_WAEBQEA_W$$QEAD@Z 0000000180111f80 f i libucrtd:setenv.obj
 0002:000a2fd0       ??$tcscpy_s@AEAPEADAEB_KAEAPEAD@?$__crt_char_traits@D@@SAHAEAPEADAEB_K0@Z 0000000180111fd0 f i libucrtd:setenv.obj
 0002:000a3020       ??$tcscpy_s@AEAPEA_WAEB_KAEAPEA_W@?$__crt_char_traits@_W@@SAHAEAPEA_WAEB_K0@Z 0000000180112020 f i libucrtd:setenv.obj
 0002:000a3070       ??$tcscpy_s@AEBQEADAEB_KAEBQEAD@?$__crt_char_traits@D@@SAHAEBQEADAEB_K0@Z 0000000180112070 f i libucrtd:setenv.obj
 0002:000a30c0       ??$tcscpy_s@AEBQEA_WAEB_KAEBQEA_W@?$__crt_char_traits@_W@@SAHAEBQEA_WAEB_K0@Z 00000001801120c0 f i libucrtd:setenv.obj
 0002:000a3110       ??$tcslen@AEBQEAD@?$__crt_char_traits@D@@SA_KAEBQEAD@Z 0000000180112110 f i libucrtd:setenv.obj
 0002:000a3140       ??$tcslen@AEBQEA_W@?$__crt_char_traits@_W@@SA_KAEBQEA_W@Z 0000000180112140 f i libucrtd:setenv.obj
 0002:000a3170       ??$tcsnicoll@AEBQEBDAEAPEADAEB_K@?$__crt_char_traits@D@@SAHAEBQEBDAEAPEADAEB_K@Z 0000000180112170 f i libucrtd:setenv.obj
 0002:000a31c0       ??$tcsnicoll@AEBQEB_WAEAPEA_WAEB_K@?$__crt_char_traits@_W@@SAHAEBQEB_WAEAPEA_WAEB_K@Z 00000001801121c0 f i libucrtd:setenv.obj
 0002:000a3210       ??$tcsnlen@PEADH@?$__crt_char_traits@D@@SA_K$$QEAPEAD$$QEAH@Z 0000000180112210 f i libucrtd:setenv.obj
 0002:000a3250       ??$tcsnlen@PEA_WH@?$__crt_char_traits@_W@@SA_K$$QEAPEA_W$$QEAH@Z 0000000180112250 f i libucrtd:setenv.obj
 0002:000a3330       ?strchr@@YAPEADQEADH@Z     0000000180112330 f i libucrtd:setenv.obj
 0002:000a3360       ?wcschr@@YAPEA_WPEA_W_W@Z  0000000180112360 f i libucrtd:setenv.obj
 0002:000a3390       __dcrt_set_variable_in_narrow_environment_nolock 0000000180112390 f   libucrtd:setenv.obj
 0002:000a33c0       __dcrt_set_variable_in_wide_environment_nolock 00000001801123c0 f   libucrtd:setenv.obj
 0002:000a3650       ?ReadPointerNoFence@@YAPEAXPEDSEAX@Z 0000000180112650 f i libucrtd:winapi_thunks.obj
 0002:000a4580       GetCurrentThreadEffectiveToken 0000000180113580 f i libucrtd:winapi_thunks.obj
 0002:000a4590       __acrt_AppPolicyGetProcessTerminationMethodInternal 0000000180113590 f   libucrtd:winapi_thunks.obj
 0002:000a4600       __acrt_AppPolicyGetShowDeveloperDiagnosticInternal 0000000180113600 f   libucrtd:winapi_thunks.obj
 0002:000a4670       __acrt_AppPolicyGetThreadInitializationTypeInternal 0000000180113670 f   libucrtd:winapi_thunks.obj
 0002:000a46e0       __acrt_AppPolicyGetWindowingModelInternal 00000001801136e0 f   libucrtd:winapi_thunks.obj
 0002:000a4750       __acrt_AreFileApisANSI     0000000180113750 f   libucrtd:winapi_thunks.obj
 0002:000a47a0       __acrt_CompareStringEx     00000001801137a0 f   libucrtd:winapi_thunks.obj
 0002:000a48f0       __acrt_EnumSystemLocalesEx 00000001801138f0 f   libucrtd:winapi_thunks.obj
 0002:000a4990       __acrt_FlsAlloc            0000000180113990 f   libucrtd:winapi_thunks.obj
 0002:000a49b0       __acrt_FlsFree             00000001801139b0 f   libucrtd:winapi_thunks.obj
 0002:000a49d0       __acrt_FlsGetValue         00000001801139d0 f   libucrtd:winapi_thunks.obj
 0002:000a49f0       __acrt_FlsGetValue2        00000001801139f0 f   libucrtd:winapi_thunks.obj
 0002:000a4a30       __acrt_FlsSetValue         0000000180113a30 f   libucrtd:winapi_thunks.obj
 0002:000a4a60       __acrt_GetDateFormatEx     0000000180113a60 f   libucrtd:winapi_thunks.obj
 0002:000a4b60       __acrt_GetEnabledXStateFeatures 0000000180113b60 f   libucrtd:winapi_thunks.obj
 0002:000a4bb0       __acrt_GetFileInformationByName 0000000180113bb0 f   libucrtd:winapi_thunks.obj
 0002:000a4c30       __acrt_GetLocaleInfoEx     0000000180113c30 f   libucrtd:winapi_thunks.obj
 0002:000a4ce0       __acrt_GetSystemTimePreciseAsFileTime 0000000180113ce0 f   libucrtd:winapi_thunks.obj
 0002:000a4d50       __acrt_GetTempPath2W       0000000180113d50 f   libucrtd:winapi_thunks.obj
 0002:000a4dd0       __acrt_GetTimeFormatEx     0000000180113dd0 f   libucrtd:winapi_thunks.obj
 0002:000a4ec0       __acrt_GetUserDefaultLocaleName 0000000180113ec0 f   libucrtd:winapi_thunks.obj
 0002:000a4f40       __acrt_GetXStateFeaturesMask 0000000180113f40 f   libucrtd:winapi_thunks.obj
 0002:000a4fb0       __acrt_InitializeCriticalSectionEx 0000000180113fb0 f   libucrtd:winapi_thunks.obj
 0002:000a4ff0       __acrt_IsThreadAFiber      0000000180113ff0 f   libucrtd:winapi_thunks.obj
 0002:000a5010       __acrt_IsValidLocaleName   0000000180114010 f   libucrtd:winapi_thunks.obj
 0002:000a5090       __acrt_LCIDToLocaleName    0000000180114090 f   libucrtd:winapi_thunks.obj
 0002:000a5130       __acrt_LCMapStringEx       0000000180114130 f   libucrtd:winapi_thunks.obj
 0002:000a5260       __acrt_LocaleNameToLCID    0000000180114260 f   libucrtd:winapi_thunks.obj
 0002:000a52d0       __acrt_LocateXStateFeature 00000001801142d0 f   libucrtd:winapi_thunks.obj
 0002:000a5350       __acrt_MessageBoxA         0000000180114350 f   libucrtd:winapi_thunks.obj
 0002:000a53e0       __acrt_MessageBoxW         00000001801143e0 f   libucrtd:winapi_thunks.obj
 0002:000a5470       __acrt_RoInitialize        0000000180114470 f   libucrtd:winapi_thunks.obj
 0002:000a54d0       __acrt_RoUninitialize      00000001801144d0 f   libucrtd:winapi_thunks.obj
 0002:000a5510       __acrt_RtlGenRandom        0000000180114510 f   libucrtd:winapi_thunks.obj
 0002:000a5580       __acrt_SetThreadStackGuarantee 0000000180114580 f   libucrtd:winapi_thunks.obj
 0002:000a55e0       __acrt_can_show_message_box 00000001801145e0 f   libucrtd:winapi_thunks.obj
 0002:000a5630       __acrt_can_use_vista_locale_apis 0000000180114630 f   libucrtd:winapi_thunks.obj
 0002:000a5670       __acrt_can_use_xstate_apis 0000000180114670 f   libucrtd:winapi_thunks.obj
 0002:000a56b0       __acrt_eagerly_load_locale_apis 00000001801146b0 f   libucrtd:winapi_thunks.obj
 0002:000a5700       __acrt_get_parent_window   0000000180114700 f   libucrtd:winapi_thunks.obj
 0002:000a57a0       __acrt_initialize_winapi_thunks 00000001801147a0 f   libucrtd:winapi_thunks.obj
 0002:000a5800       __acrt_is_interactive      0000000180114800 f   libucrtd:winapi_thunks.obj
 0002:000a5930       __acrt_tls2_supported      0000000180114930 f   libucrtd:winapi_thunks.obj
 0002:000a5970       __acrt_uninitialize_winapi_thunks 0000000180114970 f   libucrtd:winapi_thunks.obj
 0002:000a5a40       _get_heap_handle           0000000180114a40 f   libucrtd:heap_handle.obj
 0002:000a5aa0       __acrt_initialize_heap     0000000180114aa0 f   libucrtd:heap_handle.obj
 0002:000a5ad0       __acrt_uninitialize_heap   0000000180114ad0 f   libucrtd:heap_handle.obj
 0002:000a5af0       __acrt_getheap             0000000180114af0 f   libucrtd:heap_handle.obj
 0002:000a6020       __acrt_initialize_lowio    0000000180115020 f   libucrtd:ioinit.obj
 0002:000a6080       __acrt_uninitialize_lowio  0000000180115080 f   libucrtd:ioinit.obj
 0002:000a6110       __acrt_execute_initializers 0000000180115110 f   libucrtd:shared_initialization.obj
 0002:000a6240       __acrt_execute_uninitializers 0000000180115240 f   libucrtd:shared_initialization.obj
 0002:000a62e0       _callnewh                  00000001801152e0 f   libucrtd:new_handler.obj
 0002:000a6340       __acrt_initialize_new_handler 0000000180115340 f   libucrtd:new_handler.obj
 0002:000a6370       _query_new_handler         0000000180115370 f   libucrtd:new_handler.obj
 0002:000a63c0       _set_new_handler           00000001801153c0 f   libucrtd:new_handler.obj
 0002:000a6430       ?_set_new_handler@@YAP6AH_K@ZH@Z 0000000180115430 f   libucrtd:new_handler.obj
 0002:000a6510       ??$?B$$A6AH_K@Z@__crt_fast_encoded_nullptr_t@@QEBAP6AH_K@ZXZ 0000000180115510 f i libucrtd:new_handler.obj
 0002:000a6530       ??$__crt_fast_decode_pointer@P6AH_K@Z@@YAP6AH_K@ZQ6AH0@Z@Z 0000000180115530 f i libucrtd:new_handler.obj
 0002:000a6580       ??$__crt_fast_encode_pointer@P6AH_K@Z@@YAP6AH_K@ZQ6AH0@Z@Z 0000000180115580 f i libucrtd:new_handler.obj
 0002:000a65d0       ?initialize@?$dual_state_global@P6AH_K@Z@__crt_state_management@@QEAAXQ6AH_K@Z@Z 00000001801155d0 f i libucrtd:new_handler.obj
 0002:000a6630       ?value@?$dual_state_global@P6AH_K@Z@__crt_state_management@@QEAAAEAP6AH_K@ZXZ 0000000180115630 f i libucrtd:new_handler.obj
 0002:000a6660       ??$__crt_fast_decode_pointer@P6AHPEAU_exception@@@Z@@YAP6AHPEAU_exception@@@ZQ6AH0@Z@Z 0000000180115660 f i libucrtd:matherr.obj
 0002:000a66b0       ??$__crt_fast_encode_pointer@P6AHPEAU_exception@@@Z@@YAP6AHPEAU_exception@@@ZQ6AH0@Z@Z 00000001801156b0 f i libucrtd:matherr.obj
 0002:000a6700       ?initialize@?$dual_state_global@P6AHPEAU_exception@@@Z@__crt_state_management@@QEAAXQ6AHPEAU_exception@@@Z@Z 0000000180115700 f i libucrtd:matherr.obj
 0002:000a6760       ?value@?$dual_state_global@P6AHPEAU_exception@@@Z@__crt_state_management@@QEAAAEAP6AHPEAU_exception@@@ZXZ 0000000180115760 f i libucrtd:matherr.obj
 0002:000a6790       __acrt_has_user_matherr    0000000180115790 f   libucrtd:matherr.obj
 0002:000a67e0       __acrt_initialize_user_matherr 00000001801157e0 f   libucrtd:matherr.obj
 0002:000a6810       __acrt_invoke_user_matherr 0000000180115810 f   libucrtd:matherr.obj
 0002:000a6880       __setusermatherr           0000000180115880 f   libucrtd:matherr.obj
 0002:000a68c0       __p___mb_cur_max           00000001801158c0 f   libucrtd:nlsdata.obj
 0002:000a6910       ?has_any_buffer@__crt_stdio_stream@@QEBA_NXZ 0000000180115910 f i libucrtd:_sftbuf.obj
 0002:000a6940       ?has_any_of@__crt_stdio_stream@@QEBA_NJ@Z 0000000180115940 f i libucrtd:_sftbuf.obj
 0002:000a6990       ?has_temporary_buffer@__crt_stdio_stream@@QEBA_NXZ 0000000180115990 f i libucrtd:_sftbuf.obj
 0002:000a69c0       ?set_flags@__crt_stdio_stream@@QEBA_NJ@Z 00000001801159c0 f i libucrtd:_sftbuf.obj
 0002:000a6a40       ?unset_flags@__crt_stdio_stream@@QEBA_NJ@Z 0000000180115a40 f i libucrtd:_sftbuf.obj
 0002:000a6ab0       __acrt_should_use_temporary_buffer 0000000180115ab0 f   libucrtd:_sftbuf.obj
 0002:000a6b20       __acrt_stdio_begin_temporary_buffering_nolock 0000000180115b20 f   libucrtd:_sftbuf.obj
 0002:000a6e20       __acrt_stdio_end_temporary_buffering_nolock 0000000180115e20 f   libucrtd:_sftbuf.obj
 0002:000a6ef0       _CrtGetDebugFillThreshold  0000000180115ef0 f   libucrtd:debug_fill_threshold.obj
 0002:000a6f00       _CrtSetDebugFillThreshold  0000000180115f00 f   libucrtd:debug_fill_threshold.obj
 0002:000a6f40       ?value_explicit@?$dual_state_global@PEAU__crt_locale_data@@@__crt_state_management@@QEAAAEAPEAU__crt_locale_data@@_K@Z 0000000180115f40 f i libucrtd:locale_update.obj
 0002:000a6f60       ?value_explicit@?$dual_state_global@PEAU__crt_multibyte_data@@@__crt_state_management@@QEAAAEAPEAU__crt_multibyte_data@@_K@Z 0000000180115f60 f i libucrtd:locale_update.obj
 0002:000a6f80       __acrt_update_locale_info  0000000180115f80 f   libucrtd:locale_update.obj
 0002:000a6fe0       __acrt_update_locale_info_explicit 0000000180115fe0 f   libucrtd:locale_update.obj
 0002:000a7050       __acrt_update_multibyte_info 0000000180116050 f   libucrtd:locale_update.obj
 0002:000a70b0       __acrt_update_multibyte_info_explicit 00000001801160b0 f   libucrtd:locale_update.obj
 0002:000a7120       ?__acrt_fp_classify@@YA?AW4__acrt_fp_class@@AEBN@Z 0000000180116120 f i libucrtd:cvt.obj
 0002:000a7260       ?__acrt_fp_is_negative@@YA_NAEBN@Z 0000000180116260 f i libucrtd:cvt.obj
 0002:000a91d0       ?strrchr@@YAPEADQEADH@Z    00000001801181d0 f i libucrtd:cvt.obj
 0002:000a9200       __acrt_fp_format           0000000180118200 f   libucrtd:cvt.obj
 0002:000a9a80       ?value_or@?$cached@H@__crt_cached_ptd_host@@QEBAHH@Z 0000000180118a80 f i libucrtd:wctomb.obj
 0002:000a9ab0       _wctomb_internal           0000000180118ab0 f   libucrtd:wctomb.obj
 0002:000aa160       _wctomb_l                  0000000180119160 f   libucrtd:wctomb.obj
 0002:000aa240       _wctomb_s_l                0000000180119240 f   libucrtd:wctomb.obj
 0002:000aa2e0       wctomb                     00000001801192e0 f   libucrtd:wctomb.obj
 0002:000aa3a0       wctomb_s                   00000001801193a0 f   libucrtd:wctomb.obj
 0002:000aa430       _isleadbyte_fast_internal  0000000180119430 f i libucrtd:mbtowc.obj
 0002:000aa460       _mbtowc_internal           0000000180119460 f   libucrtd:mbtowc.obj
 0002:000aa8d0       _mbtowc_l                  00000001801198d0 f   libucrtd:mbtowc.obj
 0002:000aa950       mbtowc                     0000000180119950 f   libucrtd:mbtowc.obj
 0002:000aa9c0       ?__mblen_utf8@__crt_mbstring@@YAHPEBD@Z 00000001801199c0 f   libucrtd:mbrtoc32.obj
 0002:000aaa80       ?__mbrtoc32_utf8@__crt_mbstring@@YA_KPEA_UPEBD_KPEAU_Mbstatet@@AEAV__crt_cached_ptd_host@@@Z 0000000180119a80 f   libucrtd:mbrtoc32.obj
 0002:000aaf50       mbrtoc32                   0000000180119f50 f   libucrtd:mbrtoc32.obj
 0002:000aafe0       ?__c16rtomb_utf8@__crt_mbstring@@YA_KPEAD_SPEAU_Mbstatet@@AEAV__crt_cached_ptd_host@@@Z 0000000180119fe0 f   libucrtd:c16rtomb.obj
 0002:000ab2a0       c16rtomb                   000000018011a2a0 f   libucrtd:c16rtomb.obj
 0002:000ab3a0       ?__mbrtowc_utf8@__crt_mbstring@@YA_KPEA_WPEBD_KPEAU_Mbstatet@@AEAV__crt_cached_ptd_host@@@Z 000000018011a3a0 f   libucrtd:mbrtowc.obj
 0002:000ab450       ?__mbsrtowcs_utf8@__crt_mbstring@@YA_KPEA_WPEAPEBD_KPEAU_Mbstatet@@AEAV__crt_cached_ptd_host@@@Z 000000018011a450 f   libucrtd:mbrtowc.obj
 0002:000acab0       btowc                      000000018011bab0 f   libucrtd:mbrtowc.obj
 0002:000acbb0       mbrlen                     000000018011bbb0 f   libucrtd:mbrtowc.obj
 0002:000acc80       mbrtowc                    000000018011bc80 f   libucrtd:mbrtowc.obj
 0002:000acdd0       mbsrtowcs                  000000018011bdd0 f   libucrtd:mbrtowc.obj
 0002:000ace60       mbsrtowcs_s                000000018011be60 f   libucrtd:mbrtowc.obj
 0002:000acf10       ?lowio_handle@__crt_stdio_stream@@QEBAHXZ 000000018011bf10 f i libucrtd:fileno.obj
 0002:000acf40       _fileno                    000000018011bf40 f   libucrtd:fileno.obj
 0002:000ad050       ??$?RPEAU__crt_stdio_stream_data@@@__crt_internal_free_policy@@QEBAXQEBQEAU__crt_stdio_stream_data@@@Z 000000018011c050 f i libucrtd:_file.obj
 0002:000ad080       ??0?$__crt_unique_heap_ptr@PEAU__crt_stdio_stream_data@@U__crt_internal_free_policy@@@@QEAA@QEAPEAU__crt_stdio_stream_data@@@Z 000000018011c080 f i libucrtd:_file.obj
 0002:000ad0b0       ??1?$__crt_unique_heap_ptr@PEAU__crt_stdio_stream_data@@U__crt_internal_free_policy@@@@QEAA@XZ 000000018011c0b0 f i libucrtd:_file.obj
 0002:000ad0d0       ?detach@?$__crt_unique_heap_ptr@PEAU__crt_stdio_stream_data@@U__crt_internal_free_policy@@@@QEAAPEAPEAU__crt_stdio_stream_data@@XZ 000000018011c0d0 f i libucrtd:_file.obj
 0002:000ad110       ?release@?$__crt_unique_heap_ptr@PEAU__crt_stdio_stream_data@@U__crt_internal_free_policy@@@@QEAAXXZ 000000018011c110 f i libucrtd:_file.obj
 0002:000ad150       __acrt_initialize_stdio    000000018011c150 f   libucrtd:_file.obj
 0002:000ad3b0       __acrt_iob_func            000000018011c3b0 f   libucrtd:_file.obj
 0002:000ad3d0       __acrt_uninitialize_stdio  000000018011c3d0 f   libucrtd:_file.obj
 0002:000ad480       _get_stream_buffer_pointers 000000018011c480 f   libucrtd:_file.obj
 0002:000ad600       _lock_file                 000000018011c600 f   libucrtd:_file.obj
 0002:000ad640       _unlock_file               000000018011c640 f   libucrtd:_file.obj
 0002:000ad680       _get_printf_count_output   000000018011c680 f   libucrtd:printf_count_output.obj
 0002:000ad6c0       _set_printf_count_output   000000018011c6c0 f   libucrtd:printf_count_output.obj
 0002:000ad980       _fputwc_nolock             000000018011c980 f   libucrtd:fputwc.obj
 0002:000ad9e0       _fputwc_nolock_internal    000000018011c9e0 f   libucrtd:fputwc.obj
 0002:000add60       _fputwchar                 000000018011cd60 f   libucrtd:fputwc.obj
 0002:000add90       _putwc_nolock              000000018011cd90 f   libucrtd:fputwc.obj
 0002:000addc0       fputwc                     000000018011cdc0 f   libucrtd:fputwc.obj
 0002:000ade20       putwc                      000000018011ce20 f   libucrtd:fputwc.obj
 0002:000ade50       putwchar                   000000018011ce50 f   libucrtd:fputwc.obj
 0002:000ae230       _fputc_nolock              000000018011d230 f   libucrtd:fputc.obj
 0002:000ae290       _fputc_nolock_internal     000000018011d290 f   libucrtd:fputc.obj
 0002:000ae380       _fputchar                  000000018011d380 f   libucrtd:fputc.obj
 0002:000ae3b0       _putc_nolock               000000018011d3b0 f   libucrtd:fputc.obj
 0002:000ae3e0       fputc                      000000018011d3e0 f   libucrtd:fputc.obj
 0002:000ae440       putc                       000000018011d440 f   libucrtd:fputc.obj
 0002:000ae470       putchar                    000000018011d470 f   libucrtd:fputc.obj
 0002:000ae4a0       ??$?RU__crt_locale_data@@@__crt_internal_free_policy@@QEBAXQEBU__crt_locale_data@@@Z 000000018011d4a0 f i libucrtd:wsetlocale.obj
 0002:000ae4d0       ??$?RU__crt_locale_pointers@@@__crt_internal_free_policy@@QEBAXQEBU__crt_locale_pointers@@@Z 000000018011d4d0 f i libucrtd:wsetlocale.obj
 0002:000aec60       ??0?$__crt_unique_heap_ptr@U__crt_locale_data@@U__crt_internal_free_policy@@@@QEAA@QEAU__crt_locale_data@@@Z 000000018011dc60 f i libucrtd:wsetlocale.obj
 0002:000aec90       ??0?$__crt_unique_heap_ptr@U__crt_locale_pointers@@U__crt_internal_free_policy@@@@QEAA@QEAU__crt_locale_pointers@@@Z 000000018011dc90 f i libucrtd:wsetlocale.obj
 0002:000aecc0       ??0_expandlocale_locale_name_cache@@QEAA@QEA_W_KQEAU__crt_qualified_locale_data@@@Z 000000018011dcc0 f i libucrtd:wsetlocale.obj
 0002:000aed90       ??1?$__crt_unique_heap_ptr@U__crt_locale_data@@U__crt_internal_free_policy@@@@QEAA@XZ 000000018011dd90 f i libucrtd:wsetlocale.obj
 0002:000aedb0       ??1?$__crt_unique_heap_ptr@U__crt_locale_pointers@@U__crt_internal_free_policy@@@@QEAA@XZ 000000018011ddb0 f i libucrtd:wsetlocale.obj
 0002:000aedd0       ??1_expandlocale_locale_name_cache@@QEAA@XZ 000000018011ddd0 f i libucrtd:wsetlocale.obj
 0002:000aee70       ??B?$__crt_unique_heap_ptr@U__crt_locale_data@@U__crt_internal_free_policy@@@@QEBA_NXZ 000000018011de70 f i libucrtd:wsetlocale.obj
 0002:000aee90       ??B?$__crt_unique_heap_ptr@U__crt_locale_pointers@@U__crt_internal_free_policy@@@@QEBA_NXZ 000000018011de90 f i libucrtd:wsetlocale.obj
 0002:000af3f0       ?commit_locale_name@_expandlocale_locale_name_cache@@QEAAXQEB_W_K@Z 000000018011e3f0 f i libucrtd:wsetlocale.obj
 0002:000af490       ?commit_locale_name_cache_already_updated@_expandlocale_locale_name_cache@@QEAAXQEB_W_K@Z 000000018011e490 f i libucrtd:wsetlocale.obj
 0002:000af520       ?detach@?$__crt_unique_heap_ptr@U__crt_locale_data@@U__crt_internal_free_policy@@@@QEAAPEAU__crt_locale_data@@XZ 000000018011e520 f i libucrtd:wsetlocale.obj
 0002:000af560       ?detach@?$__crt_unique_heap_ptr@U__crt_locale_pointers@@U__crt_internal_free_policy@@@@QEAAPEAU__crt_locale_pointers@@XZ 000000018011e560 f i libucrtd:wsetlocale.obj
 0002:000af5a0       ?get@?$__crt_unique_heap_ptr@U__crt_locale_data@@U__crt_internal_free_policy@@@@QEBAPEAU__crt_locale_data@@XZ 000000018011e5a0 f i libucrtd:wsetlocale.obj
 0002:000af5c0       ?get@?$__crt_unique_heap_ptr@U__crt_locale_pointers@@U__crt_internal_free_policy@@@@QEBAPEAU__crt_locale_pointers@@XZ 000000018011e5c0 f i libucrtd:wsetlocale.obj
 0002:000af5e0       ?is_valid@?$__crt_unique_heap_ptr@U__crt_locale_data@@U__crt_internal_free_policy@@@@QEBA_NXZ 000000018011e5e0 f i libucrtd:wsetlocale.obj
 0002:000af620       ?is_valid@?$__crt_unique_heap_ptr@U__crt_locale_pointers@@U__crt_internal_free_policy@@@@QEBA_NXZ 000000018011e620 f i libucrtd:wsetlocale.obj
 0002:000af660       ?release@?$__crt_unique_heap_ptr@U__crt_locale_data@@U__crt_internal_free_policy@@@@QEAAXXZ 000000018011e660 f i libucrtd:wsetlocale.obj
 0002:000af6a0       ?release@?$__crt_unique_heap_ptr@U__crt_locale_pointers@@U__crt_internal_free_policy@@@@QEAAXXZ 000000018011e6a0 f i libucrtd:wsetlocale.obj
 0002:000af6e0       __acrt_copy_locale_name    000000018011e6e0 f   libucrtd:wsetlocale.obj
 0002:000af800       __acrt_set_locale_changed  000000018011e800 f   libucrtd:wsetlocale.obj
 0002:000af820       __acrt_uninitialize_locale 000000018011e820 f   libucrtd:wsetlocale.obj
 0002:000af860       __ascii_tolower            000000018011e860 f i libucrtd:wsetlocale.obj
 0002:000af890       __ascii_towlower           000000018011e890 f i libucrtd:wsetlocale.obj
 0002:000af8b0       __lc_lctowcs               000000018011e8b0 f   libucrtd:wsetlocale.obj
 0002:000af9e0       __lc_wcstolc               000000018011e9e0 f   libucrtd:wsetlocale.obj
 0002:000afd70       _configthreadlocale        000000018011ed70 f   libucrtd:wsetlocale.obj
 0002:000affa0       _create_locale             000000018011efa0 f   libucrtd:wsetlocale.obj
 0002:000b0880       _free_locale               000000018011f880 f   libucrtd:wsetlocale.obj
 0002:000b09b0       _get_current_locale        000000018011f9b0 f   libucrtd:wsetlocale.obj
 0002:000b0b10       _wcreate_locale            000000018011fb10 f   libucrtd:wsetlocale.obj
 0002:000b0ec0       _wcscats                   000000018011fec0 f   libucrtd:wsetlocale.obj
 0002:000b0ff0       _wsetlocale                000000018011fff0 f   libucrtd:wsetlocale.obj
 0002:000b33d0       _mbsdec                    00000001801223d0 f   libucrtd:mbsdec.obj
 0002:000b3400       _mbsdec_l                  0000000180122400 f   libucrtd:mbsdec.obj
 0002:000b3fa0       wcsncpy_s                  0000000180122fa0 f   libucrtd:wcsncpy_s.obj
 0002:000b4820       strncpy_s                  0000000180123820 f   libucrtd:strncpy_s.obj
 0002:000b4870       _chvalidator               0000000180123870 f   libucrtd:isctype.obj
 0002:000b4900       _chvalidator_l             0000000180123900 f   libucrtd:isctype.obj
 0002:000b49d0       _isctype                   00000001801239d0 f   libucrtd:isctype.obj
 0002:000b4a30       _isctype_l                 0000000180123a30 f   libucrtd:isctype.obj
 0002:000b4d00       _free_base                 0000000180123d00 f   libucrtd:free_base.obj
 0002:000b4d90       _realloc_base              0000000180123d90 f   libucrtd:realloc_base.obj
 0002:000b4e70       _expand                    0000000180123e70 f   libucrtd:expand.obj
 0002:000b4eb0       _expand_base               0000000180123eb0 f   libucrtd:expand.obj
 0002:000b5140       _query_new_mode            0000000180124140 f   libucrtd:new_mode.obj
 0002:000b5170       _set_new_mode              0000000180124170 f   libucrtd:new_mode.obj
 0002:000b5280       ?value@?$dual_state_global@J@__crt_state_management@@QEAAAEAJXZ 0000000180124280 f i libucrtd:new_mode.obj
 0002:000b52b0       _CrtDefaultAllocHook       00000001801242b0 f   libucrtd:debug_heap_hook.obj
 0002:000b5510       __acrt_report_runtime_error 0000000180124510 f   libucrtd:report_runtime_error.obj
 0002:000b5820       _query_app_type            0000000180124820 f   libucrtd:report_runtime_error.obj
 0002:000b5830       _set_app_type              0000000180124830 f   libucrtd:report_runtime_error.obj
 0002:000b5850       _iswctype_l                0000000180124850 f   libucrtd:iswctype.obj
 0002:000b5880       iswctype                   0000000180124880 f   libucrtd:iswctype.obj
 0002:000b7760       _i64toa                    0000000180126760 f   libucrtd:xtoa.obj
 0002:000b77e0       _i64toa_s                  00000001801267e0 f   libucrtd:xtoa.obj
 0002:000b7860       _i64tow                    0000000180126860 f   libucrtd:xtoa.obj
 0002:000b78e0       _i64tow_s                  00000001801268e0 f   libucrtd:xtoa.obj
 0002:000b7960       _itoa                      0000000180126960 f   libucrtd:xtoa.obj
 0002:000b79e0       _itoa_s                    00000001801269e0 f   libucrtd:xtoa.obj
 0002:000b7a60       _itow                      0000000180126a60 f   libucrtd:xtoa.obj
 0002:000b7ae0       _itow_s                    0000000180126ae0 f   libucrtd:xtoa.obj
 0002:000b7b60       _ltoa                      0000000180126b60 f   libucrtd:xtoa.obj
 0002:000b7be0       _ltoa_s                    0000000180126be0 f   libucrtd:xtoa.obj
 0002:000b7c60       _ltow                      0000000180126c60 f   libucrtd:xtoa.obj
 0002:000b7ce0       _ltow_s                    0000000180126ce0 f   libucrtd:xtoa.obj
 0002:000b7d60       _ui64toa                   0000000180126d60 f   libucrtd:xtoa.obj
 0002:000b7db0       _ui64toa_s                 0000000180126db0 f   libucrtd:xtoa.obj
 0002:000b7e00       _ui64tow                   0000000180126e00 f   libucrtd:xtoa.obj
 0002:000b7e50       _ui64tow_s                 0000000180126e50 f   libucrtd:xtoa.obj
 0002:000b7ea0       _ultoa                     0000000180126ea0 f   libucrtd:xtoa.obj
 0002:000b7ef0       _ultoa_s                   0000000180126ef0 f   libucrtd:xtoa.obj
 0002:000b7f40       _ultow                     0000000180126f40 f   libucrtd:xtoa.obj
 0002:000b7f90       _ultow_s                   0000000180126f90 f   libucrtd:xtoa.obj
 0002:000b8de0       _mbstowcs_l                0000000180127de0 f   libucrtd:mbstowcs.obj
 0002:000b8e60       _mbstowcs_s_l              0000000180127e60 f   libucrtd:mbstowcs.obj
 0002:000b8f10       mbstowcs                   0000000180127f10 f   libucrtd:mbstowcs.obj
 0002:000b8f80       mbstowcs_s                 0000000180127f80 f   libucrtd:mbstowcs.obj
 0002:000ba1b0       _wcstombs_l                00000001801291b0 f   libucrtd:wcstombs.obj
 0002:000ba230       _wcstombs_s_l              0000000180129230 f   libucrtd:wcstombs.obj
 0002:000ba2e0       wcstombs                   00000001801292e0 f   libucrtd:wcstombs.obj
 0002:000ba350       wcstombs_s                 0000000180129350 f   libucrtd:wcstombs.obj
 0002:000bac20       wcscat_s                   0000000180129c20 f   libucrtd:wcscat_s.obj
 0002:000bac60       __acrt_OutputDebugStringA  0000000180129c60 f   libucrtd:outputdebugstringa.obj
 0002:000bad50       __acrt_add_locale_ref      0000000180129d50 f   libucrtd:locale_refcounting.obj
 0002:000baf00       __acrt_free_locale         0000000180129f00 f   libucrtd:locale_refcounting.obj
 0002:000bb360       __acrt_locale_add_lc_time_reference 000000018012a360 f   libucrtd:locale_refcounting.obj
 0002:000bb3b0       __acrt_locale_free_lc_time_if_unreferenced 000000018012a3b0 f   libucrtd:locale_refcounting.obj
 0002:000bb420       __acrt_locale_release_lc_time_reference 000000018012a420 f   libucrtd:locale_refcounting.obj
 0002:000bb470       __acrt_release_locale_ref  000000018012a470 f   libucrtd:locale_refcounting.obj
 0002:000bb630       __acrt_update_thread_locale_data 000000018012a630 f   libucrtd:locale_refcounting.obj
 0002:000bb700       _updatetlocinfoEx_nolock   000000018012a700 f   libucrtd:locale_refcounting.obj
 0002:000bb990       qsort                      000000018012a990 f   libucrtd:qsort.obj
 0002:000bc260       wcspbrk                    000000018012b260 f   libucrtd:wcspbrk.obj
 0002:000bc430       strpbrk                    000000018012b430 f   libucrtd:strpbrk.obj
 0002:000bcfb0       ??0?$__crt_scoped_stack_ptr@_W@@QEAA@U?$__crt_scoped_stack_ptr_tag@_W@@@Z 000000018012bfb0 f i libucrtd:getstringtypea.obj
 0002:000bcfe0       ??0?$__crt_scoped_stack_ptr_tag@_W@@QEAA@QEA_W@Z 000000018012bfe0 f i libucrtd:getstringtypea.obj
 0002:000bd010       ??1?$__crt_scoped_stack_ptr@_W@@QEAA@XZ 000000018012c010 f i libucrtd:getstringtypea.obj
 0002:000bd040       ?get@?$__crt_scoped_stack_ptr@_W@@QEBAPEA_WXZ 000000018012c040 f i libucrtd:getstringtypea.obj
 0002:000bd060       _MallocaComputeSize        000000018012c060 f i libucrtd:getstringtypea.obj
 0002:000bd0b0       _MarkAllocaS               000000018012c0b0 f i libucrtd:getstringtypea.obj
 0002:000bd0f0       __acrt_GetStringTypeA      000000018012c0f0 f   libucrtd:getstringtypea.obj
 0002:000bd3f0       _freea_crt                 000000018012c3f0 f i libucrtd:getstringtypea.obj
 0002:000bd4c0       ??B?$__crt_scoped_stack_ptr@_W@@QEBA_NXZ 000000018012c4c0 f i libucrtd:lcmapstringa.obj
 0002:000bdca0       __acrt_LCMapStringA        000000018012cca0 f   libucrtd:lcmapstringa.obj
 0002:000bddc0       _wcsnicoll                 000000018012cdc0 f   libucrtd:wcsnicol.obj
 0002:000be0b0       _wcsnicoll_l               000000018012d0b0 f   libucrtd:wcsnicol.obj
 0002:000be4c0       _strnicoll                 000000018012d4c0 f   libucrtd:strnicol.obj
 0002:000be530       _strnicoll_l               000000018012d530 f   libucrtd:strnicol.obj
 0002:000bea40       __acrt_SetEnvironmentVariableA 000000018012da40 f   libucrtd:setenvironmentvariablea.obj
 0002:000bed20       __acrt_DownlevelLCIDToLocaleName 000000018012dd20 f   libucrtd:lcidtoname_downlevel.obj
 0002:000bee80       __acrt_DownlevelLocaleNameToLCID 000000018012de80 f   libucrtd:lcidtoname_downlevel.obj
 0002:000bef00       ??$?RU__crt_lowio_handle_data@@@__crt_internal_free_policy@@QEBAXQEBU__crt_lowio_handle_data@@@Z 000000018012df00 f i libucrtd:osfinfo.obj
 0002:000bef30       ??0?$__crt_unique_heap_ptr@U__crt_lowio_handle_data@@U__crt_internal_free_policy@@@@QEAA@QEAU__crt_lowio_handle_data@@@Z 000000018012df30 f i libucrtd:osfinfo.obj
 0002:000bef60       ??1?$__crt_unique_heap_ptr@U__crt_lowio_handle_data@@U__crt_internal_free_policy@@@@QEAA@XZ 000000018012df60 f i libucrtd:osfinfo.obj
 0002:000bef80       ??B?$__crt_unique_heap_ptr@U__crt_lowio_handle_data@@U__crt_internal_free_policy@@@@QEBA_NXZ 000000018012df80 f i libucrtd:osfinfo.obj
 0002:000befa0       ?detach@?$__crt_unique_heap_ptr@U__crt_lowio_handle_data@@U__crt_internal_free_policy@@@@QEAAPEAU__crt_lowio_handle_data@@XZ 000000018012dfa0 f i libucrtd:osfinfo.obj
 0002:000befe0       ?get@?$__crt_unique_heap_ptr@U__crt_lowio_handle_data@@U__crt_internal_free_policy@@@@QEBAPEAU__crt_lowio_handle_data@@XZ 000000018012dfe0 f i libucrtd:osfinfo.obj
 0002:000bf000       ?is_valid@?$__crt_unique_heap_ptr@U__crt_lowio_handle_data@@U__crt_internal_free_policy@@@@QEBA_NXZ 000000018012e000 f i libucrtd:osfinfo.obj
 0002:000bf040       ?release@?$__crt_unique_heap_ptr@U__crt_lowio_handle_data@@U__crt_internal_free_policy@@@@QEAAXXZ 000000018012e040 f i libucrtd:osfinfo.obj
 0002:000bf080       __acrt_lowio_create_handle_array 000000018012e080 f   libucrtd:osfinfo.obj
 0002:000bf2b0       __acrt_lowio_destroy_handle_array 000000018012e2b0 f   libucrtd:osfinfo.obj
 0002:000bf350       __acrt_lowio_ensure_fh_exists 000000018012e350 f   libucrtd:osfinfo.obj
 0002:000bf500       __acrt_lowio_lock_fh       000000018012e500 f   libucrtd:osfinfo.obj
 0002:000bf550       __acrt_lowio_set_os_handle 000000018012e550 f   libucrtd:osfinfo.obj
 0002:000bf6b0       __acrt_lowio_unlock_fh     000000018012e6b0 f   libucrtd:osfinfo.obj
 0002:000bf700       _alloc_osfhnd              000000018012e700 f   libucrtd:osfinfo.obj
 0002:000bf990       _free_osfhnd               000000018012e990 f   libucrtd:osfinfo.obj
 0002:000bfb10       _get_osfhandle             000000018012eb10 f   libucrtd:osfinfo.obj
 0002:000bfd90       _open_osfhandle            000000018012ed90 f   libucrtd:osfinfo.obj
 0002:000c0030       localeconv                 000000018012f030 f   libucrtd:localeconv.obj
 0002:000c0080       __pctype_func              000000018012f080 f   libucrtd:ctype.obj
 0002:000c00d0       __pwctype_func             000000018012f0d0 f   libucrtd:ctype.obj
 0002:000c00e0       _isatty                    000000018012f0e0 f   libucrtd:isatty.obj
 0002:000c06d0       ??0__crt_stdio_stream@@QEAA@QEAU__crt_stdio_stream_data@@@Z 000000018012f6d0 f i libucrtd:fflush.obj
 0002:000c0a40       ?__acrt_stdio_reset_buffer@@YAXV__crt_stdio_stream@@@Z 000000018012fa40 f i libucrtd:fflush.obj
 0002:000c0c80       ?has_all_of@__crt_stdio_stream@@QEBA_NJ@Z 000000018012fc80 f i libucrtd:fflush.obj
 0002:000c0da0       __acrt_stdio_flush_nolock  000000018012fda0 f   libucrtd:fflush.obj
 0002:000c0f00       _fflush_nolock             000000018012ff00 f   libucrtd:fflush.obj
 0002:000c0f50       _flushall                  000000018012ff50 f   libucrtd:fflush.obj
 0002:000c0f70       fflush                     000000018012ff70 f   libucrtd:fflush.obj
 0002:000c1250       __acrt_fp_strflt_to_string 0000000180130250 f   libucrtd:_fptostr.obj
 0002:000c2100       ??0big_integer@__crt_strtox@@QEAA@AEBU01@@Z 0000000180131100 f i libucrtd:cfout.obj
 0002:000c2180       ??0big_integer@__crt_strtox@@QEAA@XZ 0000000180131180 f i libucrtd:cfout.obj
 0002:000c2330       ??4big_integer@__crt_strtox@@QEAAAEAU01@AEBU01@@Z 0000000180131330 f i libucrtd:cfout.obj
 0002:000c23b0       ??8__crt_strtox@@YA_NAEBUbig_integer@0@0@Z 00000001801313b0 f i libucrtd:cfout.obj
 0002:000c2430       ??9__crt_strtox@@YA_NAEBUbig_integer@0@0@Z 0000000180131430 f i libucrtd:cfout.obj
 0002:000c2480       ?add_carry@__crt_strtox@@YAIAEAIII@Z 0000000180131480 f i libucrtd:cfout.obj
 0002:000c24e0       ?add_multiply_carry@__crt_strtox@@YAIAEAIIII@Z 00000001801314e0 f i libucrtd:cfout.obj
 0002:000c2550       ?bit_scan_reverse@__crt_strtox@@YAII@Z 0000000180131550 f i libucrtd:cfout.obj
 0002:000c2590       ?count_sequential_high_zeroes@__crt_strtox@@YAII@Z 0000000180131590 f i libucrtd:cfout.obj
 0002:000c25f0       ?divide@__crt_strtox@@YA_KAEAUbig_integer@1@AEBU21@@Z 00000001801315f0 f i libucrtd:cfout.obj
 0002:000c3230       ?is_zero@__crt_strtox@@YA_NAEBUbig_integer@1@@Z 0000000180132230 f i libucrtd:cfout.obj
 0002:000c3270       ?make_big_integer@__crt_strtox@@YA?AUbig_integer@1@_K@Z 0000000180132270 f i libucrtd:cfout.obj
 0002:000c3370       ?make_big_integer_power_of_two@__crt_strtox@@YA?AUbig_integer@1@I@Z 0000000180132370 f i libucrtd:cfout.obj
 0002:000c3480       ?multiply@__crt_strtox@@YA_NAEAUbig_integer@1@AEBU21@@Z 0000000180132480 f i libucrtd:cfout.obj
 0002:000c38d0       ?multiply@__crt_strtox@@YA_NAEAUbig_integer@1@I@Z 00000001801328d0 f i libucrtd:cfout.obj
 0002:000c3a40       ?multiply_64_32@__crt_strtox@@YA_K_KI@Z 0000000180132a40 f i libucrtd:cfout.obj
 0002:000c3a60       ?multiply_by_power_of_ten@__crt_strtox@@YA_NAEAUbig_integer@1@I@Z 0000000180132a60 f i libucrtd:cfout.obj
 0002:000c3c80       ?multiply_core@__crt_strtox@@YAIQEAIII@Z 0000000180132c80 f i libucrtd:cfout.obj
 0002:000c3d20       ?shift_left@__crt_strtox@@YA_NAEAUbig_integer@1@I@Z 0000000180132d20 f i libucrtd:cfout.obj
 0002:000c40b0       __acrt_fltout              00000001801330b0 f   libucrtd:cfout.obj
 0002:000c4720       __fpe_flt_rounds           0000000180133720 f   libucrtd:fegetround.obj
 0002:000c4790       fegetround                 0000000180133790 f   libucrtd:fegetround.obj
 0002:000c47b0       ??$?RG@__crt_internal_free_policy@@QEBAXQEBG@Z 00000001801337b0 f i libucrtd:initctype.obj
 0002:000c47e0       ??$?RJ@__crt_internal_free_policy@@QEBAXQEBJ@Z 00000001801337e0 f i libucrtd:initctype.obj
 0002:000c4810       ??0?$__crt_unique_heap_ptr@GU__crt_internal_free_policy@@@@QEAA@QEAG@Z 0000000180133810 f i libucrtd:initctype.obj
 0002:000c4840       ??0?$__crt_unique_heap_ptr@JU__crt_internal_free_policy@@@@QEAA@QEAJ@Z 0000000180133840 f i libucrtd:initctype.obj
 0002:000c4870       ??1?$__crt_unique_heap_ptr@GU__crt_internal_free_policy@@@@QEAA@XZ 0000000180133870 f i libucrtd:initctype.obj
 0002:000c4890       ??1?$__crt_unique_heap_ptr@JU__crt_internal_free_policy@@@@QEAA@XZ 0000000180133890 f i libucrtd:initctype.obj
 0002:000c48b0       ?detach@?$__crt_unique_heap_ptr@GU__crt_internal_free_policy@@@@QEAAPEAGXZ 00000001801338b0 f i libucrtd:initctype.obj
 0002:000c48f0       ?detach@?$__crt_unique_heap_ptr@JU__crt_internal_free_policy@@@@QEAAPEAJXZ 00000001801338f0 f i libucrtd:initctype.obj
 0002:000c4930       ?release@?$__crt_unique_heap_ptr@GU__crt_internal_free_policy@@@@QEAAXXZ 0000000180133930 f i libucrtd:initctype.obj
 0002:000c4970       ?release@?$__crt_unique_heap_ptr@JU__crt_internal_free_policy@@@@QEAAXXZ 0000000180133970 f i libucrtd:initctype.obj
 0002:000c49b0       ___lc_codepage_func        00000001801339b0 f   libucrtd:initctype.obj
 0002:000c4a00       ___lc_collate_cp_func      0000000180133a00 f   libucrtd:initctype.obj
 0002:000c4a50       ___lc_locale_name_func     0000000180133a50 f   libucrtd:initctype.obj
 0002:000c4aa0       ___mb_cur_max_func         0000000180133aa0 f   libucrtd:initctype.obj
 0002:000c4af0       ___mb_cur_max_l_func       0000000180133af0 f   libucrtd:initctype.obj
 0002:000c4b40       __acrt_locale_initialize_ctype 0000000180133b40 f   libucrtd:initctype.obj
 0002:000c58f0       ?__c32rtomb_utf8@__crt_mbstring@@YA_KPEAD_UPEAU_Mbstatet@@AEAV__crt_cached_ptd_host@@@Z 00000001801348f0 f   libucrtd:c32rtomb.obj
 0002:000c5c40       c32rtomb                   0000000180134c40 f   libucrtd:c32rtomb.obj
 0002:000c5cb0       ?reset_and_return@__crt_mbstring@@YA_K_KPEAU_Mbstatet@@@Z 0000000180134cb0 f   libucrtd:common_utf8.obj
 0002:000c5d00       ?return_illegal_sequence@__crt_mbstring@@YA_KPEAU_Mbstatet@@AEAV__crt_cached_ptd_host@@@Z 0000000180134d00 f   libucrtd:common_utf8.obj
 0002:000c5d70       ?is_in_use@__crt_stdio_stream@@QEBA_NXZ 0000000180134d70 f i libucrtd:closeall.obj
 0002:000c5dc0       _fcloseall                 0000000180134dc0 f   libucrtd:closeall.obj
 0002:000c5f10       ?has_crt_buffer@__crt_stdio_stream@@QEBA_NXZ 0000000180134f10 f i libucrtd:_freebuf.obj
 0002:000c5f40       __acrt_stdio_free_buffer_nolock 0000000180134f40 f   libucrtd:_freebuf.obj
 0002:000c6cf0       ?has_big_buffer@__crt_stdio_stream@@QEBA_NXZ 0000000180135cf0 f i libucrtd:_flsbuf.obj
 0002:000c6e90       __acrt_stdio_flush_and_write_narrow_nolock 0000000180135e90 f   libucrtd:_flsbuf.obj
 0002:000c6ee0       __acrt_stdio_flush_and_write_wide_nolock 0000000180135ee0 f   libucrtd:_flsbuf.obj
 0002:000c6f30       ??$?RUlconv@@@__crt_internal_free_policy@@QEBAXQEBUlconv@@@Z 0000000180135f30 f i libucrtd:initmon.obj
 0002:000c6f60       ??0?$__crt_unique_heap_ptr@Ulconv@@U__crt_internal_free_policy@@@@QEAA@QEAUlconv@@@Z 0000000180135f60 f i libucrtd:initmon.obj
 0002:000c6f90       ??1?$__crt_unique_heap_ptr@Ulconv@@U__crt_internal_free_policy@@@@QEAA@XZ 0000000180135f90 f i libucrtd:initmon.obj
 0002:000c6fb0       ?detach@?$__crt_unique_heap_ptr@Ulconv@@U__crt_internal_free_policy@@@@QEAAPEAUlconv@@XZ 0000000180135fb0 f i libucrtd:initmon.obj
 0002:000c6ff0       ?release@?$__crt_unique_heap_ptr@Ulconv@@U__crt_internal_free_policy@@@@QEAAXXZ 0000000180135ff0 f i libucrtd:initmon.obj
 0002:000c7030       __acrt_locale_free_monetary 0000000180136030 f   libucrtd:initmon.obj
 0002:000c72d0       __acrt_locale_initialize_monetary 00000001801362d0 f   libucrtd:initmon.obj
 0002:000c7f20       __acrt_locale_free_numeric 0000000180136f20 f   libucrtd:initnum.obj
 0002:000c8030       __acrt_locale_initialize_numeric 0000000180137030 f   libucrtd:initnum.obj
 0002:000c87f0       ??$?RU__crt_lc_time_data@@@__crt_internal_free_policy@@QEBAXQEBU__crt_lc_time_data@@@Z 00000001801377f0 f i libucrtd:inittime.obj
 0002:000c8940       ??0?$__crt_unique_heap_ptr@U__crt_lc_time_data@@U__crt_internal_free_policy@@@@QEAA@QEAU__crt_lc_time_data@@@Z 0000000180137940 f i libucrtd:inittime.obj
 0002:000c8970       ??1?$__crt_unique_heap_ptr@U__crt_lc_time_data@@U__crt_internal_free_policy@@@@QEAA@XZ 0000000180137970 f i libucrtd:inittime.obj
 0002:000c8990       ??B?$__crt_unique_heap_ptr@U__crt_lc_time_data@@U__crt_internal_free_policy@@@@QEBA_NXZ 0000000180137990 f i libucrtd:inittime.obj
 0002:000c89b0       ?detach@?$__crt_unique_heap_ptr@U__crt_lc_time_data@@U__crt_internal_free_policy@@@@QEAAPEAU__crt_lc_time_data@@XZ 00000001801379b0 f i libucrtd:inittime.obj
 0002:000c8a60       ?get@?$__crt_unique_heap_ptr@U__crt_lc_time_data@@U__crt_internal_free_policy@@@@QEBAPEAU__crt_lc_time_data@@XZ 0000000180137a60 f i libucrtd:inittime.obj
 0002:000c9270       ?is_valid@?$__crt_unique_heap_ptr@U__crt_lc_time_data@@U__crt_internal_free_policy@@@@QEBA_NXZ 0000000180138270 f i libucrtd:inittime.obj
 0002:000c92b0       ?release@?$__crt_unique_heap_ptr@U__crt_lc_time_data@@U__crt_internal_free_policy@@@@QEAAXXZ 00000001801382b0 f i libucrtd:inittime.obj
 0002:000c92f0       __acrt_locale_free_time    00000001801382f0 f   libucrtd:inittime.obj
 0002:000c94c0       __acrt_locale_initialize_time 00000001801384c0 f   libucrtd:inittime.obj
 0002:000c9f10       wcsncat_s                  0000000180138f10 f   libucrtd:wcsncat_s.obj
 0002:000c9f60       wcscmp                     0000000180138f60 f   libucrtd:wcscmpc.obj
 0002:000ca030       wcscspn                    0000000180139030 f   libucrtd:wcscspn.obj
 0002:000cb120       __acrt_get_qualified_locale 000000018013a120 f   libucrtd:get_qualified_locale.obj
 0002:000cc6e0       __acrt_get_qualified_locale_downlevel 000000018013b6e0 f   libucrtd:getqloc_downlevel.obj
 0002:000ccb60       _malloc_base               000000018013bb60 f   libucrtd:malloc_base.obj
 0002:000ccc30       _set_error_mode            000000018013bc30 f   libucrtd:set_error_mode.obj
 0002:000ccd70       __acrt_GetStringTypeW      000000018013bd70 f   libucrtd:getstringtypew.obj
 0002:000ccdc0       ?__wcsrtombs_utf8@__crt_mbstring@@YA_KPEADPEAPEB_W_KPEAU_Mbstatet@@AEAV__crt_cached_ptd_host@@@Z 000000018013bdc0 f   libucrtd:wcrtomb.obj
 0002:000cdd60       wcrtomb                    000000018013cd60 f   libucrtd:wcrtomb.obj
 0002:000cddf0       wcrtomb_s                  000000018013cdf0 f   libucrtd:wcrtomb.obj
 0002:000cde90       wcsrtombs                  000000018013ce90 f   libucrtd:wcrtomb.obj
 0002:000cdf20       wcsrtombs_s                000000018013cf20 f   libucrtd:wcrtomb.obj
 0002:000ce6e0       wctob                      000000018013d6e0 f   libucrtd:wcrtomb.obj
 0002:000ce82c       _guard_check_icall         000000018013d82c f i libucrtd:checkcfg.obj
 0002:000ce850       __strncnt                  000000018013d850 f   libucrtd:strncnt.obj
 0002:000ce8d0       __acrt_CompareStringW      000000018013d8d0 f   libucrtd:comparestringw.obj
 0002:000cea50       __ascii_wcsnicmp           000000018013da50 f   libucrtd:wcsnicmp.obj
 0002:000ceb70       _towlower_fast_internal    000000018013db70 f i libucrtd:wcsnicmp.obj
 0002:000cebd0       _towlower_internal         000000018013dbd0 f i libucrtd:wcsnicmp.obj
 0002:000cec20       _wcsnicmp                  000000018013dc20 f   libucrtd:wcsnicmp.obj
 0002:000cee30       _wcsnicmp_l                000000018013de30 f   libucrtd:wcsnicmp.obj
 0002:000cf230       __ascii_strnicmp           000000018013e230 f   libucrtd:strnicmp.obj
 0002:000cf350       _strnicmp                  000000018013e350 f   libucrtd:strnicmp.obj
 0002:000cf630       _strnicmp_l                000000018013e630 f   libucrtd:strnicmp.obj
 0002:000d0320       __acrt_CompareStringA      000000018013f320 f   libucrtd:comparestringa.obj
 0002:000d0690       _commit                    000000018013f690 f   libucrtd:commit.obj
 0002:000d2720       _utf8_no_of_trailbytes     0000000180141720 f i libucrtd:write.obj
 0002:000d2740       _write                     0000000180141740 f   libucrtd:write.obj
 0002:000d27b0       _write_internal            00000001801417b0 f   libucrtd:write.obj
 0002:000d2c30       _write_nolock              0000000180141c30 f   libucrtd:write.obj
 0002:000d34c0       log10                      00000001801424c0 f   libucrtd:log10.obj
 0002:000d3be0       ceil                       0000000180142be0 f   libucrtd:ceil.obj
 0002:000d3ea0       _controlfp_s               0000000180142ea0 f   libucrtd:contrlfp.obj
 0002:000d4010       fegetenv                   0000000180143010 f   libucrtd:fegetenv.obj
 0002:000d4050       fesetenv                   0000000180143050 f   libucrtd:fesetenv.obj
 0002:000d40e0       feholdexcept               00000001801430e0 f   libucrtd:feholdexcept.obj
 0002:000d4160       ??$__acrt_fenv_shift_bits@W4__acrt_fenv_abstract_control@@@@YA?AW4__acrt_fenv_abstract_control@@W40@0I@Z 0000000180143160 f i libucrtd:_fenvutils.obj
 0002:000d41a0       ??$__acrt_fenv_shift_bits@W4__acrt_fenv_abstract_status@@@@YA?AW4__acrt_fenv_abstract_status@@W40@0I@Z 00000001801431a0 f i libucrtd:_fenvutils.obj
 0002:000d41e0       ??$__acrt_fenv_translate_bit@W4__acrt_fenv_abstract_control@@W4__acrt_fenv_machine_sse_control@@@@YA?AW4__acrt_fenv_abstract_control@@W4__acrt_fenv_machine_sse_control@@0W40@1@Z 00000001801431e0 f i libucrtd:_fenvutils.obj
 0002:000d4250       ??$__acrt_fenv_translate_bit@W4__acrt_fenv_abstract_status@@W4__acrt_fenv_machine_sse_status@@@@YA?AW4__acrt_fenv_abstract_status@@W4__acrt_fenv_machine_sse_status@@0W40@1@Z 0000000180143250 f i libucrtd:_fenvutils.obj
 0002:000d42b0       ??$__acrt_fenv_translate_bit@W4__acrt_fenv_machine_sse_control@@W4__acrt_fenv_abstract_control@@@@YA?AW4__acrt_fenv_machine_sse_control@@W4__acrt_fenv_abstract_control@@0W40@1@Z 00000001801432b0 f i libucrtd:_fenvutils.obj
 0002:000d4320       ??$__acrt_fenv_translate_bit@W4__acrt_fenv_machine_sse_status@@W4__acrt_fenv_abstract_status@@@@YA?AW4__acrt_fenv_machine_sse_status@@W4__acrt_fenv_abstract_status@@0W40@1@Z 0000000180143320 f i libucrtd:_fenvutils.obj
 0002:000d4380       ??$__acrt_fenv_unshift_bits@W4__acrt_fenv_abstract_control@@@@YA?AW4__acrt_fenv_abstract_control@@W40@0I@Z 0000000180143380 f i libucrtd:_fenvutils.obj
 0002:000d43c0       ??$__acrt_fenv_unshift_bits@W4__acrt_fenv_abstract_status@@@@YA?AW4__acrt_fenv_abstract_status@@W40@0I@Z 00000001801433c0 f i libucrtd:_fenvutils.obj
 0002:000d49e0       ??I@YA?AW4__acrt_fenv_abstract_control@@W40@0@Z 00000001801439e0 f i libucrtd:_fenvutils.obj
 0002:000d4a00       ??I@YA?AW4__acrt_fenv_abstract_status@@W40@0@Z 0000000180143a00 f i libucrtd:_fenvutils.obj
 0002:000d4a20       ??I@YA?AW4__acrt_fenv_machine_sse_control@@W40@0@Z 0000000180143a20 f i libucrtd:_fenvutils.obj
 0002:000d4a40       ??I@YA?AW4__acrt_fenv_machine_sse_status@@W40@0@Z 0000000180143a40 f i libucrtd:_fenvutils.obj
 0002:000d4a60       ??U@YA?AW4__acrt_fenv_abstract_control@@W40@0@Z 0000000180143a60 f i libucrtd:_fenvutils.obj
 0002:000d4a80       ??U@YA?AW4__acrt_fenv_abstract_status@@W40@0@Z 0000000180143a80 f i libucrtd:_fenvutils.obj
 0002:000d4aa0       ??U@YA?AW4__acrt_fenv_machine_sse_control@@W40@0@Z 0000000180143aa0 f i libucrtd:_fenvutils.obj
 0002:000d4ac0       ??_5@YAAEAW4__acrt_fenv_abstract_control@@AEAW40@W40@@Z 0000000180143ac0 f i libucrtd:_fenvutils.obj
 0002:000d4af0       ??_5@YAAEAW4__acrt_fenv_abstract_status@@AEAW40@W40@@Z 0000000180143af0 f i libucrtd:_fenvutils.obj
 0002:000d4b20       ??_5@YAAEAW4__acrt_fenv_machine_sse_control@@AEAW40@W40@@Z 0000000180143b20 f i libucrtd:_fenvutils.obj
 0002:000d4b60       ??_5@YAAEAW4__acrt_fenv_machine_sse_status@@AEAW40@W40@@Z 0000000180143b60 f i libucrtd:_fenvutils.obj
 0002:000d4b90       ?__acrt_fenv_shift_abstract_sse_control@@YA?AW4__acrt_fenv_abstract_control@@W41@@Z 0000000180143b90 f i libucrtd:_fenvutils.obj
 0002:000d4bf0       ?__acrt_fenv_shift_abstract_sse_status@@YA?AW4__acrt_fenv_abstract_status@@W41@@Z 0000000180143bf0 f i libucrtd:_fenvutils.obj
 0002:000d4c20       ?__acrt_fenv_unshift_abstract_sse_control@@YA?AW4__acrt_fenv_abstract_control@@W41@@Z 0000000180143c20 f i libucrtd:_fenvutils.obj
 0002:000d4c80       ?__acrt_fenv_unshift_abstract_sse_status@@YA?AW4__acrt_fenv_abstract_status@@W41@@Z 0000000180143c80 f i libucrtd:_fenvutils.obj
 0002:000d5010       __acrt_fenv_expand_round_control 0000000180144010 f   libucrtd:_fenvutils.obj
 0002:000d5040       __acrt_fenv_get_common_round_control 0000000180144040 f   libucrtd:_fenvutils.obj
 0002:000d5070       __acrt_fenv_get_control    0000000180144070 f   libucrtd:_fenvutils.obj
 0002:000d50b0       __acrt_fenv_get_fp_status_word_from_exception_mask 00000001801440b0 f   libucrtd:_fenvutils.obj
 0002:000d50e0       __acrt_fenv_get_status     00000001801440e0 f   libucrtd:_fenvutils.obj
 0002:000d5120       __acrt_fenv_set_control    0000000180144120 f   libucrtd:_fenvutils.obj
 0002:000d5150       __acrt_fenv_set_status     0000000180144150 f   libucrtd:_fenvutils.obj
 0002:000d5420       __acrt_GetLocaleInfoA      0000000180144420 f   libucrtd:getlocaleinfoa.obj
 0002:000d5d70       _fclose_nolock             0000000180144d70 f   libucrtd:fclose.obj
 0002:000d5dc0       fclose                     0000000180144dc0 f   libucrtd:fclose.obj
 0002:000d6c20       _lseek                     0000000180145c20 f   libucrtd:lseek.obj
 0002:000d6c90       _lseek_internal            0000000180145c90 f   libucrtd:lseek.obj
 0002:000d6cd0       _lseek_nolock              0000000180145cd0 f   libucrtd:lseek.obj
 0002:000d6d40       _lseek_nolock_internal     0000000180145d40 f   libucrtd:lseek.obj
 0002:000d6d80       _lseeki64                  0000000180145d80 f   libucrtd:lseek.obj
 0002:000d6df0       _lseeki64_internal         0000000180145df0 f   libucrtd:lseek.obj
 0002:000d6e40       _lseeki64_nolock           0000000180145e40 f   libucrtd:lseek.obj
 0002:000d6eb0       _lseeki64_nolock_internal  0000000180145eb0 f   libucrtd:lseek.obj
 0002:000d6f00       __acrt_stdio_allocate_buffer_nolock 0000000180145f00 f   libucrtd:_getbuf.obj
 0002:000d70e0       __ascii_wcsicmp            00000001801460e0 f   libucrtd:wcsicmp.obj
 0002:000d71e0       _wcsicmp                   00000001801461e0 f   libucrtd:wcsicmp.obj
 0002:000d73e0       _wcsicmp_l                 00000001801463e0 f   libucrtd:wcsicmp.obj
 0002:000d7770       _towlower_l                0000000180146770 f   libucrtd:towlower.obj
 0002:000d7980       towlower                   0000000180146980 f   libucrtd:towlower.obj
 0002:000d7b80       _putwch                    0000000180146b80 f   libucrtd:putwch.obj
 0002:000d7bc0       _putwch_nolock             0000000180146bc0 f   libucrtd:putwch.obj
 0002:000d7c20       _putwch_nolock_internal    0000000180146c20 f   libucrtd:putwch.obj
 0002:000d8ef0       _read                      0000000180147ef0 f   libucrtd:read.obj
 0002:000d9310       _read_nolock               0000000180148310 f   libucrtd:read.obj
 0002:000da480       __acrt_initialize_fma3     0000000180149480 f   libucrtd:fma3_available.obj
 0002:000da5f0       _get_FMA3_enable           00000001801495f0 f   libucrtd:fma3_available.obj
 0002:000da610       _set_FMA3_enable           0000000180149610 f   libucrtd:fma3_available.obj
 0002:000da660       _log10_special             0000000180149660 f   libucrtd:log_special.obj
 0002:000da6c0       _log10f_special            00000001801496c0 f   libucrtd:log_special.obj
 0002:000da720       _log_special               0000000180149720 f   libucrtd:log_special.obj
 0002:000da920       _logf_special              0000000180149920 f   libucrtd:log_special.obj
 0002:000dae60       _handle_error              0000000180149e60 f   libucrtd:libm_error.obj
 0002:000db050       _handle_errorf             000000018014a050 f   libucrtd:libm_error.obj
 0002:000db230       _handle_nan                000000018014a230 f   libucrtd:libm_error.obj
 0002:000db2a0       _handle_nanf               000000018014a2a0 f   libucrtd:libm_error.obj
 0002:000db2f0       round_sse41                000000018014a2f0 f   libucrtd:floorceil_sse41.obj
 0002:000db320       roundf_sse41               000000018014a320 f   libucrtd:floorceil_sse41.obj
 0002:000db350       floor_sse41                000000018014a350 f   libucrtd:floorceil_sse41.obj
 0002:000db360       floorf_sse41               000000018014a360 f   libucrtd:floorceil_sse41.obj
 0002:000db370       ceil_sse41                 000000018014a370 f   libucrtd:floorceil_sse41.obj
 0002:000db380       ceilf_sse41                000000018014a380 f   libucrtd:floorceil_sse41.obj
 0002:000db390       trunc_sse41                000000018014a390 f   libucrtd:floorceil_sse41.obj
 0002:000db3a0       truncl_sse41               000000018014a3a0 f   libucrtd:floorceil_sse41.obj
 0002:000db3b0       truncf_sse41               000000018014a3b0 f   libucrtd:floorceil_sse41.obj
 0002:000db3c0       nearbyint_sse41            000000018014a3c0 f   libucrtd:floorceil_sse41.obj
 0002:000db3d0       nearbyintl_sse41           000000018014a3d0 f   libucrtd:floorceil_sse41.obj
 0002:000db3e0       nearbyintf_sse41           000000018014a3e0 f   libucrtd:floorceil_sse41.obj
 0002:000db3f0       rint_sse41                 000000018014a3f0 f   libucrtd:floorceil_sse41.obj
 0002:000db400       rintl_sse41                000000018014a400 f   libucrtd:floorceil_sse41.obj
 0002:000db410       rintf_sse41                000000018014a410 f   libucrtd:floorceil_sse41.obj
 0002:000db690       _clearfp                   000000018014a690 f   libucrtd:ieee.obj
 0002:000db6c0       _control87                 000000018014a6c0 f   libucrtd:ieee.obj
 0002:000db6f0       _controlfp                 000000018014a6f0 f   libucrtd:ieee.obj
 0002:000db720       _fpreset                   000000018014a720 f   libucrtd:ieee.obj
 0002:000db8e0       _set_controlfp             000000018014a8e0 f   libucrtd:ieee.obj
 0002:000db960       _statusfp                  000000018014a960 f   libucrtd:ieee.obj
 0002:000dbf00       _close                     000000018014af00 f   libucrtd:close.obj
 0002:000dbf50       _close_internal            000000018014af50 f   libucrtd:close.obj
 0002:000dc2c0       _close_nolock              000000018014b2c0 f   libucrtd:close.obj
 0002:000dc310       _close_nolock_internal     000000018014b310 f   libucrtd:close.obj
 0002:000dc3a0       ??$?RU__crt_stdio_stream_data@@@__crt_internal_free_policy@@QEBAXQEBU__crt_stdio_stream_data@@@Z 000000018014b3a0 f i libucrtd:stream.obj
 0002:000dc3d0       ??0?$__crt_unique_heap_ptr@U__crt_stdio_stream_data@@U__crt_internal_free_policy@@@@QEAA@QEAU__crt_stdio_stream_data@@@Z 000000018014b3d0 f i libucrtd:stream.obj
 0002:000dc400       ??0__crt_stdio_stream@@QEAA@XZ 000000018014b400 f i libucrtd:stream.obj
 0002:000dc420       ??1?$__crt_unique_heap_ptr@U__crt_stdio_stream_data@@U__crt_internal_free_policy@@@@QEAA@XZ 000000018014b420 f i libucrtd:stream.obj
 0002:000dc440       ?__acrt_stdio_allocate_stream@@YA?AV__crt_stdio_stream@@XZ 000000018014b440 f   libucrtd:stream.obj
 0002:000dc530       ?__acrt_stdio_free_stream@@YAXV__crt_stdio_stream@@@Z 000000018014b530 f   libucrtd:stream.obj
 0002:000dc5f0       ?deallocate@__crt_stdio_stream@@QEAAXXZ 000000018014b5f0 f i libucrtd:stream.obj
 0002:000dc610       ?detach@?$__crt_unique_heap_ptr@U__crt_stdio_stream_data@@U__crt_internal_free_policy@@@@QEAAPEAU__crt_stdio_stream_data@@XZ 000000018014b610 f i libucrtd:stream.obj
 0002:000dc860       ?lock@__crt_stdio_stream@@QEBAXXZ 000000018014b860 f i libucrtd:stream.obj
 0002:000dc890       ?release@?$__crt_unique_heap_ptr@U__crt_stdio_stream_data@@U__crt_internal_free_policy@@@@QEAAXXZ 000000018014b890 f i libucrtd:stream.obj
 0002:000dc8d0       ?try_allocate@__crt_stdio_stream@@QEAA_NXZ 000000018014b8d0 f i libucrtd:stream.obj
 0002:000dc950       ?unlock@__crt_stdio_stream@@QEBAXXZ 000000018014b950 f i libucrtd:stream.obj
 0002:000dc980       __acrt_LCMapStringW        000000018014b980 f   libucrtd:lcmapstringw.obj
 0002:000dcbf0       __dcrt_lowio_ensure_console_output_initialized 000000018014bbf0 f   libucrtd:initcon.obj
 0002:000dcc30       __dcrt_terminate_console_output 000000018014bc30 f   libucrtd:initcon.obj
 0002:000dcc70       __dcrt_write_console       000000018014bc70 f   libucrtd:initcon.obj
 0002:000dccc0       _clrfp                     000000018014bcc0 f   libucrtd:fpctrl.obj
 0002:000dcd00       _ctrlfp                    000000018014bd00 f   libucrtd:fpctrl.obj
 0002:000dcdf0       _get_fpcsr                 000000018014bdf0 f   libucrtd:fpctrl.obj
 0002:000dce10       _get_fpsr                  000000018014be10 f i libucrtd:fpctrl.obj
 0002:000dce30       _set_fpcsr                 000000018014be30 f   libucrtd:fpctrl.obj
 0002:000dce50       _set_fpsr                  000000018014be50 f i libucrtd:fpctrl.obj
 0002:000dce70       _set_statfp                000000018014be70 f   libucrtd:fpctrl.obj
 0002:000dced0       _statfp                    000000018014bed0 f   libucrtd:fpctrl.obj
 0002:000dd080       ?should_round_up@__crt_strtox@@YA_N_N000@Z 000000018014c080 f i libucrtd:fpexcept.obj
 0002:000dd1f0       _errcode                   000000018014c1f0 f   libucrtd:fpexcept.obj
 0002:000dd2a0       _except1                   000000018014c2a0 f   libucrtd:fpexcept.obj
 0002:000dd450       _except2                   000000018014c450 f   libucrtd:fpexcept.obj
 0002:000dd630       _fperrraise                000000018014c630 f   libucrtd:fpexcept.obj
 0002:000dd6f0       _handle_exc                000000018014c6f0 f   libucrtd:fpexcept.obj
 0002:000ddd70       _handle_qnan2              000000018014cd70 f   libucrtd:fpexcept.obj
 0002:000dddb0       _raise_exc                 000000018014cdb0 f   libucrtd:fpexcept.obj
 0002:000dde20       _raise_exc_ex              000000018014ce20 f   libucrtd:fpexcept.obj
 0002:000de640       _raise_excf                000000018014d640 f   libucrtd:fpexcept.obj
 0002:000de6b0       _set_errno_from_matherr    000000018014d6b0 f   libucrtd:fpexcept.obj
 0002:000de710       _umatherr                  000000018014d710 f   libucrtd:fpexcept.obj
 0002:000de830       ??_4@YAAEAW4__acrt_fenv_abstract_status@@AEAW40@W40@@Z 000000018014d830 f i libucrtd:fegetexceptflag.obj
 0002:000de860       fegetexceptflag            000000018014d860 f   libucrtd:fegetexceptflag.obj
 0002:000de8e0       ??S@YA?AW4__acrt_fenv_abstract_status@@W40@@Z 000000018014d8e0 f i libucrtd:fesetexceptflag.obj
 0002:000de8f0       fesetexceptflag            000000018014d8f0 f   libucrtd:fesetexceptflag.obj
 0002:000de9f0       _decomp                    000000018014d9f0 f i libucrtd:frexp.obj
 0002:000dec40       _set_exp                   000000018014dc40 f i libucrtd:frexp.obj
 0002:000dece0       _sptype                    000000018014dce0 f i libucrtd:frexp.obj
 0002:000dee30       frexp                      000000018014de30 f   libucrtd:frexp.obj
 0002:000df090       fetestexcept               000000018014e090 f   libucrtd:fetestexcept.obj
 0002:000df0c4       GetCurrentThreadId         000000018014e0c4 f   kernel32:KERNEL32.dll
 0002:000df0ca       QueryPerformanceCounter    000000018014e0ca f   kernel32:KERNEL32.dll
 0002:000df0d0       GetCurrentProcessId        000000018014e0d0 f   kernel32:KERNEL32.dll
 0002:000df0d6       GetSystemTimeAsFileTime    000000018014e0d6 f   kernel32:KERNEL32.dll
 0002:000df0dc       InitializeSListHead        000000018014e0dc f   kernel32:KERNEL32.dll
 0002:000df0e2       RtlCaptureContext          000000018014e0e2 f   kernel32:KERNEL32.dll
 0002:000df0e8       RtlLookupFunctionEntry     000000018014e0e8 f   kernel32:KERNEL32.dll
 0002:000df0ee       RtlVirtualUnwind           000000018014e0ee f   kernel32:KERNEL32.dll
 0002:000df0f4       IsDebuggerPresent          000000018014e0f4 f   kernel32:KERNEL32.dll
 0002:000df0fa       UnhandledExceptionFilter   000000018014e0fa f   kernel32:KERNEL32.dll
 0002:000df100       SetUnhandledExceptionFilter 000000018014e100 f   kernel32:KERNEL32.dll
 0002:000df106       GetStartupInfoW            000000018014e106 f   kernel32:KERNEL32.dll
 0002:000df10c       IsProcessorFeaturePresent  000000018014e10c f   kernel32:KERNEL32.dll
 0002:000df112       GetModuleHandleW           000000018014e112 f   kernel32:KERNEL32.dll
 0002:000df118       RaiseException             000000018014e118 f   kernel32:KERNEL32.dll
 0002:000df11e       MultiByteToWideChar        000000018014e11e f   kernel32:KERNEL32.dll
 0002:000df124       WideCharToMultiByte        000000018014e124 f   kernel32:KERNEL32.dll
 0002:000df12a       GetLastError               000000018014e12a f   kernel32:KERNEL32.dll
 0002:000df130       HeapAlloc                  000000018014e130 f   kernel32:KERNEL32.dll
 0002:000df136       HeapFree                   000000018014e136 f   kernel32:KERNEL32.dll
 0002:000df13c       GetProcessHeap             000000018014e13c f   kernel32:KERNEL32.dll
 0002:000df142       VirtualQuery               000000018014e142 f   kernel32:KERNEL32.dll
 0002:000df148       FreeLibrary                000000018014e148 f   kernel32:KERNEL32.dll
 0002:000df14e       GetProcAddress             000000018014e14e f   kernel32:KERNEL32.dll
 0002:000df154       GetCurrentProcess          000000018014e154 f   kernel32:KERNEL32.dll
 0002:000df15a       TerminateProcess           000000018014e15a f   kernel32:KERNEL32.dll
 0002:000df160       RtlUnwindEx                000000018014e160 f   kernel32:KERNEL32.dll
 0002:000df166       InterlockedPushEntrySList  000000018014e166 f   kernel32:KERNEL32.dll
 0002:000df16c       InterlockedFlushSList      000000018014e16c f   kernel32:KERNEL32.dll
 0002:000df172       GetModuleFileNameW         000000018014e172 f   kernel32:KERNEL32.dll
 0002:000df178       LoadLibraryExW             000000018014e178 f   kernel32:KERNEL32.dll
 0002:000df17e       SetLastError               000000018014e17e f   kernel32:KERNEL32.dll
 0002:000df184       EnterCriticalSection       000000018014e184 f   kernel32:KERNEL32.dll
 0002:000df18a       LeaveCriticalSection       000000018014e18a f   kernel32:KERNEL32.dll
 0002:000df190       DeleteCriticalSection      000000018014e190 f   kernel32:KERNEL32.dll
 0002:000df196       InitializeCriticalSectionAndSpinCount 000000018014e196 f   kernel32:KERNEL32.dll
 0002:000df19c       TlsAlloc                   000000018014e19c f   kernel32:KERNEL32.dll
 0002:000df1a2       TlsGetValue                000000018014e1a2 f   kernel32:KERNEL32.dll
 0002:000df1a8       TlsSetValue                000000018014e1a8 f   kernel32:KERNEL32.dll
 0002:000df1ae       TlsFree                    000000018014e1ae f   kernel32:KERNEL32.dll
 0002:000df1b4       EncodePointer              000000018014e1b4 f   kernel32:KERNEL32.dll
 0002:000df1ba       RtlPcToFileHeader          000000018014e1ba f   kernel32:KERNEL32.dll
 0002:000df1c0       GetModuleHandleExW         000000018014e1c0 f   kernel32:KERNEL32.dll
 0002:000df1c6       ExitProcess                000000018014e1c6 f   kernel32:KERNEL32.dll
 0002:000df1cc       HeapSize                   000000018014e1cc f   kernel32:KERNEL32.dll
 0002:000df1d2       HeapValidate               000000018014e1d2 f   kernel32:KERNEL32.dll
 0002:000df1d8       GetSystemInfo              000000018014e1d8 f   kernel32:KERNEL32.dll
 0002:000df1de       GetStdHandle               000000018014e1de f   kernel32:KERNEL32.dll
 0002:000df1e4       GetFileType                000000018014e1e4 f   kernel32:KERNEL32.dll
 0002:000df1ea       WriteFile                  000000018014e1ea f   kernel32:KERNEL32.dll
 0002:000df1f0       OutputDebugStringW         000000018014e1f0 f   kernel32:KERNEL32.dll
 0002:000df1f6       WriteConsoleW              000000018014e1f6 f   kernel32:KERNEL32.dll
 0002:000df1fc       SetConsoleCtrlHandler      000000018014e1fc f   kernel32:KERNEL32.dll
 0002:000df202       GetCurrentThread           000000018014e202 f   kernel32:KERNEL32.dll
 0002:000df208       FindClose                  000000018014e208 f   kernel32:KERNEL32.dll
 0002:000df20e       FindFirstFileExW           000000018014e20e f   kernel32:KERNEL32.dll
 0002:000df214       FindNextFileW              000000018014e214 f   kernel32:KERNEL32.dll
 0002:000df21a       IsValidCodePage            000000018014e21a f   kernel32:KERNEL32.dll
 0002:000df220       GetACP                     000000018014e220 f   kernel32:KERNEL32.dll
 0002:000df226       GetOEMCP                   000000018014e226 f   kernel32:KERNEL32.dll
 0002:000df22c       GetCPInfo                  000000018014e22c f   kernel32:KERNEL32.dll
 0002:000df232       GetCommandLineA            000000018014e232 f   kernel32:KERNEL32.dll
 0002:000df238       GetCommandLineW            000000018014e238 f   kernel32:KERNEL32.dll
 0002:000df23e       GetEnvironmentStringsW     000000018014e23e f   kernel32:KERNEL32.dll
 0002:000df244       FreeEnvironmentStringsW    000000018014e244 f   kernel32:KERNEL32.dll
 0002:000df24a       SetEnvironmentVariableW    000000018014e24a f   kernel32:KERNEL32.dll
 0002:000df250       GetTempPathW               000000018014e250 f   kernel32:KERNEL32.dll
 0002:000df256       FlsAlloc                   000000018014e256 f   kernel32:KERNEL32.dll
 0002:000df25c       FlsGetValue                000000018014e25c f   kernel32:KERNEL32.dll
 0002:000df262       FlsSetValue                000000018014e262 f   kernel32:KERNEL32.dll
 0002:000df268       FlsFree                    000000018014e268 f   kernel32:KERNEL32.dll
 0002:000df26e       IsThreadAFiber             000000018014e26e f   kernel32:KERNEL32.dll
 0002:000df274       InitializeCriticalSectionEx 000000018014e274 f   kernel32:KERNEL32.dll
 0002:000df27a       VirtualProtect             000000018014e27a f   kernel32:KERNEL32.dll
 0002:000df280       GetDateFormatW             000000018014e280 f   kernel32:KERNEL32.dll
 0002:000df286       GetTimeFormatW             000000018014e286 f   kernel32:KERNEL32.dll
 0002:000df28c       CompareStringW             000000018014e28c f   kernel32:KERNEL32.dll
 0002:000df292       LCMapStringW               000000018014e292 f   kernel32:KERNEL32.dll
 0002:000df298       GetLocaleInfoW             000000018014e298 f   kernel32:KERNEL32.dll
 0002:000df29e       IsValidLocale              000000018014e29e f   kernel32:KERNEL32.dll
 0002:000df2a4       GetUserDefaultLCID         000000018014e2a4 f   kernel32:KERNEL32.dll
 0002:000df2aa       EnumSystemLocalesW         000000018014e2aa f   kernel32:KERNEL32.dll
 0002:000df2b0       HeapReAlloc                000000018014e2b0 f   kernel32:KERNEL32.dll
 0002:000df2b6       HeapQueryInformation       000000018014e2b6 f   kernel32:KERNEL32.dll
 0002:000df2bc       GetStringTypeW             000000018014e2bc f   kernel32:KERNEL32.dll
 0002:000df2c2       SetStdHandle               000000018014e2c2 f   kernel32:KERNEL32.dll
 0002:000df2c8       GetFileSizeEx              000000018014e2c8 f   kernel32:KERNEL32.dll
 0002:000df2ce       SetFilePointerEx           000000018014e2ce f   kernel32:KERNEL32.dll
 0002:000df2d4       FlushFileBuffers           000000018014e2d4 f   kernel32:KERNEL32.dll
 0002:000df2da       GetConsoleOutputCP         000000018014e2da f   kernel32:KERNEL32.dll
 0002:000df2e0       GetConsoleMode             000000018014e2e0 f   kernel32:KERNEL32.dll
 0002:000df2e6       ReadFile                   000000018014e2e6 f   kernel32:KERNEL32.dll
 0002:000df2ec       ReadConsoleW               000000018014e2ec f   kernel32:KERNEL32.dll
 0002:000df2f2       CloseHandle                000000018014e2f2 f   kernel32:KERNEL32.dll
 0002:000df2f8       CreateFileW                000000018014e2f8 f   kernel32:KERNEL32.dll
 0002:000df300       _FindPESection             000000018014e300 f   LIBCMTD:pesect.obj
 0002:000df3d0       _IsNonwritableInCurrentImage 000000018014e3d0 f   LIBCMTD:pesect.obj
 0002:000df490       _ValidateImageBase         000000018014e490 f   LIBCMTD:pesect.obj
 0002:000df530       ??1type_info@@UEAA@XZ      000000018014e530 f   LIBCMTD:std_type_info_static.obj
 0002:000df550       ??_Etype_info@@UEAAPEAXI@Z 000000018014e550 f i LIBCMTD:std_type_info_static.obj
 0002:000df550       ??_Gtype_info@@UEAAPEAXI@Z 000000018014e550 f i LIBCMTD:std_type_info_static.obj
 0002:000df5a0       ??3@YAXPEAX_K@Z            000000018014e5a0 f   LIBCMTD:delete_scalar_size.obj
 0002:000df5d0       __GSHandlerCheck_SEH       000000018014e5d0 f   LIBCMTD:gshandlerseh.obj
 0002:000df6d0       __chkstk                   000000018014e6d0 f   LIBCMTD:chkstk.obj
 0002:000df6d0       _alloca_probe              000000018014e6d0 f   LIBCMTD:chkstk.obj
 0002:000df740       __GSHandlerCheck_EH        000000018014e740 f   LIBCMTD:gshandlereh.obj
 0002:000df810       ??3@YAXPEAX@Z              000000018014e810 f   LIBCMTD:delete_scalar.obj
 0002:000df840       strchr                     000000018014e840 f   libvcruntimed:strchr.obj
 0002:000dfa30       wcschr                     000000018014ea30 f   libvcruntimed:wcschr.obj
 0002:000dfbd0       strrchr                    000000018014ebd0 f   libvcruntimed:strrchr.obj
 0002:000e0100       _local_unwind              000000018014f100 f   libvcruntimed:jmpuwind.obj
 0002:000e0140       RtlUnwind                  000000018014f140 f   kernel32:KERNEL32.dll
 0002:000e48b0       _guard_dispatch_icall_nop  00000001801538b0 f   LIBCMTD:guard_dispatch.obj
 0002:000e48d0       _guard_xfg_dispatch_icall_nop 00000001801538d0 f   LIBCMTD:guard_xfg_dispatch.obj
 0002:000e4900       _guard_dispatch_icall      0000000180153900 f   libucrtd:dispatchcfg.obj
 0002:000e4900       _guard_dispatch_icall_$fo_default$ 0000000180153900     libucrtd:dispatchcfg.obj
 0002:000e5940       memcpy_repmovs             0000000180154940 f   libvcruntimed:memcpy.obj
 0002:000e5960       memcpy                     0000000180154960 f   libvcruntimed:memcpy.obj
 0002:000e5960       memcpy_$fo_default$        0000000180154960     libvcruntimed:memcpy.obj
 0002:000e5960       memmove                    0000000180154960 f   libvcruntimed:memcpy.obj
 0002:000e61a0       memset_repstos             00000001801551a0 f   libvcruntimed:memset.obj
 0002:000e61c0       memset                     00000001801551c0 f   libvcruntimed:memset.obj
 0002:000e6640       strcmp                     0000000180155640 f   libucrtd:strcmp.obj
 0002:000e66e0       strlen                     00000001801556e0 f   libucrtd:strlen.obj
 0002:000e67d0       strncmp                    00000001801557d0 f   libucrtd:strncmp.obj
 0002:000e6890       memcmp                     0000000180155890 f   libvcruntimed:memcmp.obj
 0003:00000000       __xc_a                     0000000180159000     LIBCMTD:initializers.obj
 0003:00000110       __xc_z                     0000000180159110     LIBCMTD:initializers.obj
 0003:00000220       __xi_a                     0000000180159220     LIBCMTD:initializers.obj
 0003:00000330       __acrt_multibyte_initializer 0000000180159330     libucrtd:multibyte_initializer.obj
 0003:00000340       __acrt_stdio_initializer   0000000180159340     libucrtd:stdio_initializer.obj
 0003:00000350       __acrt_tran_fma3_initializer 0000000180159350     libucrtd:fma3_initializer.obj
 0003:00000460       __xi_z                     0000000180159460     LIBCMTD:initializers.obj
 0003:00000570       __xp_a                     0000000180159570     LIBCMTD:initializers.obj
 0003:00000680       __acrt_locale_terminator   0000000180159680     libucrtd:locale_initializer.obj
 0003:00000690       __dcrt_console_output_terminator 0000000180159690     libucrtd:console_output_initializer.obj
 0003:000007a0       __acrt_stdio_terminator    00000001801597a0     libucrtd:stdio_initializer.obj
 0003:000008b0       __xp_z                     00000001801598b0     LIBCMTD:initializers.obj
 0003:000009c0       __xt_a                     00000001801599c0     LIBCMTD:initializers.obj
 0003:00000ad0       __xt_z                     0000000180159ad0     LIBCMTD:initializers.obj
 0003:00000be0       _pDefaultRawDllMain        0000000180159be0     LIBCMTD:dll_dllmain.obj
 0003:00000be0       _pRawDllMain               0000000180159be0     LIBCMTD:dll_dllmain.obj
 0003:00000c20       ??_C@_0BJ@HEGAHDFO@Stack?5pointer?5corruption@ 0000000180159c20     LIBCMTD:userapi.obj
 0003:00000c40       ??_C@_0CK@FEGOIOPB@Cast?5to?5smaller?5type?5causing?5lo@ 0000000180159c40     LIBCMTD:userapi.obj
 0003:00000c78       ??_C@_0BI@CIGMDCBH@Stack?5memory?5corruption@ 0000000180159c78     LIBCMTD:userapi.obj
 0003:00000c98       ??_C@_0CK@CNLNOEPB@Local?5variable?5used?5before?5init@ 0000000180159c98     LIBCMTD:userapi.obj
 0003:00000cd0       ??_C@_0BP@OGBCLIBO@Stack?5around?5_alloca?5corrupted@ 0000000180159cd0     LIBCMTD:userapi.obj
 0003:00000de0       ??_C@_0NN@JMPELKLB@The?5value?5of?5ESP?5was?5not?5proper@ 0000000180159de0     LIBCMTD:error.obj
 0003:00000ef0       ??_C@_0BBN@ELNNILBE@A?5cast?5to?5a?5smaller?5data?5type?5h@ 0000000180159ef0     LIBCMTD:error.obj
 0003:00001048       ??_C@_0BN@BPOGFMJL@Stack?5memory?5was?5corrupted?$AN?6@ 000000018015a048     LIBCMTD:error.obj
 0003:00001070       ??_C@_0DG@DAJCDLPN@A?5local?5variable?5was?5used?5befor@ 000000018015a070     LIBCMTD:error.obj
 0003:000010b0       ??_C@_0CM@JMIDGKLA@Stack?5memory?5around?5_alloca?5was@ 000000018015a0b0     LIBCMTD:error.obj
 0003:000010e8       ??_C@_0BO@CHIONIOI@Unknown?5Runtime?5Check?5Error?$AN?6@ 000000018015a0e8     LIBCMTD:error.obj
 0003:00001110       ??_C@_1GM@CNOOJIHC@?$AAR?$AAu?$AAn?$AAt?$AAi?$AAm?$AAe?$AA?5?$AAC?$AAh?$AAe?$AAc?$AAk?$AA?5?$AAE@ 000000018015a110     LIBCMTD:error.obj
 0003:000011a0       ??_C@_1EA@NFKNIFJP@?$AAR?$AAu?$AAn?$AA?9?$AAT?$AAi?$AAm?$AAe?$AA?5?$AAC?$AAh?$AAe?$AAc?$AAk?$AA?5@ 000000018015a1a0     LIBCMTD:error.obj
 0003:000011f0       ??_C@_0BB@PFFGGCJP@Unknown?5Filename@ 000000018015a1f0     LIBCMTD:error.obj
 0003:00001208       ??_C@_0BE@GNBOBNCK@Unknown?5Module?5Name@ 000000018015a208     LIBCMTD:error.obj
 0003:00001220       ??_C@_0CA@IODNCDPG@Run?9Time?5Check?5Failure?5?$CD?$CFd?5?9?5?$CFs@ 000000018015a220     LIBCMTD:error.obj
 0003:00001248       ??_C@_0CG@IAFNJNEE@Stack?5corrupted?5near?5unknown?5va@ 000000018015a248     LIBCMTD:error.obj
 0003:00001278       ??_C@_05MKKEDADM@?$CF?42X?5@ 000000018015a278     LIBCMTD:error.obj
 0003:00001280       ??_C@_0EJ@LJKNEOLN@Stack?5area?5around?5_alloca?5memor@ 000000018015a280     LIBCMTD:error.obj
 0003:000012d8       ??_C@_01EEMJAFIK@?6@       000000018015a2d8     LIBCMTD:error.obj
 0003:000012dc       ??_C@_02LLMPMKNF@?$DO?5@   000000018015a2dc     LIBCMTD:error.obj
 0003:000012e0       ??_C@_08OMAHNMHJ@?6Data?3?5?$DM@ 000000018015a2e0     LIBCMTD:error.obj
 0003:000012f0       ??_C@_0CK@DKGBICFE@?6Allocation?5number?5within?5this?5@ 000000018015a2f0     LIBCMTD:error.obj
 0003:00001328       ??_C@_07DFDJCKFN@?6Size?3?5@ 000000018015a328     LIBCMTD:error.obj
 0003:00001338       ??_C@_0N@MHFFIMFG@?6Address?3?50x@ 000000018015a338     LIBCMTD:error.obj
 0003:00001350       ??_C@_0EI@CLEPFNGI@Stack?5area?5around?5_alloca?5memor@ 000000018015a350     LIBCMTD:error.obj
 0003:000013a8       ??_C@_0BK@ODNDAGKB@?$CFs?$CFs?$CFp?$CFs?$CFzd?$CFs?$CFd?$CFs?$CFs?$CFs?$CFs?$CFs@ 000000018015a3a8     LIBCMTD:error.obj
 0003:000013c8       ??_C@_0DE@OHJBPMBP@A?5variable?5is?5being?5used?5withou@ 000000018015a3c8     LIBCMTD:error.obj
 0003:00001470       ??_C@_1EI@MLPKHBGE@?$AAa?$AAp?$AAi?$AA?9?$AAm?$AAs?$AA?9?$AAw?$AAi?$AAn?$AA?9?$AAc?$AAo?$AAr?$AAe@ 000000018015a470     LIBCMTD:pdblkup.obj
 0003:000014c8       ??_C@_1BK@JHLNAEJL@?$AAa?$AAd?$AAv?$AAa?$AAp?$AAi?$AA3?$AA2?$AA?4?$AAd?$AAl?$AAl@ 000000018015a4c8     LIBCMTD:pdblkup.obj
 0003:000014e8       ??_C@_0O@COHOBMLB@RegOpenKeyExW@ 000000018015a4e8     LIBCMTD:pdblkup.obj
 0003:000014f8       ??_C@_0BB@GLNAEDBD@RegQueryValueExW@ 000000018015a4f8     LIBCMTD:pdblkup.obj
 0003:00001510       ??_C@_0M@HLOHPNFA@RegCloseKey@ 000000018015a510     LIBCMTD:pdblkup.obj
 0003:00001520       ??_C@_1HE@EBEAGLFB@?$AAS?$AAO?$AAF?$AAT?$AAW?$AAA?$AAR?$AAE?$AA?2?$AAW?$AAo?$AAw?$AA6?$AA4?$AA3@ 000000018015a520     LIBCMTD:pdblkup.obj
 0003:000015b0       ??_C@_1BG@EABPBLLF@?$AAP?$AAr?$AAo?$AAd?$AAu?$AAc?$AAt?$AAD?$AAi?$AAr@ 000000018015a5b0     LIBCMTD:pdblkup.obj
 0003:000015f8       ??_C@_1BC@JINFINNJ@?$AAM?$AAS?$AAP?$AAD?$AAB?$AA1?$AA4?$AA0@ 000000018015a5f8     LIBCMTD:pdblkup.obj
 0003:00001610       ??_C@_0BB@KCIACLNC@PDBOpenValidate5@ 000000018015a610     LIBCMTD:pdblkup.obj
 0003:00001624       ??_C@_01KDCPPGHE@r@        000000018015a624     LIBCMTD:pdblkup.obj
 0003:00001640       ??_C@_0EC@CDJPIOJK@D?3?2a?2_work?21?2s?2src?2vctools?2crt?2@ 000000018015a640     libvcruntimed:std_type_info.obj
 0003:00001690       _pDestructExceptionObject  000000018015a690     libvcruntimed:ehhelpers.obj
 0003:00001f20       ??_C@_08EHJDFFNH@__based?$CI@ 000000018015af20     libvcruntimed:undname.obj
 0003:00001f30       ??_C@_07KOLFKCDI@__cdecl@  000000018015af30     libvcruntimed:undname.obj
 0003:00001f40       ??_C@_08GHMPAG@__pascal@   000000018015af40     libvcruntimed:undname.obj
 0003:00001f50       ??_C@_09IFJBGAPI@__stdcall@ 000000018015af50     libvcruntimed:undname.obj
 0003:00001f60       ??_C@_0L@NPHFGOKO@__thiscall@ 000000018015af60     libvcruntimed:undname.obj
 0003:00001f70       ??_C@_0L@JMKHOMEK@__fastcall@ 000000018015af70     libvcruntimed:undname.obj
 0003:00001f80       ??_C@_0N@BCKKPABJ@__vectorcall@ 000000018015af80     libvcruntimed:undname.obj
 0003:00001f90       ??_C@_09HIJEGCPM@__clrcall@ 000000018015af90     libvcruntimed:undname.obj
 0003:00001f9c       ??_C@_06GHPCKEAG@__eabi@   000000018015af9c     libvcruntimed:undname.obj
 0003:00001fa8       ??_C@_09IOPIDJLG@__swift_1@ 000000018015afa8     libvcruntimed:undname.obj
 0003:00001fb8       ??_C@_09KFNFGKHF@__swift_2@ 000000018015afb8     libvcruntimed:undname.obj
 0003:00001fc8       ??_C@_09LMMOFLDE@__swift_3@ 000000018015afc8     libvcruntimed:undname.obj
 0003:00001fd8       ??_C@_07JOMMBBKO@__ptr64@  000000018015afd8     libvcruntimed:undname.obj
 0003:00001fe8       ??_C@_0L@PILCLIHE@__restrict@ 000000018015afe8     libvcruntimed:undname.obj
 0003:00001ff8       ??_C@_0M@GFIIJFMG@__unaligned@ 000000018015aff8     libvcruntimed:undname.obj
 0003:00002008       ??_C@_09DHDLOLLB@restrict?$CI@ 000000018015b008     libvcruntimed:undname.obj
 0003:00002014       ??_C@_00CNPNBAHC@@         000000018015b014     libvcruntimed:undname.obj
 0003:00002018       ??_C@_04NIHEBCM@?5new@     000000018015b018     libvcruntimed:undname.obj
 0003:00002020       ??_C@_07FPCDHGMM@?5delete@ 000000018015b020     libvcruntimed:undname.obj
 0003:0000202c       ??_C@_01NEMOKFLO@?$DN@     000000018015b02c     libvcruntimed:undname.obj
 0003:00002030       ??_C@_02GPIOPFAK@?$DO?$DO@ 000000018015b030     libvcruntimed:undname.obj
 0003:00002034       ??_C@_02FODMEDOG@?$DM?$DM@ 000000018015b034     libvcruntimed:undname.obj
 0003:00002038       ??_C@_01DCLJPIOD@?$CB@     000000018015b038     libvcruntimed:undname.obj
 0003:0000203c       ??_C@_02EGOFBIJA@?$DN?$DN@ 000000018015b03c     libvcruntimed:undname.obj
 0003:00002040       ??_C@_02FDNJECIE@?$CB?$DN@ 000000018015b040     libvcruntimed:undname.obj
 0003:00002044       ??_C@_02GPECMEKF@?$FL?$FN@ 000000018015b044     libvcruntimed:undname.obj
 0003:00002048       ??_C@_08LHJFAFGD@operator@ 000000018015b048     libvcruntimed:undname.obj
 0003:00002054       ??_C@_02HBOOOICD@?9?$DO@   000000018015b054     libvcruntimed:undname.obj
 0003:00002058       ??_C@_01NBENCBCI@?$CK@     000000018015b058     libvcruntimed:undname.obj
 0003:0000205c       ??_C@_02ECNGHCIF@?$CL?$CL@ 000000018015b05c     libvcruntimed:undname.obj
 0003:00002060       ??_C@_02BAABKJLB@?9?9@     000000018015b060     libvcruntimed:undname.obj
 0003:00002064       ??_C@_01JOAMLHOP@?9@       000000018015b064     libvcruntimed:undname.obj
 0003:00002068       ??_C@_01MIFGBAGJ@?$CL@     000000018015b068     libvcruntimed:undname.obj
 0003:0000206c       ??_C@_01HNPIGOCE@?$CG@     000000018015b06c     libvcruntimed:undname.obj
 0003:00002070       ??_C@_03MNHNFDLC@?9?$DO?$CK@ 000000018015b070     libvcruntimed:undname.obj
 0003:00002074       ??_C@_01KMDKNFGN@?1@       000000018015b074     libvcruntimed:undname.obj
 0003:00002078       ??_C@_01FGNFDNOH@?$CF@     000000018015b078     libvcruntimed:undname.obj
 0003:0000207c       ??_C@_01MNNFJEPP@?$DM@     000000018015b07c     libvcruntimed:undname.obj
 0003:00002080       ??_C@_02EHCHHCKH@?$DM?$DN@ 000000018015b080     libvcruntimed:undname.obj
 0003:00002084       ??_C@_01PPODPGHN@?$DO@     000000018015b084     libvcruntimed:undname.obj
 0003:00002088       ??_C@_02EEKDKGMJ@?$DO?$DN@ 000000018015b088     libvcruntimed:undname.obj
 0003:0000208c       ??_C@_01IHBHIGKO@?0@       000000018015b08c     libvcruntimed:undname.obj
 0003:00002090       ??_C@_02HCKGKOFO@?$CI?$CJ@ 000000018015b090     libvcruntimed:undname.obj
 0003:00002094       ??_C@_01PJKLJHI@?$HO@      000000018015b094     libvcruntimed:undname.obj
 0003:00002098       ??_C@_01JKBOJNNK@?$FO@     000000018015b098     libvcruntimed:undname.obj
 0003:0000209c       ??_C@_01DNKMNLPK@?$HM@     000000018015b09c     libvcruntimed:undname.obj
 0003:000020a0       ??_C@_02PPKAJPJL@?$CG?$CG@ 000000018015b0a0     libvcruntimed:undname.obj
 0003:000020a4       ??_C@_02NONPIBCD@?$HM?$HM@ 000000018015b0a4     libvcruntimed:undname.obj
 0003:000020a8       ??_C@_02FPIMKNGF@?$CK?$DN@ 000000018015b0a8     libvcruntimed:undname.obj
 0003:000020ac       ??_C@_02FOEOMHFC@?$CL?$DN@ 000000018015b0ac     libvcruntimed:undname.obj
 0003:000020b0       ??_C@_02FKMDLLOA@?9?$DN@   000000018015b0b0     libvcruntimed:undname.obj
 0003:000020b4       ??_C@_02FJEHGPIO@?1?$DN@   000000018015b0b4     libvcruntimed:undname.obj
 0003:000020b8       ??_C@_02FENAOKFI@?$CF?$DN@ 000000018015b0b8     libvcruntimed:undname.obj
 0003:000020bc       ??_C@_03IKFCCPFF@?$DO?$DO?$DN@ 000000018015b0bc     libvcruntimed:undname.obj
 0003:000020c0       ??_C@_03CDNPDDLA@?$DM?$DM?$DN@ 000000018015b0c0     libvcruntimed:undname.obj
 0003:000020c4       ??_C@_02FGJGFEAB@?$CG?$DN@ 000000018015b0c4     libvcruntimed:undname.obj
 0003:000020c8       ??_C@_02DHLNPPGH@?$HM?$DN@ 000000018015b0c8     libvcruntimed:undname.obj
 0003:000020cc       ??_C@_02MHEGNOJ@?$FO?$DN@  000000018015b0cc     libvcruntimed:undname.obj
 0003:000020d0       ??_C@_09IFPLHPGF@?$GAvftable?8@ 000000018015b0d0     libvcruntimed:undname.obj
 0003:000020e0       ??_C@_09BLBHBJP@?$GAvbtable?8@ 000000018015b0e0     libvcruntimed:undname.obj
 0003:000020f0       ??_C@_07FEEIOKP@?$GAvcall?8@ 000000018015b0f0     libvcruntimed:undname.obj
 0003:00002100       ??_C@_08LLFFHHDJ@?$GAtypeof?8@ 000000018015b100     libvcruntimed:undname.obj
 0003:00002110       ??_C@_0BF@KDPPACIK@?$GAlocal?5static?5guard?8@ 000000018015b110     libvcruntimed:undname.obj
 0003:00002130       ??_C@_08OBABFOLI@?$GAstring?8@ 000000018015b130     libvcruntimed:undname.obj
 0003:00002140       ??_C@_0BD@JDLKDPAB@?$GAvbase?5destructor?8@ 000000018015b140     libvcruntimed:undname.obj
 0003:00002158       ??_C@_0BN@DEGPLNFK@?$GAvector?5deleting?5destructor?8@ 000000018015b158     libvcruntimed:undname.obj
 0003:00002180       ??_C@_0BO@OBMKPJIG@?$GAdefault?5constructor?5closure?8@ 000000018015b180     libvcruntimed:undname.obj
 0003:000021a8       ??_C@_0BN@IMDCHIKM@?$GAscalar?5deleting?5destructor?8@ 000000018015b1a8     libvcruntimed:undname.obj
 0003:000021d0       ??_C@_0BO@PFGOCPJJ@?$GAvector?5constructor?5iterator?8@ 000000018015b1d0     libvcruntimed:undname.obj
 0003:000021f8       ??_C@_0BN@LFPFMEDL@?$GAvector?5destructor?5iterator?8@ 000000018015b1f8     libvcruntimed:undname.obj
 0003:00002220       ??_C@_0CE@IKBNEHA@?$GAvector?5vbase?5constructor?5itera@ 000000018015b220     libvcruntimed:undname.obj
 0003:00002250       ??_C@_0BL@NILFHHPC@?$GAvirtual?5displacement?5map?8@ 000000018015b250     libvcruntimed:undname.obj
 0003:00002270       ??_C@_0CB@JONCMFFK@?$GAeh?5vector?5constructor?5iterator@ 000000018015b270     libvcruntimed:undname.obj
 0003:00002298       ??_C@_0CA@GCEOPDGL@?$GAeh?5vector?5destructor?5iterator?8@ 000000018015b298     libvcruntimed:undname.obj
 0003:000022c0       ??_C@_0CH@OOJPLCPH@?$GAeh?5vector?5vbase?5constructor?5it@ 000000018015b2c0     libvcruntimed:undname.obj
 0003:000022f0       ??_C@_0BL@LLKPOHJI@?$GAcopy?5constructor?5closure?8@ 000000018015b2f0     libvcruntimed:undname.obj
 0003:00002310       ??_C@_0BA@KBCDOMBN@?$GAudt?5returning?8@ 000000018015b310     libvcruntimed:undname.obj
 0003:00002324       ??_C@_03KLGMFNMG@?$GAEH@   000000018015b324     libvcruntimed:undname.obj
 0003:00002328       ??_C@_05KHLCHHI@?$GARTTI@  000000018015b328     libvcruntimed:undname.obj
 0003:00002330       ??_C@_0BA@KKLDJDLB@?$GAlocal?5vftable?8@ 000000018015b330     libvcruntimed:undname.obj
 0003:00002348       ??_C@_0CE@IIHCMGGL@?$GAlocal?5vftable?5constructor?5clos@ 000000018015b348     libvcruntimed:undname.obj
 0003:00002374       ??_C@_06FHBGPFGH@?5new?$FL?$FN@ 000000018015b374     libvcruntimed:undname.obj
 0003:00002380       ??_C@_09LBNFPBCA@?5delete?$FL?$FN@ 000000018015b380     libvcruntimed:undname.obj
 0003:00002390       ??_C@_0P@HJKNJFNN@?$GAomni?5callsig?8@ 000000018015b390     libvcruntimed:undname.obj
 0003:000023a8       ??_C@_0BL@CNOONJFP@?$GAplacement?5delete?5closure?8@ 000000018015b3a8     libvcruntimed:undname.obj
 0003:000023c8       ??_C@_0BN@CKNJLHMB@?$GAplacement?5delete?$FL?$FN?5closure?8@ 000000018015b3c8     libvcruntimed:undname.obj
 0003:000023f0       ??_C@_0CG@CFDHKGGD@?$GAmanaged?5vector?5constructor?5ite@ 000000018015b3f0     libvcruntimed:undname.obj
 0003:00002420       ??_C@_0CF@IMGKMJNO@?$GAmanaged?5vector?5destructor?5iter@ 000000018015b420     libvcruntimed:undname.obj
 0003:00002450       ??_C@_0CG@HLDDJMAG@?$GAeh?5vector?5copy?5constructor?5ite@ 000000018015b450     libvcruntimed:undname.obj
 0003:00002480       ??_C@_0CM@FCBBDIGB@?$GAeh?5vector?5vbase?5copy?5construct@ 000000018015b480     libvcruntimed:undname.obj
 0003:000024b8       ??_C@_0BL@CLIPGLGB@?$GAdynamic?5initializer?5for?5?8@ 000000018015b4b8     libvcruntimed:undname.obj
 0003:000024d8       ??_C@_0CB@PDBIFEP@?$GAdynamic?5atexit?5destructor?5for?5@ 000000018015b4d8     libvcruntimed:undname.obj
 0003:00002500       ??_C@_0CD@CGAJBKEJ@?$GAvector?5copy?5constructor?5iterat@ 000000018015b500     libvcruntimed:undname.obj
 0003:00002530       ??_C@_0CJ@GJELGAMM@?$GAvector?5vbase?5copy?5constructor?5@ 000000018015b530     libvcruntimed:undname.obj
 0003:00002568       ??_C@_0CL@FGIJHLCE@?$GAmanaged?5vector?5copy?5constructo@ 000000018015b568     libvcruntimed:undname.obj
 0003:000025a0       ??_C@_0BM@PMGGMLDN@?$GAlocal?5static?5thread?5guard?8@ 000000018015b5a0     libvcruntimed:undname.obj
 0003:000025c8       ??_C@_0N@BDNMDMOL@operator?5?$CC?$CC?5@ 000000018015b5c8     libvcruntimed:undname.obj
 0003:000025d8       ??_C@_0BC@GGEBGALA@operator?5co_await@ 000000018015b5d8     libvcruntimed:undname.obj
 0003:000025f0       ??_C@_0M@GAAIMMOH@operator?$DM?$DN?$DO@ 000000018015b5f0     libvcruntimed:undname.obj
 0003:00002600       ??_C@_0BC@DAFEJGAK@?5Type?5Descriptor?8@ 000000018015b600     libvcruntimed:undname.obj
 0003:00002618       ??_C@_0BM@LDKODKLH@?5Base?5Class?5Descriptor?5at?5?$CI@ 000000018015b618     libvcruntimed:undname.obj
 0003:00002640       ??_C@_0BD@LGICGFMM@?5Base?5Class?5Array?8@ 000000018015b640     libvcruntimed:undname.obj
 0003:00002658       ??_C@_0BN@MECKDCOJ@?5Class?5Hierarchy?5Descriptor?8@ 000000018015b658     libvcruntimed:undname.obj
 0003:00002680       ??_C@_0BK@CFCOFLF@?5Complete?5Object?5Locator?8@ 000000018015b680     libvcruntimed:undname.obj
 0003:000026a0       ??_C@_0BG@JNJLAMPM@?$GAanonymous?5namespace?8@ 000000018015b6a0     libvcruntimed:undname.obj
 0003:000026ba       ?in_place@std@@3Uin_place_t@1@B 000000018015b6ba     libvcruntimed:undname.obj
 0003:000026bc       ??_C@_04HEJADOOB@CV?3?5@   000000018015b6bc     libvcruntimed:undname.obj
 0003:000026c4       ??_C@_03GDILBHBJ@$$h@      000000018015b6c4     libvcruntimed:undname.obj
 0003:000026c8       ??_C@_02MOLJINC@?3?3@      000000018015b6c8     libvcruntimed:undname.obj
 0003:000026d0       ??_C@_0BE@JAEOCHPE@template?9parameter?9@ 000000018015b6d0     libvcruntimed:undname.obj
 0003:000026e8       ??_C@_0BF@LNLGBBNL@?$GAtemplate?9parameter?9@ 000000018015b6e8     libvcruntimed:undname.obj
 0003:00002708       ??_C@_0O@KHGCOMHP@generic?9type?9@ 000000018015b708     libvcruntimed:undname.obj
 0003:00002718       ??_C@_0P@ODDENDLM@?$GAgeneric?9type?9@ 000000018015b718     libvcruntimed:undname.obj
 0003:0000272c       ??_C@_02OHHJMEON@?8?8@     000000018015b72c     libvcruntimed:undname.obj
 0003:00002730       ??_C@_0BN@IBLMMFAP@?$GAnon?9type?9template?9parameter@ 000000018015b730     libvcruntimed:undname.obj
 0003:00002754       ??_C@_03DLDNIBIK@?$CFlf@   000000018015b754     libvcruntimed:undname.obj
 0003:00002758       ??_C@_04OFALKAJ@?$DP?$DP_C@ 000000018015b758     libvcruntimed:undname.obj
 0003:00002760       ??_C@_03KHICJKCI@?4?4?4@   000000018015b760     libvcruntimed:undname.obj
 0003:00002764       ??_C@_04HIBGFPH@NULL@      000000018015b764     libvcruntimed:undname.obj
 0003:0000276c       ??_C@_02DPKJAMEF@?$CFd@    000000018015b76c     libvcruntimed:undname.obj
 0003:00002770       ??_C@_0BK@IHCCFNEL@?$GAtemplate?9type?9parameter?9@ 000000018015b770     libvcruntimed:undname.obj
 0003:00002790       ??_C@_0BK@OFCNNNKO@?$GAgeneric?9class?9parameter?9@ 000000018015b790     libvcruntimed:undname.obj
 0003:000027b0       ??_C@_0BL@NGJBLFIL@?$GAgeneric?9method?9parameter?9@ 000000018015b7b0     libvcruntimed:undname.obj
 0003:000027d0       ??_C@_07OHNGEDJK@nullptr@  000000018015b7d0     libvcruntimed:undname.obj
 0003:000027dc       ??_C@_06COJIGPIB@lambda@   000000018015b7dc     libvcruntimed:undname.obj
 0003:000027e4       ??_C@_04GKJNKENE@void@     000000018015b7e4     libvcruntimed:undname.obj
 0003:000027f0       ??_C@_0BE@EODMJLIF@?$GAtemplate?9parameter@ 000000018015b7f0     libvcruntimed:undname.obj
 0003:00002808       ??_C@_03OPGICMGF@?$HN?8?5@ 000000018015b808     libvcruntimed:undname.obj
 0003:0000280c       ??_C@_02IGFCGPIL@?$HN?8@   000000018015b80c     libvcruntimed:undname.obj
 0003:00002810       ??_C@_0N@CBHHHENL@?$GAvtordispex?$HL@ 000000018015b810     libvcruntimed:undname.obj
 0003:00002820       ??_C@_0L@GHPFDFH@?$GAvtordisp?$HL@ 000000018015b820     libvcruntimed:undname.obj
 0003:00002830       ??_C@_0L@HNGCOGAE@?$GAadjustor?$HL@ 000000018015b830     libvcruntimed:undname.obj
 0003:00002840       ??_C@_0CB@KJDOOODE@?$GAlocal?5static?5destructor?5helper@ 000000018015b840     libvcruntimed:undname.obj
 0003:00002868       ??_C@_0DB@ILEFOCIJ@?$GAtemplate?5static?5data?5member?5co@ 000000018015b868     libvcruntimed:undname.obj
 0003:000028a8       ??_C@_0DA@HGFJFBBE@?$GAtemplate?5static?5data?5member?5de@ 000000018015b8a8     libvcruntimed:undname.obj
 0003:000028e8       ??_C@_07PGOEDBHP@static?5@ 000000018015b8e8     libvcruntimed:undname.obj
 0003:000028f8       ??_C@_08NIEOINHE@virtual?5@ 000000018015b8f8     libvcruntimed:undname.obj
 0003:00002908       ??_C@_09LAPHOOG@private?3?5@ 000000018015b908     libvcruntimed:undname.obj
 0003:00002918       ??_C@_0M@GAIFPFIP@protected?3?5@ 000000018015b918     libvcruntimed:undname.obj
 0003:00002928       ??_C@_08GPDDCMKI@public?3?5@ 000000018015b928     libvcruntimed:undname.obj
 0003:00002938       ??_C@_08KJLFOPNE@?$FLthunk?$FN?3@ 000000018015b938     libvcruntimed:undname.obj
 0003:00002948       ??_C@_0M@DHNBOJMP@extern?5?$CCC?$CC?5@ 000000018015b948     libvcruntimed:undname.obj
 0003:00002958       ??_C@_02KCKGHPCA@?$CJ?5@   000000018015b958     libvcruntimed:undname.obj
 0003:0000295c       ??_C@_05CIHEBHNO@char?5@   000000018015b95c     libvcruntimed:undname.obj
 0003:00002964       ??_C@_06EHJMALKF@short?5@  000000018015b964     libvcruntimed:undname.obj
 0003:0000296c       ??_C@_04LAHKHJMA@int?5@    000000018015b96c     libvcruntimed:undname.obj
 0003:00002974       ??_C@_05CJIMAING@long?5@   000000018015b974     libvcruntimed:undname.obj
 0003:00002980       ??_C@_09EBBEKKIH@unsigned?5@ 000000018015b980     libvcruntimed:undname.obj
 0003:0000298c       ??_C@_05BEFAKPML@void?5@   000000018015b98c     libvcruntimed:undname.obj
 0003:00002998       ??_C@_09GAIEOBLP@volatile?5@ 000000018015b998     libvcruntimed:undname.obj
 0003:000029a8       ??_C@_08PABEKFH@volatile@  000000018015b9a8     libvcruntimed:undname.obj
 0003:000029b8       ??_C@_0BA@LKIJLKPP@std?3?3nullptr_t?5@ 000000018015b9b8     libvcruntimed:undname.obj
 0003:000029d0       ??_C@_0P@GCOCNKDM@std?3?3nullptr_t@ 000000018015b9d0     libvcruntimed:undname.obj
 0003:000029e8       ??_C@_0L@EGPHHEKN@?$DMellipsis?$DO@ 000000018015b9e8     libvcruntimed:undname.obj
 0003:000029f8       ??_C@_04EENFHACM@?0?4?4?4@ 000000018015b9f8     libvcruntimed:undname.obj
 0003:00002a00       ??_C@_0M@ELJOJFFH@?0?$DMellipsis?$DO@ 000000018015ba00     libvcruntimed:undname.obj
 0003:00002a10       ??_C@_09DNHFEOJI@?5noexcept@ 000000018015ba10     libvcruntimed:undname.obj
 0003:00002a1c       ??_C@_03PBJBJNON@cpu@      000000018015ba1c     libvcruntimed:undname.obj
 0003:00002a20       ??_C@_03DCBBJBAA@amp@      000000018015ba20     libvcruntimed:undname.obj
 0003:00002a24       ??_C@_02KEGNLNML@?0?5@     000000018015ba24     libvcruntimed:undname.obj
 0003:00002a28       ??_C@_04ENMBGAPA@char@     000000018015ba28     libvcruntimed:undname.obj
 0003:00002a30       ??_C@_05BFKKPKCG@short@    000000018015ba30     libvcruntimed:undname.obj
 0003:00002a38       ??_C@_03JBIPMCLC@int@      000000018015ba38     libvcruntimed:undname.obj
 0003:00002a3c       ??_C@_04GOKPGOLB@long@     000000018015ba3c     libvcruntimed:undname.obj
 0003:00002a44       ??_C@_05KNFBNCOH@float@    000000018015ba44     libvcruntimed:undname.obj
 0003:00002a4c       ??_C@_06BNJCAIGJ@double@   000000018015ba4c     libvcruntimed:undname.obj
 0003:00002a54       ??_C@_04DDKJGDCM@bool@     000000018015ba54     libvcruntimed:undname.obj
 0003:00002a5c       ??_C@_06EBGKOKIG@__int8@   000000018015ba5c     libvcruntimed:undname.obj
 0003:00002a68       ??_C@_07ICFHOGAF@__int16@  000000018015ba68     libvcruntimed:undname.obj
 0003:00002a78       ??_C@_07OFLPPHGP@__int32@  000000018015ba78     libvcruntimed:undname.obj
 0003:00002a88       ??_C@_07LFCOJCAC@__int64@  000000018015ba88     libvcruntimed:undname.obj
 0003:00002a98       ??_C@_08GAHOLHEO@__int128@ 000000018015ba98     libvcruntimed:undname.obj
 0003:00002aa8       ??_C@_09EEKGDCPH@?$DMunknown?$DO@ 000000018015baa8     libvcruntimed:undname.obj
 0003:00002ab8       ??_C@_07CFHGOPCN@char8_t@  000000018015bab8     libvcruntimed:undname.obj
 0003:00002ac8       ??_C@_08HBIPOFJB@char16_t@ 000000018015bac8     libvcruntimed:undname.obj
 0003:00002ad8       ??_C@_08IECNCBKG@char32_t@ 000000018015bad8     libvcruntimed:undname.obj
 0003:00002ae8       ??_C@_07CLGGIAMF@wchar_t@  000000018015bae8     libvcruntimed:undname.obj
 0003:00002af4       ??_C@_04HAPDLBFF@auto@     000000018015baf4     libvcruntimed:undname.obj
 0003:00002b00       ??_C@_0P@LHCGKIGK@decltype?$CIauto?$CJ@ 000000018015bb00     libvcruntimed:undname.obj
 0003:00002b14       ??_C@_05PCNBGHCF@this?5@   000000018015bb14     libvcruntimed:undname.obj
 0003:00002b1c       ??_C@_06GCICPBLB@__w64?5@  000000018015bb1c     libvcruntimed:undname.obj
 0003:00002b28       ??_C@_07NFANNNEC@UNKNOWN@  000000018015bb28     libvcruntimed:undname.obj
 0003:00002b38       ??_C@_07EDHNAJHC@signed?5@ 000000018015bb38     libvcruntimed:undname.obj
 0003:00002b44       ??_C@_05BNCCCJPP@const@    000000018015bb44     libvcruntimed:undname.obj
 0003:00002b50       ??_C@_09EFNPDFFP@?5volatile@ 000000018015bb50     libvcruntimed:undname.obj
 0003:00002b60       ??_C@_0P@GCIFDJCJ@?$GAunknown?5ecsu?8@ 000000018015bb60     libvcruntimed:undname.obj
 0003:00002b74       ??_C@_06MOJHIBMG@union?5@  000000018015bb74     libvcruntimed:undname.obj
 0003:00002b80       ??_C@_07DIBCDNGL@struct?5@ 000000018015bb80     libvcruntimed:undname.obj
 0003:00002b8c       ??_C@_06LJBABKPM@class?5@  000000018015bb8c     libvcruntimed:undname.obj
 0003:00002b98       ??_C@_08KOFANOFK@coclass?5@ 000000018015bb98     libvcruntimed:undname.obj
 0003:00002ba8       ??_C@_0N@DLIEFKNA@cointerface?5@ 000000018015bba8     libvcruntimed:undname.obj
 0003:00002bb8       ??_C@_05LJGMCFOG@enum?5@   000000018015bbb8     libvcruntimed:undname.obj
 0003:00002bc0       ??_C@_06LIJLOJAG@const?5@  000000018015bbc0     libvcruntimed:undname.obj
 0003:00002bc8       ??_C@_02KJPKDIBN@?$CG?5@   000000018015bbc8     libvcruntimed:undname.obj
 0003:00002bcc       ??_C@_03PCKGMOPB@?$CG?$CG?5@ 000000018015bbcc     libvcruntimed:undname.obj
 0003:00002bd0       ??_C@_0M@EALIELKG@cli?3?3array?$DM@ 000000018015bbd0     libvcruntimed:undname.obj
 0003:00002be0       ??_C@_0O@GKABPPIF@cli?3?3pin_ptr?$DM@ 000000018015bbe0     libvcruntimed:undname.obj
 0003:00002bf0       ??_C@_02GOGNNPBN@?$CJ?$FL@ 000000018015bbf0     libvcruntimed:undname.obj
 0003:00002bf4       ??_C@_06EEGAIFAK@?$HLflat?$HN@ 000000018015bbf4     libvcruntimed:undname.obj
 0003:00002bfc       ??_C@_05JIBOFOHK@?$HLfor?5@ 000000018015bbfc     libvcruntimed:undname.obj
 0003:00002c04       ??_C@_02MDINNEEG@s?5@      000000018015bc04     libvcruntimed:undname.obj
 0003:00002c10       ??_7DNameNode@@6B@         000000018015bc10     libvcruntimed:undname.obj
 0003:00002c40       ??_7charNode@@6B@          000000018015bc40     libvcruntimed:undname.obj
 0003:00002c70       ??_7pcharNode@@6B@         000000018015bc70     libvcruntimed:undname.obj
 0003:00002ca0       ??_7pDNameNode@@6B@        000000018015bca0     libvcruntimed:undname.obj
 0003:00002cd0       ??_7DNameStatusNode@@6B@   000000018015bcd0     libvcruntimed:undname.obj
 0003:00002d00       ??_7pairNode@@6B@          000000018015bd00     libvcruntimed:undname.obj
 0003:00002e64       ??_C@_04OKOHEJBO@?5?$DP?$DP?5@ 000000018015be64     libvcruntimed:undname.obj
 0003:00002e70       ?nodes@?1??make@DNameStatusNode@@SAPEBV2@W4DNameStatus@@@Z@4QBV2@B 000000018015be70     libvcruntimed:undname.obj
 0003:00002ec0       ??_C@_0CG@LKEBOLJI@Cannot?5access?5value?5of?5empty?5op@ 000000018015bec0     libvcruntimed:undname.obj
 0003:00002ef0       ??_C@_02DKCKIIND@?$CFs@    000000018015bef0     libvcruntimed:undname.obj
 0003:00002ef8       ??_C@_0CO@DDKCBJPP@D?3?2a?2_work?21?2s?2binaries?2amd64re@ 000000018015bef8     libvcruntimed:undname.obj
 0003:00002f30       ??_C@_1FM@DLKJNKCF@?$AAD?$AA?3?$AA?2?$AAa?$AA?2?$AA_?$AAw?$AAo?$AAr?$AAk?$AA?2?$AA1?$AA?2?$AAs?$AA?2@ 000000018015bf30     libvcruntimed:undname.obj
 0003:00002fa0       ??_C@_11LOCGONAA@@         000000018015bfa0     libvcruntimed:undname.obj
 0003:00002fb0       ??_C@_1FA@DPIDPJCB@?$AA?$CC?$AAC?$AAa?$AAn?$AAn?$AAo?$AAt?$AA?5?$AAa?$AAc?$AAc?$AAe?$AAs?$AAs?$AA?5@ 000000018015bfb0     libvcruntimed:undname.obj
 0003:00003010       ??_C@_0EK@HNOIOKGA@D?3?2a?2_work?21?2s?2src?2vctools?2crt?2@ 000000018015c010     libvcruntimed:per_thread_data.obj
 0003:00003068       ?s_negLengthTab@FH4@@3QBCB 000000018015c068     libvcruntimed:risctrnsctrl.obj
 0003:00003080       ?s_shiftTab@FH4@@3QBEB     000000018015c080     libvcruntimed:risctrnsctrl.obj
 0003:00003238       ??_C@_1DM@KHCHBNEB@?$AAa?$AAp?$AAi?$AA?9?$AAm?$AAs?$AA?9?$AAw?$AAi?$AAn?$AA?9?$AAc?$AAo?$AAr?$AAe@ 000000018015c238     libvcruntimed:winapi_downlevel.obj
 0003:00003280       ??_C@_1DK@LPPGFMPP@?$AAa?$AAp?$AAi?$AA?9?$AAm?$AAs?$AA?9?$AAw?$AAi?$AAn?$AA?9?$AAc?$AAo?$AAr?$AAe@ 000000018015c280     libvcruntimed:winapi_downlevel.obj
 0003:000032c8       ??_C@_1BC@GDMECMAK@?$AAk?$AAe?$AAr?$AAn?$AAe?$AAl?$AA3?$AA2@ 000000018015c2c8     libvcruntimed:winapi_downlevel.obj
 0003:000032e0       ??_C@_17CNPHIMPH@?$AA?$CF?$AAl?$AAs@ 000000018015c2e0     libvcruntimed:winapi_downlevel.obj
 0003:000032f0       ??_C@_1BA@PFFKHIOG@?$AAa?$AAp?$AAi?$AA?9?$AAm?$AAs?$AA?9@ 000000018015c2f0     libvcruntimed:winapi_downlevel.obj
 0003:00003310       ??_C@_1EM@LBIFGLGH@?$AAc?$AAa?$AAc?$AAh?$AAe?$AAd?$AA_?$AAh?$AAa?$AAn?$AAd?$AAl?$AAe?$AA?5?$AA?$DN@ 000000018015c310     libvcruntimed:winapi_downlevel.obj
 0003:00003370       ??_C@_1JG@EAIBPIGC@?$AAD?$AA?3?$AA?2?$AAa?$AA?2?$AA_?$AAw?$AAo?$AAr?$AAk?$AA?2?$AA1?$AA?2?$AAs?$AA?2@ 000000018015c370     libvcruntimed:winapi_downlevel.obj
 0003:00003428       ??_C@_1DI@MAHEDLDB@?$AAc?$AAa?$AAc?$AAh?$AAe?$AAd?$AA_?$AAh?$AAa?$AAn?$AAd?$AAl?$AAe?$AA?5?$AA?$DN@ 000000018015c428     libvcruntimed:winapi_downlevel.obj
 0003:00003470       ??_C@_1FC@IBNCGNKL@?$AAc?$AAa?$AAc?$AAh?$AAe?$AAd?$AA_?$AAf?$AAp?$AA?5?$AA?$DN?$AA?$DN?$AA?5?$AAi?$AAn@ 000000018015c470     libvcruntimed:winapi_downlevel.obj
 0003:000034d8       ??_C@_1CI@GDJBAGLP@?$AAc?$AAa?$AAc?$AAh?$AAe?$AAd?$AA_?$AAf?$AAp?$AA?5?$AA?$DN?$AA?$DN?$AA?5?$AAn?$AAe@ 000000018015c4d8     libvcruntimed:winapi_downlevel.obj
 0003:00003518       ??_C@_08KNHFBNJ@FlsAlloc@  000000018015c518     libvcruntimed:winapi_downlevel.obj
 0003:00003538       ??_C@_07PEJMOBNF@FlsFree@  000000018015c538     libvcruntimed:winapi_downlevel.obj
 0003:00003558       ??_C@_0M@GDNOONDI@FlsGetValue@ 000000018015c558     libvcruntimed:winapi_downlevel.obj
 0003:00003578       ??_C@_0M@JCPCPOEF@FlsSetValue@ 000000018015c578     libvcruntimed:winapi_downlevel.obj
 0003:00003598       ??_C@_0BM@HCFOFFN@InitializeCriticalSectionEx@ 000000018015c598     libvcruntimed:winapi_downlevel.obj
 0003:000035c8       ??_7exception@std@@6B@     000000018015c5c8     libvcruntimed:frame.obj
 0003:000035e0       ??_C@_0BC@EOODALEL@Unknown?5exception@ 000000018015c5e0     libvcruntimed:frame.obj
 0003:00003600       ??_7bad_exception@std@@6B@ 000000018015c600     libvcruntimed:frame.obj
 0003:00003618       ??_C@_0O@DPKOEFFH@bad?5exception@ 000000018015c618     libvcruntimed:frame.obj
 0003:00003630       ??_C@_1FK@OACNEHHA@?$AAt?$AAo?$AA?9?$AA?$DO?$AA_?$AAW?$AAh?$AAa?$AAt?$AA?5?$AA?$DN?$AA?$DN?$AA?5?$AAn?$AAu@ 000000018015c630     libvcruntimed:std_exception.obj
 0003:000036a0       ??_C@_1IE@BLOAAGCK@?$AAD?$AA?3?$AA?2?$AAa?$AA?2?$AA_?$AAw?$AAo?$AAr?$AAk?$AA?2?$AA1?$AA?2?$AAs?$AA?2@ 000000018015c6a0     libvcruntimed:std_exception.obj
 0003:00003760       ??_C@_1BA@GLMCNLEM@?$AAW?$AAa?$AAr?$AAn?$AAi?$AAn?$AAg@ 000000018015c760     libucrtd:dbgrpt.obj
 0003:00003778       ??_C@_1M@ILHOPKA@?$AAE?$AAr?$AAr?$AAo?$AAr@ 000000018015c778     libucrtd:dbgrpt.obj
 0003:00003788       ??_C@_1CC@CGHMNGDG@?$AAA?$AAs?$AAs?$AAe?$AAr?$AAt?$AAi?$AAo?$AAn?$AA?5?$AAF?$AAa?$AAi?$AAl?$AAe@ 000000018015c788     libucrtd:dbgrpt.obj
 0003:000037c0       ??_C@_1OG@PMPPFHAF@?$AA?6?$AA?6?$AAF?$AAo?$AAr?$AA?5?$AAi?$AAn?$AAf?$AAo?$AAr?$AAm?$AAa?$AAt?$AAi@ 000000018015c7c0     libucrtd:dbgrpt.obj
 0003:000039a0       ??_C@_1MG@LJLILFFD@?$AAD?$AAe?$AAb?$AAu?$AAg?$AA?5?$AA?$CF?$AAl?$AAs?$AA?$CB?$AA?6?$AA?6?$AAP?$AAr?$AAo@ 000000018015c9a0     libucrtd:dbgrpt.obj
 0003:00003a90       ??_C@_1MG@OODCADGL@?$AAD?$AAe?$AAb?$AAu?$AAg?$AA?5?$AA?$CF?$AAl?$AAs?$AA?$CB?$AA?6?$AA?6?$AAP?$AAr?$AAo@ 000000018015ca90     libucrtd:dbgrpt.obj
 0003:00003b80       ??_C@_0BH@DNAGHKFM@?$DMprogram?5name?5unknown?$DO@ 000000018015cb80     libucrtd:dbgrpt.obj
 0003:00003ba0       ??_C@_1CO@EAEJAADC@?$AA?$DM?$AAp?$AAr?$AAo?$AAg?$AAr?$AAa?$AAm?$AA?5?$AAn?$AAa?$AAm?$AAe?$AA?5?$AAu@ 000000018015cba0     libucrtd:dbgrpt.obj
 0003:00003be0       ??_C@_1FK@BNNDOGMN@?$AA?$CI?$AA?$CC?$AAT?$AAh?$AAe?$AA?5?$AAh?$AAo?$AAo?$AAk?$AA?5?$AAf?$AAu?$AAn?$AAc@ 000000018015cbe0     libucrtd:dbgrpt.obj
 0003:00003c50       ??_C@_1FO@GMJDLAJD@?$AAm?$AAi?$AAn?$AAk?$AAe?$AAr?$AAn?$AAe?$AAl?$AA?2?$AAc?$AAr?$AAt?$AAs?$AA?2@ 000000018015cc50     libucrtd:dbgrpt.obj
 0003:00003cc0       ??_C@_0CP@HDJNPEFB@minkernel?2crts?2ucrt?2src?2appcrt?2@ 000000018015ccc0     libucrtd:dbgrpt.obj
 0003:00003d00       ??_C@_1HI@OFEHGPPC@?$AAm?$AAo?$AAd?$AAe?$AA?5?$AA?$DN?$AA?$DN?$AA?5?$AA_?$AAC?$AAR?$AAT?$AA_?$AAR?$AAP@ 000000018015cd00     libucrtd:dbgrpt.obj
 0003:00003d90       ??_C@_1CO@FFNKOJOG@?$AAc?$AAo?$AAm?$AAm?$AAo?$AAn?$AA_?$AAs?$AAe?$AAt?$AA_?$AAr?$AAe?$AAp?$AAo@ 000000018015cd90     libucrtd:dbgrpt.obj
 0003:00003dc8       ??_C@_1CI@ONEHFNHD@?$AAn?$AAe?$AAw?$AA_?$AAh?$AAo?$AAo?$AAk?$AA?5?$AA?$CB?$AA?$DN?$AA?5?$AAn?$AAu?$AAl@ 000000018015cdc8     libucrtd:dbgrpt.obj
 0003:00003e00       ??_C@_1CM@EHMOGBJJ@?$AAc?$AAo?$AAm?$AAm?$AAo?$AAn?$AA_?$AAm?$AAe?$AAs?$AAs?$AAa?$AAg?$AAe?$AA_@ 000000018015ce00     libucrtd:dbgrpt.obj
 0003:00003e40       ??_C@_1PE@ECNALGCA@?$AAt?$AAr?$AAa?$AAi?$AAt?$AAs?$AA?3?$AA?3?$AAt?$AAc?$AAs?$AAc?$AAp?$AAy?$AA_@ 000000018015ce40     libucrtd:dbgrpt.obj
 0003:00003f68       ??_C@_1BK@PEDCIPMA@?$AAE?$AAx?$AAp?$AAr?$AAe?$AAs?$AAs?$AAi?$AAo?$AAn?$AA?3?$AA?5@ 000000018015cf68     libucrtd:dbgrpt.obj
 0003:00003f88       ??_C@_15IABLJNFO@?$AA?6?$AA?6@ 000000018015cf88     libucrtd:dbgrpt.obj
 0003:00003f90       ??_C@_1BA@GLLGCPCK@?$AA?6?$AAL?$AAi?$AAn?$AAe?$AA?3?$AA?5@ 000000018015cf90     libucrtd:dbgrpt.obj
 0003:00003fa8       ??_C@_1BA@LNHECFIM@?$AA?6?$AAF?$AAi?$AAl?$AAe?$AA?3?$AA?5@ 000000018015cfa8     libucrtd:dbgrpt.obj
 0003:00003fc0       ??_C@_17LGKOMLJ@?$AA?4?$AA?4?$AA?4@ 000000018015cfc0     libucrtd:dbgrpt.obj
 0003:00003fd0       ??_C@_1BE@CGCJKGHI@?$AA?6?$AAM?$AAo?$AAd?$AAu?$AAl?$AAe?$AA?3?$AA?5@ 000000018015cfd0     libucrtd:dbgrpt.obj
 0003:00003fe8       ??_C@_1BI@KALLJECN@?$AA?$CI?$AA?$CK?$AA_?$AAe?$AAr?$AAr?$AAn?$AAo?$AA?$CI?$AA?$CJ?$AA?$CJ@ 000000018015cfe8     libucrtd:dbgrpt.obj
 0003:00004010       ??_C@_1JM@IBOIJEOO@?$AAw?$AAc?$AAs?$AAc?$AAp?$AAy?$AA_?$AAs?$AA?$CI?$AAm?$AAe?$AAs?$AAs?$AAa?$AAg@ 000000018015d010     libucrtd:dbgrpt.obj
 0003:000040d0       ??_C@_1FG@BBOLDHGF@?$AA_?$AAC?$AAr?$AAt?$AAD?$AAb?$AAg?$AAR?$AAe?$AAp?$AAo?$AAr?$AAt?$AA?3?$AA?5@ 000000018015d0d0     libucrtd:dbgrpt.obj
 0003:00004140       ??_C@_1EK@MBDPDCGA@?$AAM?$AAi?$AAc?$AAr?$AAo?$AAs?$AAo?$AAf?$AAt?$AA?5?$AAV?$AAi?$AAs?$AAu?$AAa@ 000000018015d140     libucrtd:dbgrpt.obj
 0003:000041a0       __acrt_exception_action_table 000000018015d1a0     libucrtd:exception_filter.obj
 0003:00004288       __acrt_signal_action_table_count 000000018015d288     libucrtd:exception_filter.obj
 0003:00004298       __acrt_signal_action_table_size 000000018015d298     libucrtd:exception_filter.obj
 0003:000042a8       __acrt_signal_action_first_fpe_index 000000018015d2a8     libucrtd:exception_filter.obj
 0003:000042b8       __acrt_signal_action_fpe_count 000000018015d2b8     libucrtd:exception_filter.obj
 0003:00004358       ??_C@_1BI@BGOHAHKC@?$AAm?$AAs?$AAc?$AAo?$AAr?$AAe?$AAe?$AA?4?$AAd?$AAl?$AAl@ 000000018015d358     libucrtd:exit.obj
 0003:00004378       ??_C@_0P@MIGLKIOC@CorExitProcess@ 000000018015d378     libucrtd:exit.obj
 0003:000043f0       ??_C@_0DI@KNDIGDEP@minkernel?2crts?2ucrt?2src?2appcrt?2@ 000000018015d3f0     libucrtd:argv_parsing.obj
 0003:00004440       ??_C@_1JO@PGBIJBAM@?$AAm?$AAo?$AAd?$AAe?$AA?5?$AA?$DN?$AA?$DN?$AA?5?$AA_?$AAc?$AAr?$AAt?$AA_?$AAa?$AAr@ 000000018015d440     libucrtd:argv_parsing.obj
 0003:00004500       ??_C@_1HA@JMLCANEE@?$AAm?$AAi?$AAn?$AAk?$AAe?$AAr?$AAn?$AAe?$AAl?$AA?2?$AAc?$AAr?$AAt?$AAs?$AA?2@ 000000018015d500     libucrtd:argv_parsing.obj
 0003:00004588       ??_C@_1CM@LHOJELIC@?$AAc?$AAo?$AAm?$AAm?$AAo?$AAn?$AA_?$AAc?$AAo?$AAn?$AAf?$AAi?$AAg?$AAu?$AAr@ 000000018015d588     libucrtd:argv_parsing.obj
 0003:00004680       ??_C@_0EG@LEHKHOEH@minkernel?2crts?2ucrt?2src?2desktop@ 000000018015d680     libucrtd:environment_initialization.obj
 0003:000046e0       ??_C@_1IM@IMOFFPLG@?$AAm?$AAi?$AAn?$AAk?$AAe?$AAr?$AAn?$AAe?$AAl?$AA?2?$AAc?$AAr?$AAt?$AAs?$AA?2@ 000000018015d6e0     libucrtd:environment_initialization.obj
 0003:00004788       ??_C@_1CG@MNNNBNAK@?$AAc?$AAr?$AAe?$AAa?$AAt?$AAe?$AA_?$AAe?$AAn?$AAv?$AAi?$AAr?$AAo?$AAn?$AAm@ 000000018015d788     libucrtd:environment_initialization.obj
 0003:000047c0       ??_C@_1HI@OOPIFFGA@?$AAt?$AAr?$AAa?$AAi?$AAt?$AAs?$AA?3?$AA?3?$AAt?$AAc?$AAs?$AAc?$AAp?$AAy?$AA_@ 000000018015d7c0     libucrtd:environment_initialization.obj
 0003:000048e0       ??_C@_0DC@NBHMIIKL@minkernel?2crts?2ucrt?2src?2appcrt?2@ 000000018015d8e0     libucrtd:onexit.obj
 0003:00004a90       ??_C@_1GI@BBAEIKL@?$AA?$CI?$AA?$CI?$AAd?$AAe?$AAs?$AAt?$AAi?$AAn?$AAa?$AAt?$AAi?$AAo?$AAn?$AA?$CJ?$AA?$CJ@ 000000018015da90     libucrtd:strcpy_s.obj
 0003:00004b10       ??_C@_1HI@PBJPCEBC@?$AAm?$AAi?$AAn?$AAk?$AAe?$AAr?$AAn?$AAe?$AAl?$AA?2?$AAc?$AAr?$AAt?$AAs?$AA?2@ 000000018015db10     libucrtd:strcpy_s.obj
 0003:00004ba0       ??_C@_1CA@FHIAGDFH@?$AAc?$AAo?$AAm?$AAm?$AAo?$AAn?$AA_?$AAt?$AAc?$AAs?$AAc?$AAp?$AAy?$AA_?$AAs@ 000000018015dba0     libucrtd:strcpy_s.obj
 0003:00004bc8       ??_C@_1CK@EIOKGPJL@?$AA?$CI?$AA?$CI?$AA?$CI?$AAs?$AAo?$AAu?$AAr?$AAc?$AAe?$AA?$CJ?$AA?$CJ?$AA?$CJ?$AA?5?$AA?$CB?$AA?$DN@ 000000018015dbc8     libucrtd:strcpy_s.obj
 0003:00004c00       ??_C@_1CI@HCPHDDLE@?$AAB?$AAu?$AAf?$AAf?$AAe?$AAr?$AA?5?$AAi?$AAs?$AA?5?$AAt?$AAo?$AAo?$AA?5?$AAs@ 000000018015dc00     libucrtd:strcpy_s.obj
 0003:00004c30       ??_C@_1DM@MADKGDLO@?$AA?$CI?$AAL?$AA?$CC?$AAB?$AAu?$AAf?$AAf?$AAe?$AAr?$AA?5?$AAi?$AAs?$AA?5?$AAt?$AAo@ 000000018015dc30     libucrtd:strcpy_s.obj
 0003:00004c78       ??_C@_1CA@EOJJMFA@?$AAc?$AAo?$AAm?$AAm?$AAo?$AAn?$AA_?$AAt?$AAc?$AAs?$AAc?$AAa?$AAt?$AA_?$AAs@ 000000018015dc78     libucrtd:strcat_s.obj
 0003:00004ca0       ??_C@_1DM@FHLMIEG@?$AAS?$AAt?$AAr?$AAi?$AAn?$AAg?$AA?5?$AAi?$AAs?$AA?5?$AAn?$AAo?$AAt?$AA?5?$AAn@ 000000018015dca0     libucrtd:strcat_s.obj
 0003:00004cf0       ??_C@_1FA@MJKDNFFB@?$AA?$CI?$AAL?$AA?$CC?$AAS?$AAt?$AAr?$AAi?$AAn?$AAg?$AA?5?$AAi?$AAs?$AA?5?$AAn?$AAo@ 000000018015dcf0     libucrtd:strcat_s.obj
 0003:00004d50       _Fenv1                     000000018015dd50     libucrtd:output.obj
 0003:00004d60       ?standard_lookup_table_spectre@__crt_stdio_output@@3V?$spectre_mitigated_lookup_table@Ustate_transition_pair@__crt_stdio_output@@$0IA@@1@B 000000018015dd60     libucrtd:output.obj
 0003:00004ea0       ?format_validation_lookup_table_spectre@__crt_stdio_output@@3V?$spectre_mitigated_lookup_table@Ustate_transition_pair@__crt_stdio_output@@$0IA@@1@B 000000018015dea0     libucrtd:output.obj
 0003:00005880       ??_C@_1BDG@MKBKGHOH@?$AA?$CI?$AA?5?$AA?$CI?$AA_?$AAS?$AAt?$AAr?$AAe?$AAa?$AAm?$AA?4?$AAi?$AAs?$AA_?$AAs@ 000000018015e880     libucrtd:output.obj
 0003:00005a00       ??_C@_1GC@LCDLABEA@?$AAm?$AAi?$AAn?$AAk?$AAe?$AAr?$AAn?$AAe?$AAl?$AA?2?$AAc?$AAr?$AAt?$AAs?$AA?2@ 000000018015ea00     libucrtd:output.obj
 0003:00005a80       ??_C@_1II@DIIMCJOK@?$AA_?$AA_?$AAa?$AAc?$AAr?$AAt?$AA_?$AAs?$AAt?$AAd?$AAi?$AAo?$AA_?$AAc?$AAh@ 000000018015ea80     libucrtd:output.obj
 0003:00005b30       ??_C@_1GE@DPGDJKLM@?$AAm?$AAi?$AAn?$AAk?$AAe?$AAr?$AAn?$AAe?$AAl?$AA?2?$AAc?$AAr?$AAt?$AAs?$AA?2@ 000000018015eb30     libucrtd:output.obj
 0003:00005ba8       ??_C@_1CE@JLIJLEKO@?$AAs?$AAt?$AAr?$AAe?$AAa?$AAm?$AA?5?$AA?$CB?$AA?$DN?$AA?5?$AAn?$AAu?$AAl?$AAl?$AAp@ 000000018015eba8     libucrtd:output.obj
 0003:00005be0       ??_C@_1GA@MOBAPGIO@?$AAm?$AAi?$AAn?$AAk?$AAe?$AAr?$AAn?$AAe?$AAl?$AA?2?$AAc?$AAr?$AAt?$AAs?$AA?2@ 000000018015ebe0     libucrtd:output.obj
 0003:00005c58       ??_C@_1CA@GELIJBMC@?$AAc?$AAo?$AAm?$AAm?$AAo?$AAn?$AA_?$AAv?$AAf?$AAp?$AAr?$AAi?$AAn?$AAt?$AAf@ 000000018015ec58     libucrtd:output.obj
 0003:00005c80       ??_C@_1CE@EAKLPBKK@?$AAf?$AAo?$AAr?$AAm?$AAa?$AAt?$AA?5?$AA?$CB?$AA?$DN?$AA?5?$AAn?$AAu?$AAl?$AAl?$AAp@ 000000018015ec80     libucrtd:output.obj
 0003:00005cb0       ??_C@_1CA@PIMGHCEK@?$AAc?$AAo?$AAm?$AAm?$AAo?$AAn?$AA_?$AAv?$AAs?$AAp?$AAr?$AAi?$AAn?$AAt?$AAf@ 000000018015ecb0     libucrtd:output.obj
 0003:00005ce0       ??_C@_1EO@EGEEFEFM@?$AAb?$AAu?$AAf?$AAf?$AAe?$AAr?$AA_?$AAc?$AAo?$AAu?$AAn?$AAt?$AA?5?$AA?$DN?$AA?$DN@ 000000018015ece0     libucrtd:output.obj
 0003:00005d40       ??_C@_1CE@JEILLNB@?$AAc?$AAo?$AAm?$AAm?$AAo?$AAn?$AA_?$AAv?$AAs?$AAp?$AAr?$AAi?$AAn?$AAt?$AAf@ 000000018015ed40     libucrtd:output.obj
 0003:00005d70       ??_C@_1EM@OAFHAOLH@?$AAb?$AAu?$AAf?$AAf?$AAe?$AAr?$AA?5?$AA?$CB?$AA?$DN?$AA?5?$AAn?$AAu?$AAl?$AAl?$AAp@ 000000018015ed70     libucrtd:output.obj
 0003:00005dd0       ??_C@_1DA@HPBFKMEB@?$AA?$CI?$AA?$CC?$AAB?$AAu?$AAf?$AAf?$AAe?$AAr?$AA?5?$AAt?$AAo?$AAo?$AA?5?$AAs?$AAm@ 000000018015edd0     libucrtd:output.obj
 0003:00005e10       ??_C@_1CG@LHFJHFBB@?$AAc?$AAo?$AAm?$AAm?$AAo?$AAn?$AA_?$AAv?$AAs?$AAn?$AAp?$AAr?$AAi?$AAn?$AAt@ 000000018015ee10     libucrtd:output.obj
 0003:00005e40       ??_C@_1CM@JOIJBMEM@?$AA_?$AAf?$AAo?$AAr?$AAm?$AAa?$AAt?$AA_?$AAi?$AAt?$AA?5?$AA?$CB?$AA?$DN?$AA?5?$AAn@ 000000018015ee40     libucrtd:output.obj
 0003:00005e80       ??_C@_1HA@DMAAKIJP@?$AAm?$AAi?$AAn?$AAk?$AAe?$AAr?$AAn?$AAe?$AAl?$AA?2?$AAc?$AAr?$AAt?$AAs?$AA?2@ 000000018015ee80     libucrtd:output.obj
 0003:00005f10       ??_C@_1BNA@OIIAGHJI@?$AA_?$AA_?$AAc?$AAr?$AAt?$AA_?$AAs?$AAt?$AAd?$AAi?$AAo?$AA_?$AAo?$AAu?$AAt@ 000000018015ef10     libucrtd:output.obj
 0003:00006140       ??_C@_1EE@DMAIGNBG@?$AA?$CI?$AA?$CC?$AAI?$AAn?$AAc?$AAo?$AAr?$AAr?$AAe?$AAc?$AAt?$AA?5?$AAf?$AAo?$AAr@ 000000018015f140     libucrtd:output.obj
 0003:000061a0       ??_C@_1BLI@EGFICANE@?$AA_?$AA_?$AAc?$AAr?$AAt?$AA_?$AAs?$AAt?$AAd?$AAi?$AAo?$AA_?$AAo?$AAu?$AAt@ 000000018015f1a0     libucrtd:output.obj
 0003:000063b0       ??_C@_1BLI@IKDKMDHI@?$AA_?$AA_?$AAc?$AAr?$AAt?$AA_?$AAs?$AAt?$AAd?$AAi?$AAo?$AA_?$AAo?$AAu?$AAt@ 000000018015f3b0     libucrtd:output.obj
 0003:000065c0       ??_C@_1BKA@DNADAJMC@?$AA_?$AA_?$AAc?$AAr?$AAt?$AA_?$AAs?$AAt?$AAd?$AAi?$AAo?$AA_?$AAo?$AAu?$AAt@ 000000018015f5c0     libucrtd:output.obj
 0003:000067c0       ??_C@_1BNA@HGLCOOBP@?$AA_?$AA_?$AAc?$AAr?$AAt?$AA_?$AAs?$AAt?$AAd?$AAi?$AAo?$AA_?$AAo?$AAu?$AAt@ 000000018015f7c0     libucrtd:output.obj
 0003:000069f0       ??_C@_1BLI@FOCNEPKJ@?$AA_?$AA_?$AAc?$AAr?$AAt?$AA_?$AAs?$AAt?$AAd?$AAi?$AAo?$AA_?$AAo?$AAu?$AAt@ 000000018015f9f0     libucrtd:output.obj
 0003:00006c00       ??_C@_1BMK@CPBKHDIH@?$AA_?$AA_?$AAc?$AAr?$AAt?$AA_?$AAs?$AAt?$AAd?$AAi?$AAo?$AA_?$AAo?$AAu?$AAt@ 000000018015fc00     libucrtd:output.obj
 0003:00006e30       ??_C@_1BLC@PMCLHHAE@?$AA_?$AA_?$AAc?$AAr?$AAt?$AA_?$AAs?$AAt?$AAd?$AAi?$AAo?$AA_?$AAo?$AAu?$AAt@ 000000018015fe30     libucrtd:output.obj
 0003:00007040       ??_C@_1BLI@EEAAPJD@?$AA_?$AA_?$AAc?$AAr?$AAt?$AA_?$AAs?$AAt?$AAd?$AAi?$AAo?$AA_?$AAo?$AAu?$AAt@ 0000000180160040     libucrtd:output.obj
 0003:00007250       ??_C@_1BKA@IIAAOGBO@?$AA_?$AA_?$AAc?$AAr?$AAt?$AA_?$AAs?$AAt?$AAd?$AAi?$AAo?$AA_?$AAo?$AAu?$AAt@ 0000000180160250     libucrtd:output.obj
 0003:00007450       ??_C@_1FG@OBJBDPAC@?$AA?$CI?$AA?$CC?$AAN?$AA?5?$AAl?$AAe?$AAn?$AAg?$AAt?$AAh?$AA?5?$AAm?$AAo?$AAd?$AAi@ 0000000180160450     libucrtd:output.obj
 0003:000074c0       ??_C@_1BOA@BMEGDMHF@?$AA_?$AA_?$AAc?$AAr?$AAt?$AA_?$AAs?$AAt?$AAd?$AAi?$AAo?$AA_?$AAo?$AAu?$AAt@ 00000001801604c0     libucrtd:output.obj
 0003:00007700       ??_C@_1EC@GJPNJDCN@?$AA_?$AAl?$AAe?$AAn?$AAg?$AAt?$AAh?$AA?5?$AA?$DN?$AA?$DN?$AA?5?$AAl?$AAe?$AAn?$AAg@ 0000000180160700     libucrtd:output.obj
 0003:00007750       ??_C@_1DG@CEJKFDMO@?$AAs?$AAt?$AAa?$AAt?$AAe?$AA_?$AAc?$AAa?$AAs?$AAe?$AA_?$AAn?$AAo?$AAr?$AAm@ 0000000180160750     libucrtd:output.obj
 0003:00007790       ??_C@_1BOE@IPKNNOEE@?$AA_?$AA_?$AAc?$AAr?$AAt?$AA_?$AAs?$AAt?$AAd?$AAi?$AAo?$AA_?$AAo?$AAu?$AAt@ 0000000180160790     libucrtd:output.obj
 0003:000079e0       ??_C@_1IC@NLEOMCDL@?$AA_?$AAt?$AAy?$AAp?$AAe?$AA_?$AAi?$AAn?$AAd?$AAe?$AAx?$AA?5?$AA?$DO?$AA?$DN?$AA?5@ 00000001801609e0     libucrtd:output.obj
 0003:00007a80       ??_C@_1BFK@KNCMELHH@?$AA_?$AA_?$AAc?$AAr?$AAt?$AA_?$AAs?$AAt?$AAd?$AAi?$AAo?$AA_?$AAo?$AAu?$AAt@ 0000000180160a80     libucrtd:output.obj
 0003:00007c20       ??_C@_1FK@BCPANIEK@?$AA?$CI?$AA?$CC?$AAM?$AAi?$AAs?$AAs?$AAi?$AAn?$AAg?$AA?5?$AAp?$AAo?$AAs?$AAi?$AAt@ 0000000180160c20     libucrtd:output.obj
 0003:00007c90       ??_C@_1BEI@IHLBHMLJ@?$AA_?$AA_?$AAc?$AAr?$AAt?$AA_?$AAs?$AAt?$AAd?$AAi?$AAo?$AA_?$AAo?$AAu?$AAt@ 0000000180160c90     libucrtd:output.obj
 0003:00007e20       ??_C@_1BMI@LKDDDFDL@?$AA_?$AA_?$AAc?$AAr?$AAt?$AA_?$AAs?$AAt?$AAd?$AAi?$AAo?$AA_?$AAo?$AAu?$AAt@ 0000000180160e20     libucrtd:output.obj
 0003:00008050       ??_C@_1BMM@JGEKEBKL@?$AA_?$AA_?$AAc?$AAr?$AAt?$AA_?$AAs?$AAt?$AAd?$AAi?$AAo?$AA_?$AAo?$AAu?$AAt@ 0000000180161050     libucrtd:output.obj
 0003:00008280       ??_C@_1BEO@ODGKIOAL@?$AA_?$AA_?$AAc?$AAr?$AAt?$AA_?$AAs?$AAt?$AAd?$AAi?$AAo?$AA_?$AAo?$AAu?$AAt@ 0000000180161280     libucrtd:output.obj
 0003:00008410       ??_C@_1BDM@GFCGMNL@?$AA_?$AA_?$AAc?$AAr?$AAt?$AA_?$AAs?$AAt?$AAd?$AAi?$AAo?$AA_?$AAo?$AAu?$AAt@ 0000000180161410     libucrtd:output.obj
 0003:00008590       ??_C@_1BMI@KBPJOJJI@?$AA_?$AA_?$AAc?$AAr?$AAt?$AA_?$AAs?$AAt?$AAd?$AAi?$AAo?$AA_?$AAo?$AAu?$AAt@ 0000000180161590     libucrtd:output.obj
 0003:000087c0       ??_C@_1BMM@PGHHMNDM@?$AA_?$AA_?$AAc?$AAr?$AAt?$AA_?$AAs?$AAt?$AAd?$AAi?$AAo?$AA_?$AAo?$AAu?$AAt@ 00000001801617c0     libucrtd:output.obj
 0003:000089e8       ??_C@_1CI@DDKMNCPP@?$AA_?$AAc?$AAo?$AAn?$AAt?$AAe?$AAx?$AAt?$AA?5?$AA?$CB?$AA?$DN?$AA?5?$AAn?$AAu?$AAl@ 00000001801619e8     libucrtd:output.obj
 0003:00008a20       ??_C@_1HK@IIPGOADH@?$AA_?$AA_?$AAc?$AAr?$AAt?$AA_?$AAs?$AAt?$AAd?$AAi?$AAo?$AA_?$AAo?$AAu?$AAt@ 0000000180161a20     libucrtd:output.obj
 0003:00008ac0       ??_C@_1BLA@MEDMHIOH@?$AA_?$AA_?$AAc?$AAr?$AAt?$AA_?$AAs?$AAt?$AAd?$AAi?$AAo?$AA_?$AAo?$AAu?$AAt@ 0000000180161ac0     libucrtd:output.obj
 0003:00008cd0       ??_C@_1BLE@LCKPBJON@?$AA_?$AA_?$AAc?$AAr?$AAt?$AA_?$AAs?$AAt?$AAd?$AAi?$AAo?$AA_?$AAo?$AAu?$AAt@ 0000000180161cd0     libucrtd:output.obj
 0003:00008ee0       ??_C@_1HE@IACOMEJF@?$AA_?$AA_?$AAc?$AAr?$AAt?$AA_?$AAs?$AAt?$AAd?$AAi?$AAo?$AA_?$AAo?$AAu?$AAt@ 0000000180161ee0     libucrtd:output.obj
 0003:00008f70       ??_C@_1BOA@CBIEMBEE@?$AA_?$AA_?$AAc?$AAr?$AAt?$AA_?$AAs?$AAt?$AAd?$AAi?$AAo?$AA_?$AAo?$AAu?$AAt@ 0000000180161f70     libucrtd:output.obj
 0003:000091b0       ??_C@_1BOE@NLICFINO@?$AA_?$AA_?$AAc?$AAr?$AAt?$AA_?$AAs?$AAt?$AAd?$AAi?$AAo?$AA_?$AAo?$AAu?$AAt@ 00000001801621b0     libucrtd:output.obj
 0003:00009400       ??_C@_1BFK@IOIDDMPJ@?$AA_?$AA_?$AAc?$AAr?$AAt?$AA_?$AAs?$AAt?$AAd?$AAi?$AAo?$AA_?$AAo?$AAu?$AAt@ 0000000180162400     libucrtd:output.obj
 0003:000095a0       ??_C@_1BEI@JNJAFAD@?$AA_?$AA_?$AAc?$AAr?$AAt?$AA_?$AAs?$AAt?$AAd?$AAi?$AAo?$AA_?$AAo?$AAu?$AAt@ 00000001801625a0     libucrtd:output.obj
 0003:00009730       ??_C@_1BMI@PKGBOKJK@?$AA_?$AA_?$AAc?$AAr?$AAt?$AA_?$AAs?$AAt?$AAd?$AAi?$AAo?$AA_?$AAo?$AAu?$AAt@ 0000000180162730     libucrtd:output.obj
 0003:00009960       ??_C@_1BMM@BLBJDDIA@?$AA_?$AA_?$AAc?$AAr?$AAt?$AA_?$AAs?$AAt?$AAd?$AAi?$AAo?$AA_?$AAo?$AAu?$AAt@ 0000000180162960     libucrtd:output.obj
 0003:00009b90       ??_C@_1BEO@JEHLMMKB@?$AA_?$AA_?$AAc?$AAr?$AAt?$AA_?$AAs?$AAt?$AAd?$AAi?$AAo?$AA_?$AAo?$AAu?$AAt@ 0000000180162b90     libucrtd:output.obj
 0003:00009d20       ??_C@_1BDM@FDOLKCHK@?$AA_?$AA_?$AAc?$AAr?$AAt?$AA_?$AAs?$AAt?$AAd?$AAi?$AAo?$AA_?$AAo?$AAu?$AAt@ 0000000180162d20     libucrtd:output.obj
 0003:00009ea0       ??_C@_1BNK@ONPHCEAM@?$AA_?$AA_?$AAc?$AAr?$AAt?$AA_?$AAs?$AAt?$AAd?$AAi?$AAo?$AA_?$AAo?$AAu?$AAt@ 0000000180162ea0     libucrtd:output.obj
 0003:0000a0e0       ??_C@_1BNO@LMMLJOOJ@?$AA_?$AA_?$AAc?$AAr?$AAt?$AA_?$AAs?$AAt?$AAd?$AAi?$AAo?$AA_?$AAo?$AAu?$AAt@ 00000001801630e0     libucrtd:output.obj
 0003:0000a320       ??_C@_1GC@BNMHNGKM@?$AA_?$AAs?$AAt?$AAa?$AAt?$AAe?$AA?5?$AA?$DN?$AA?$DN?$AA?5?$AAs?$AAt?$AAa?$AAt?$AAe@ 0000000180163320     libucrtd:output.obj
 0003:0000a3a0       ??_C@_1BEC@FNIGNBHI@?$AA_?$AA_?$AAc?$AAr?$AAt?$AA_?$AAs?$AAt?$AAd?$AAi?$AAo?$AA_?$AAo?$AAu?$AAt@ 00000001801633a0     libucrtd:output.obj
 0003:0000a530       ??_C@_1BMC@DAENMDAD@?$AA_?$AA_?$AAc?$AAr?$AAt?$AA_?$AAs?$AAt?$AAd?$AAi?$AAo?$AA_?$AAo?$AAu?$AAt@ 0000000180163530     libucrtd:output.obj
 0003:0000a750       ??_C@_1BMG@KOENKAMB@?$AA_?$AA_?$AAc?$AAr?$AAt?$AA_?$AAs?$AAt?$AAd?$AAi?$AAo?$AA_?$AAo?$AAu?$AAt@ 0000000180163750     libucrtd:output.obj
 0003:0000a970       ??_C@_1BDG@PLANJEFE@?$AA_?$AA_?$AAc?$AAr?$AAt?$AA_?$AAs?$AAt?$AAd?$AAi?$AAo?$AA_?$AAo?$AAu?$AAt@ 0000000180163970     libucrtd:output.obj
 0003:0000aaf0       ??_C@_1BMI@DNMDMAAN@?$AA_?$AA_?$AAc?$AAr?$AAt?$AA_?$AAs?$AAt?$AAd?$AAi?$AAo?$AA_?$AAo?$AAu?$AAt@ 0000000180163af0     libucrtd:output.obj
 0003:0000ad20       ??_C@_1BMM@JHGFKAND@?$AA_?$AA_?$AAc?$AAr?$AAt?$AA_?$AAs?$AAt?$AAd?$AAi?$AAo?$AA_?$AAo?$AAu?$AAt@ 0000000180163d20     libucrtd:output.obj
 0003:0000af48       ??_C@_1CA@ONEGMNAN@?$AA_?$AAs?$AAt?$AAr?$AAe?$AAa?$AAm?$AA?4?$AAv?$AAa?$AAl?$AAi?$AAd?$AA?$CI?$AA?$CJ@ 0000000180163f48     libucrtd:output.obj
 0003:0000af70       ??_C@_1HK@MPBCDOK@?$AA_?$AA_?$AAc?$AAr?$AAt?$AA_?$AAs?$AAt?$AAd?$AAi?$AAo?$AA_?$AAo?$AAu?$AAt@ 0000000180163f70     libucrtd:output.obj
 0003:0000b010       ??_C@_1BLA@GJNGKGIK@?$AA_?$AA_?$AAc?$AAr?$AAt?$AA_?$AAs?$AAt?$AAd?$AAi?$AAo?$AA_?$AAo?$AAu?$AAt@ 0000000180164010     libucrtd:output.obj
 0003:0000b220       ??_C@_1BLE@PAACOKDK@?$AA_?$AA_?$AAc?$AAr?$AAt?$AA_?$AAs?$AAt?$AAd?$AAi?$AAo?$AA_?$AAo?$AAu?$AAt@ 0000000180164220     libucrtd:output.obj
 0003:0000b430       ??_C@_1HE@FGKHNBNL@?$AA_?$AA_?$AAc?$AAr?$AAt?$AA_?$AAs?$AAt?$AAd?$AAi?$AAo?$AA_?$AAo?$AAu?$AAt@ 0000000180164430     libucrtd:output.obj
 0003:0000b4c0       ??_C@_1EK@PNGFDECN@?$AA?$CI?$AA?$CC?$AA?8?$AAn?$AA?8?$AA?5?$AAf?$AAo?$AAr?$AAm?$AAa?$AAt?$AA?5?$AAs?$AAp@ 00000001801644c0     libucrtd:output.obj
 0003:0000b520       ??_C@_1BNI@OPBGCNOB@?$AA_?$AA_?$AAc?$AAr?$AAt?$AA_?$AAs?$AAt?$AAd?$AAi?$AAo?$AA_?$AAo?$AAu?$AAt@ 0000000180164520     libucrtd:output.obj
 0003:0000b760       ??_C@_1EO@GHKFGFKL@?$AA?$CI?$AA?$CC?$AAI?$AAn?$AAv?$AAa?$AAl?$AAi?$AAd?$AA?5?$AAi?$AAn?$AAt?$AAe?$AAg@ 0000000180164760     libucrtd:output.obj
 0003:0000b7c0       ??_C@_1JC@PMCLKCOC@?$AAp?$AAr?$AAe?$AAc?$AAi?$AAs?$AAi?$AAo?$AAn?$AA_?$AAi?$AAn?$AAd?$AAe?$AAx@ 00000001801647c0     libucrtd:output.obj
 0003:0000b870       ??_C@_1BAG@GKCGGKOF@?$AA_?$AA_?$AAc?$AAr?$AAt?$AA_?$AAs?$AAt?$AAd?$AAi?$AAo?$AA_?$AAo?$AAu?$AAt@ 0000000180164870     libucrtd:output.obj
 0003:0000b9b0       ??_C@_1IC@KGDNLBNC@?$AAw?$AAi?$AAd?$AAt?$AAh?$AA_?$AAi?$AAn?$AAd?$AAe?$AAx?$AA?5?$AA?$DO?$AA?$DN?$AA?5@ 00000001801649b0     libucrtd:output.obj
 0003:0000ba50       ??_C@_1BAK@CDLANFGA@?$AA_?$AA_?$AAc?$AAr?$AAt?$AA_?$AAs?$AAt?$AAd?$AAi?$AAo?$AA_?$AAo?$AAu?$AAt@ 0000000180164a50     libucrtd:output.obj
 0003:0000bb90       ??_C@_1BEC@NDOOKIMC@?$AA_?$AA_?$AAc?$AAr?$AAt?$AA_?$AAs?$AAt?$AAd?$AAi?$AAo?$AA_?$AAo?$AAu?$AAt@ 0000000180164b90     libucrtd:output.obj
 0003:0000bd20       ??_C@_1BMA@CBPCAOAB@?$AA_?$AA_?$AAc?$AAr?$AAt?$AA_?$AAs?$AAt?$AAd?$AAi?$AAo?$AA_?$AAo?$AAu?$AAt@ 0000000180164d20     libucrtd:output.obj
 0003:0000bf40       ??_C@_1PK@KBJLALII@?$AA_?$AA_?$AAc?$AAr?$AAt?$AA_?$AAs?$AAt?$AAd?$AAi?$AAo?$AA_?$AAo?$AAu?$AAt@ 0000000180164f40     libucrtd:output.obj
 0003:0000c070       ??_C@_1PO@PODEJAGE@?$AA_?$AA_?$AAc?$AAr?$AAt?$AA_?$AAs?$AAt?$AAd?$AAi?$AAo?$AA_?$AAo?$AAu?$AAt@ 0000000180165070     libucrtd:output.obj
 0003:0000c1a0       ??_C@_1BDG@KOLEFKPF@?$AA_?$AA_?$AAc?$AAr?$AAt?$AA_?$AAs?$AAt?$AAd?$AAi?$AAo?$AA_?$AAo?$AAu?$AAt@ 00000001801651a0     libucrtd:output.obj
 0003:0000c320       ??_C@_1BMA@IHIBOLMD@?$AA_?$AA_?$AAc?$AAr?$AAt?$AA_?$AAs?$AAt?$AAd?$AAi?$AAo?$AA_?$AAo?$AAu?$AAt@ 0000000180165320     libucrtd:output.obj
 0003:0000c540       ??_C@_1BKI@CJEIGDAI@?$AA_?$AA_?$AAc?$AAr?$AAt?$AA_?$AAs?$AAt?$AAd?$AAi?$AAo?$AA_?$AAo?$AAu?$AAt@ 0000000180165540     libucrtd:output.obj
 0003:0000c740       ??_C@_1BNI@IMOCDBNE@?$AA_?$AA_?$AAc?$AAr?$AAt?$AA_?$AAs?$AAt?$AAd?$AAi?$AAo?$AA_?$AAo?$AAu?$AAt@ 0000000180165740     libucrtd:output.obj
 0003:0000c980       ??_C@_1BAG@DOFNHDMF@?$AA_?$AA_?$AAc?$AAr?$AAt?$AA_?$AAs?$AAt?$AAd?$AAi?$AAo?$AA_?$AAo?$AAu?$AAt@ 0000000180165980     libucrtd:output.obj
 0003:0000cac0       ??_C@_1BAK@DALINHHB@?$AA_?$AA_?$AAc?$AAr?$AAt?$AA_?$AAs?$AAt?$AAd?$AAi?$AAo?$AA_?$AAo?$AAu?$AAt@ 0000000180165ac0     libucrtd:output.obj
 0003:0000cc00       ??_C@_1BMA@GACGPGHN@?$AA_?$AA_?$AAc?$AAr?$AAt?$AA_?$AAs?$AAt?$AAd?$AAi?$AAo?$AA_?$AAo?$AAu?$AAt@ 0000000180165c00     libucrtd:output.obj
 0003:0000ce20       ??_C@_1PK@KBJECIEM@?$AA_?$AA_?$AAc?$AAr?$AAt?$AA_?$AAs?$AAt?$AAd?$AAi?$AAo?$AA_?$AAo?$AAu?$AAt@ 0000000180165e20     libucrtd:output.obj
 0003:0000cf50       ??_C@_1PO@LKIIANED@?$AA_?$AA_?$AAc?$AAr?$AAt?$AA_?$AAs?$AAt?$AAd?$AAi?$AAo?$AA_?$AAo?$AAu?$AAt@ 0000000180165f50     libucrtd:output.obj
 0003:0000d080       ??_C@_1BNC@DONELHFF@?$AA_?$AA_?$AAc?$AAr?$AAt?$AA_?$AAs?$AAt?$AAd?$AAi?$AAo?$AA_?$AAo?$AAu?$AAt@ 0000000180166080     libucrtd:output.obj
 0003:0000d2b0       ??_C@_1BLK@BGFMMAPO@?$AA_?$AA_?$AAc?$AAr?$AAt?$AA_?$AAs?$AAt?$AAd?$AAi?$AAo?$AA_?$AAo?$AAu?$AAt@ 00000001801662b0     libucrtd:output.obj
 0003:0000d4d0       ??_C@_1BMA@PGOJAHFP@?$AA_?$AA_?$AAc?$AAr?$AAt?$AA_?$AAs?$AAt?$AAd?$AAi?$AAo?$AA_?$AAo?$AAu?$AAt@ 00000001801664d0     libucrtd:output.obj
 0003:0000d6f0       ??_C@_1BKI@NDKBCDGP@?$AA_?$AA_?$AAc?$AAr?$AAt?$AA_?$AAs?$AAt?$AAd?$AAi?$AAo?$AA_?$AAo?$AAu?$AAt@ 00000001801666f0     libucrtd:output.obj
 0003:0000d8f0       ??_C@_1O@CEDCILHN@?$AA?$CI?$AAn?$AAu?$AAl?$AAl?$AA?$CJ@ 00000001801668f0     libucrtd:output.obj
 0003:0000d900       ??_C@_06OJHGLDPL@?$CInull?$CJ@ 0000000180166900     libucrtd:output.obj
 0003:0000d910       ??_C@_1LO@HECDHMMI@?$AAi?$AAs?$AA_?$AAp?$AAo?$AAs?$AAi?$AAt?$AAi?$AAo?$AAn?$AAa?$AAl?$AA_?$AAp@ 0000000180166910     libucrtd:output.obj
 0003:0000da00       ??_C@_1BCI@OBMMNJKK@?$AA_?$AA_?$AAc?$AAr?$AAt?$AA_?$AAs?$AAt?$AAd?$AAi?$AAo?$AA_?$AAo?$AAu?$AAt@ 0000000180166a00     libucrtd:output.obj
 0003:0000db70       ??_C@_1FE@IAFJEKN@?$AA_?$AAt?$AAy?$AAp?$AAe?$AA_?$AAi?$AAn?$AAd?$AAe?$AAx?$AA?5?$AA?$DO?$AA?$DN?$AA?5@ 0000000180166b70     libucrtd:output.obj
 0003:0000dbe0       ??_C@_1BCC@GJLKCHIG@?$AA_?$AA_?$AAc?$AAr?$AAt?$AA_?$AAs?$AAt?$AAd?$AAi?$AAo?$AA_?$AAo?$AAu?$AAt@ 0000000180166be0     libucrtd:output.obj
 0003:0000dd40       ??_C@_1CK@LGDCECDH@?$AA_?$AAf?$AAo?$AAr?$AAm?$AAa?$AAt?$AA_?$AAc?$AAh?$AAa?$AAr?$AA?5?$AA?$CB?$AA?$DN@ 0000000180166d40     libucrtd:output.obj
 0003:0000dd80       ??_C@_1BNI@EDCGAPJB@?$AA_?$AA_?$AAc?$AAr?$AAt?$AA_?$AAs?$AAt?$AAd?$AAi?$AAo?$AA_?$AAo?$AAu?$AAt@ 0000000180166d80     libucrtd:output.obj
 0003:0000dfc0       ??_C@_1BBM@CBBAFMPJ@?$AA_?$AA_?$AAc?$AAr?$AAt?$AA_?$AAs?$AAt?$AAd?$AAi?$AAo?$AA_?$AAo?$AAu?$AAt@ 0000000180166fc0     libucrtd:output.obj
 0003:0000e120       ??_C@_1BBG@KIHCHFIM@?$AA_?$AA_?$AAc?$AAr?$AAt?$AA_?$AAs?$AAt?$AAd?$AAi?$AAo?$AA_?$AAo?$AAu?$AAt@ 0000000180167120     libucrtd:output.obj
 0003:0000e270       ??_C@_1BMA@FANDDEHK@?$AA_?$AA_?$AAc?$AAr?$AAt?$AA_?$AAs?$AAt?$AAd?$AAi?$AAo?$AA_?$AAo?$AAu?$AAt@ 0000000180167270     libucrtd:output.obj
 0003:0000e490       ??_C@_1BCI@ILAANKJG@?$AA_?$AA_?$AAc?$AAr?$AAt?$AA_?$AAs?$AAt?$AAd?$AAi?$AAo?$AA_?$AAo?$AAu?$AAt@ 0000000180167490     libucrtd:output.obj
 0003:0000e600       ??_C@_1BCC@PDNLFIHK@?$AA_?$AA_?$AAc?$AAr?$AAt?$AA_?$AAs?$AAt?$AAd?$AAi?$AAo?$AA_?$AAo?$AAu?$AAt@ 0000000180167600     libucrtd:output.obj
 0003:0000e760       ??_C@_1BNI@EJPCEBAG@?$AA_?$AA_?$AAc?$AAr?$AAt?$AA_?$AAs?$AAt?$AAd?$AAi?$AAo?$AA_?$AAo?$AAu?$AAt@ 0000000180167760     libucrtd:output.obj
 0003:0000e9a0       ??_C@_1BBM@LLHBCDAF@?$AA_?$AA_?$AAc?$AAr?$AAt?$AA_?$AAs?$AAt?$AAd?$AAi?$AAo?$AA_?$AAo?$AAu?$AAt@ 00000001801679a0     libucrtd:output.obj
 0003:0000eb00       ??_C@_1BBG@JLLDGFML@?$AA_?$AA_?$AAc?$AAr?$AAt?$AA_?$AAs?$AAt?$AAd?$AAi?$AAo?$AA_?$AAo?$AAu?$AAt@ 0000000180167b00     libucrtd:output.obj
 0003:0000ec50       ??_C@_1BNC@BAMNIOCM@?$AA_?$AA_?$AAc?$AAr?$AAt?$AA_?$AAs?$AAt?$AAd?$AAi?$AAo?$AA_?$AAo?$AAu?$AAt@ 0000000180167c50     libucrtd:output.obj
 0003:0000ee80       ??_C@_1BMA@MEBEEDJE@?$AA_?$AA_?$AAc?$AAr?$AAt?$AA_?$AAs?$AAt?$AAd?$AAi?$AAo?$AA_?$AAo?$AAu?$AAt@ 0000000180167e80     libucrtd:output.obj
 0003:0000f0a0       ??_C@_1BCA@HCPCJFGA@?$AA_?$AA_?$AAc?$AAr?$AAt?$AA_?$AAs?$AAt?$AAd?$AAi?$AAo?$AA_?$AAo?$AAu?$AAt@ 00000001801680a0     libucrtd:output.obj
 0003:0000f200       ??_C@_1BOE@LIBLDKPN@?$AA_?$AA_?$AAc?$AAr?$AAt?$AA_?$AAs?$AAt?$AAd?$AAi?$AAo?$AA_?$AAo?$AAu?$AAt@ 0000000180168200     libucrtd:output.obj
 0003:0000f448       ??_C@_0DI@KIFBHMNO@minkernel?2crts?2ucrt?2inc?2corecrt@ 0000000180168448     libucrtd:output.obj
 0003:0000f490       ??_C@_1BBE@IBPNPIIM@?$AA_?$AA_?$AAc?$AAr?$AAt?$AA_?$AAs?$AAt?$AAd?$AAi?$AAo?$AA_?$AAo?$AAu?$AAt@ 0000000180168490     libucrtd:output.obj
 0003:0000f5e0       ??_C@_1BMM@KBPMKFBC@?$AA_?$AA_?$AAc?$AAr?$AAt?$AA_?$AAs?$AAt?$AAd?$AAi?$AAo?$AA_?$AAo?$AAu?$AAt@ 00000001801685e0     libucrtd:output.obj
 0003:0000f810       ??_C@_1BMM@MBMBCJIF@?$AA_?$AA_?$AAc?$AAr?$AAt?$AA_?$AAs?$AAt?$AAd?$AAi?$AAo?$AA_?$AAo?$AAu?$AAt@ 0000000180168810     libucrtd:output.obj
 0003:0000fa40       ??_C@_1BLE@IFBJPNFE@?$AA_?$AA_?$AAc?$AAr?$AAt?$AA_?$AAs?$AAt?$AAd?$AAi?$AAo?$AA_?$AAo?$AAu?$AAt@ 0000000180168a40     libucrtd:output.obj
 0003:0000fc50       ??_C@_1BCA@FCGNBIN@?$AA_?$AA_?$AAc?$AAr?$AAt?$AA_?$AAs?$AAt?$AAd?$AAi?$AAo?$AA_?$AAo?$AAu?$AAt@ 0000000180168c50     libucrtd:output.obj
 0003:0000fdb0       ??_C@_1BOE@OMDELMGH@?$AA_?$AA_?$AAc?$AAr?$AAt?$AA_?$AAs?$AAt?$AAd?$AAi?$AAo?$AA_?$AAo?$AAu?$AAt@ 0000000180168db0     libucrtd:output.obj
 0003:00010000       ??_C@_1BBE@FLKADCDA@?$AA_?$AA_?$AAc?$AAr?$AAt?$AA_?$AAs?$AAt?$AAd?$AAi?$AAo?$AA_?$AAo?$AAu?$AAt@ 0000000180169000     libucrtd:output.obj
 0003:00010150       ??_C@_1BMM@CMKPNHDJ@?$AA_?$AA_?$AAc?$AAr?$AAt?$AA_?$AAs?$AAt?$AAd?$AAi?$AAo?$AA_?$AAo?$AAu?$AAt@ 0000000180169150     libucrtd:output.obj
 0003:00010380       ??_C@_1BNO@ILHNHKFA@?$AA_?$AA_?$AAc?$AAr?$AAt?$AA_?$AAs?$AAt?$AAd?$AAi?$AAo?$AA_?$AAo?$AAu?$AAt@ 0000000180169380     libucrtd:output.obj
 0003:000105c0       ??_C@_1BMG@JJPLEEHI@?$AA_?$AA_?$AAc?$AAr?$AAt?$AA_?$AAs?$AAt?$AAd?$AAi?$AAo?$AA_?$AAo?$AAu?$AAt@ 00000001801695c0     libucrtd:output.obj
 0003:000107e0       ??_C@_1BMM@KANDEEGK@?$AA_?$AA_?$AAc?$AAr?$AAt?$AA_?$AAs?$AAt?$AAd?$AAi?$AAo?$AA_?$AAo?$AAu?$AAt@ 00000001801697e0     libucrtd:output.obj
 0003:00010a10       ??_C@_1BLE@MHLEAOID@?$AA_?$AA_?$AAc?$AAr?$AAt?$AA_?$AAs?$AAt?$AAd?$AAi?$AAo?$AA_?$AAo?$AAu?$AAt@ 0000000180169a10     libucrtd:output.obj
 0003:00010c20       ??_C@_1BMK@JGIBNIA@?$AA_?$AA_?$AAc?$AAr?$AAt?$AA_?$AAs?$AAt?$AAd?$AAi?$AAo?$AA_?$AAo?$AAu?$AAt@ 0000000180169c20     libucrtd:output.obj
 0003:00010e50       ??_C@_1BLC@INKIGOCN@?$AA_?$AA_?$AAc?$AAr?$AAt?$AA_?$AAs?$AAt?$AAd?$AAi?$AAo?$AA_?$AAo?$AAu?$AAt@ 0000000180169e50     libucrtd:output.obj
 0003:00011060       ??_C@_1BNK@KHNJGCCP@?$AA_?$AA_?$AAc?$AAr?$AAt?$AA_?$AAs?$AAt?$AAd?$AAi?$AAo?$AA_?$AAo?$AAu?$AAt@ 000000018016a060     libucrtd:output.obj
 0003:000112a0       ??_C@_1BNO@OHFFMOOJ@?$AA_?$AA_?$AAc?$AAr?$AAt?$AA_?$AAs?$AAt?$AAd?$AAi?$AAo?$AA_?$AAo?$AAu?$AAt@ 000000018016a2a0     libucrtd:output.obj
 0003:000114e0       ??_C@_1BMC@FAGJFBLI@?$AA_?$AA_?$AAc?$AAr?$AAt?$AA_?$AAs?$AAt?$AAd?$AAi?$AAo?$AA_?$AAo?$AAu?$AAt@ 000000018016a4e0     libucrtd:output.obj
 0003:00011700       ??_C@_1BMG@CGPDIFDK@?$AA_?$AA_?$AAc?$AAr?$AAt?$AA_?$AAs?$AAt?$AAd?$AAi?$AAo?$AA_?$AAo?$AAu?$AAt@ 000000018016a700     libucrtd:output.obj
 0003:00011920       ??_C@_1BNC@OHPDPPJK@?$AA_?$AA_?$AAc?$AAr?$AAt?$AA_?$AAs?$AAt?$AAd?$AAi?$AAo?$AA_?$AAo?$AAu?$AAt@ 000000018016a920     libucrtd:output.obj
 0003:00011b50       ??_C@_1BLK@FOLFMPJH@?$AA_?$AA_?$AAc?$AAr?$AAt?$AA_?$AAs?$AAt?$AAd?$AAi?$AAo?$AA_?$AAo?$AAu?$AAt@ 000000018016ab50     libucrtd:output.obj
 0003:00011d70       ??_C@_1BNC@JPKLPOHO@?$AA_?$AA_?$AAc?$AAr?$AAt?$AA_?$AAs?$AAt?$AAd?$AAi?$AAo?$AA_?$AAo?$AAu?$AAt@ 000000018016ad70     libucrtd:output.obj
 0003:00011fa0       ??_C@_1EO@MLJCKPIB@?$AAb?$AAa?$AAs?$AAe?$AA?5?$AA?$DN?$AA?$DN?$AA?5?$AA0?$AA?5?$AA?$HM?$AA?$HM?$AA?5?$AA?$CI?$AA2@ 000000018016afa0     libucrtd:output.obj
 0003:00012000       ??_C@_1DI@BANODKFL@?$AA_?$AA_?$AAc?$AAr?$AAt?$AA_?$AAs?$AAt?$AAr?$AAt?$AAo?$AAx?$AA?3?$AA?3?$AAp@ 000000018016b000     libucrtd:output.obj
 0003:00012050       ??_C@_1BNO@NAODCKFA@?$AA_?$AA_?$AAc?$AAr?$AAt?$AA_?$AAs?$AAt?$AAd?$AAi?$AAo?$AA_?$AAo?$AAu?$AAt@ 000000018016b050     libucrtd:output.obj
 0003:00012290       ??_C@_1BMG@BBEFGBID@?$AA_?$AA_?$AAc?$AAr?$AAt?$AA_?$AAs?$AAt?$AAd?$AAi?$AAo?$AA_?$AAo?$AAu?$AAt@ 000000018016b290     libucrtd:output.obj
 0003:000124b0       ??_C@_1CM@GJENOOEJ@?$AAc?$AA?5?$AA?$DN?$AA?$DN?$AA?5?$AA?8?$AA?2?$AA0?$AA?8?$AA?5?$AA?$HM?$AA?$HM?$AA?5?$AA?$CK?$AA_@ 000000018016b4b0     libucrtd:output.obj
 0003:000124f0       ??_C@_1GK@MNHIDABG@?$AA_?$AA_?$AAc?$AAr?$AAt?$AA_?$AAs?$AAt?$AAr?$AAt?$AAo?$AAx?$AA?3?$AA?3?$AAc@ 000000018016b4f0     libucrtd:output.obj
 0003:00012570       ??_C@_1BM@PNEBBBDO@?$AA_?$AAp?$AA?5?$AA?$CB?$AA?$DN?$AA?5?$AAn?$AAu?$AAl?$AAl?$AAp?$AAt?$AAr@ 000000018016b570     libucrtd:output.obj
 0003:000125a0       ??_C@_1HA@MKKIHBHP@?$AA_?$AA_?$AAc?$AAr?$AAt?$AA_?$AAs?$AAt?$AAr?$AAt?$AAo?$AAx?$AA?3?$AA?3?$AAc@ 000000018016b5a0     libucrtd:output.obj
 0003:00012630       ??_C@_1HA@CONLANFI@?$AA_?$AA_?$AAc?$AAr?$AAt?$AA_?$AAs?$AAt?$AAr?$AAt?$AAo?$AAx?$AA?3?$AA?3?$AAc@ 000000018016b630     libucrtd:output.obj
